aarch64-none-elf-objdump --disassemble-all target/aarch64-unknown-none/release/graph_os

target/aarch64-unknown-none/release/graph_os:     file format elf64-littleaarch64


Disassembly of section .text:

0000000000080000 <_start>:
   80000:	d53800a1 	mrs	x1, mpidr_el1
   80004:	92400421 	and	x1, x1, #0x3
   80008:	b4000061 	cbz	x1, 80014 <_start+0x14>
   8000c:	d503205f 	wfe
   80010:	17ffffff 	b	8000c <_start+0xc>
   80014:	580001a1 	ldr	x1, 80048 <_start+0x48>
   80018:	9100003f 	mov	sp, x1
   8001c:	580001a1 	ldr	x1, 80050 <_start+0x50>
   80020:	180001c2 	ldr	w2, 80058 <_start+0x58>
   80024:	34000082 	cbz	w2, 80034 <_start+0x34>
   80028:	f800843f 	str	xzr, [x1], #8
   8002c:	51000442 	sub	w2, w2, #0x1
   80030:	35ffffa2 	cbnz	w2, 80024 <_start+0x24>
   80034:	58000160 	ldr	x0, 80060 <_start+0x60>
   80038:	d518c000 	msr	vbar_el1, x0
   8003c:	58000160 	ldr	x0, 80068 <_start+0x68>
   80040:	1400000c 	b	80070 <main>
   80044:	d503201f 	nop
   80048:	00080000 	.inst	0x00080000 ; undefined
   8004c:	00000000 	udf	#0
   80050:	000868c0 	.inst	0x000868c0 ; undefined
   80054:	00000000 	udf	#0
   80058:	00000003 	udf	#3
   8005c:	d503201f 	nop
   80060:	00081800 	.inst	0x00081800 ; undefined
   80064:	00000000 	udf	#0
   80068:	000868e0 	.inst	0x000868e0 ; undefined
   8006c:	00000000 	udf	#0

0000000000080070 <main>:
   80070:	d105c3ff 	sub	sp, sp, #0x170
   80074:	b0000028 	adrp	x8, 85000 <memcpy+0x14>
   80078:	3dc0d100 	ldr	q0, [x8, #832]
   8007c:	910043e8 	add	x8, sp, #0x10
   80080:	a9164ff4 	stp	x20, x19, [sp, #352]
   80084:	aa0003f3 	mov	x19, x0
   80088:	f90007e0 	str	x0, [sp, #8]
   8008c:	a902a3e8 	stp	x8, x8, [sp, #40]
   80090:	9100e3e8 	add	x8, sp, #0x38
   80094:	9100a3e0 	add	x0, sp, #0x28
   80098:	910043e1 	add	x1, sp, #0x10
   8009c:	f9009bfd 	str	x29, [sp, #304]
   800a0:	a9145ffe 	stp	x30, x23, [sp, #320]
   800a4:	a91557f6 	stp	x22, x21, [sp, #336]
   800a8:	3d8007e0 	str	q0, [sp, #16]
   800ac:	9400043c 	bl	8119c <_ZN8graph_os8platform6raspi34uart14UARTController4init17hc6243bd3960c6e87E>
   800b0:	52800028 	mov	w8, #0x1                   	// #1
   800b4:	9100e3e0 	add	x0, sp, #0x38
   800b8:	390143e8 	strb	w8, [sp, #80]
   800bc:	940004a0 	bl	8133c <_ZN8graph_os8platform6raspi34uart14UARTController7newline17h3bac0dbadd4d9f97E>
   800c0:	9100e3e0 	add	x0, sp, #0x38
   800c4:	9400049e 	bl	8133c <_ZN8graph_os8platform6raspi34uart14UARTController7newline17h3bac0dbadd4d9f97E>
   800c8:	f94027e8 	ldr	x8, [sp, #72]
   800cc:	394143e9 	ldrb	w9, [sp, #80]
   800d0:	f0000016 	adrp	x22, 83000 <_ZN4core3fmt8builders11DebugStruct5field17h9e0dae53a1c9bd69E+0x118>
   800d4:	f0000014 	adrp	x20, 83000 <_ZN4core3fmt8builders11DebugStruct5field17h9e0dae53a1c9bd69E+0x118>
   800d8:	b0000035 	adrp	x21, 85000 <memcpy+0x14>
   800dc:	913282d6 	add	x22, x22, #0xca0
   800e0:	91328294 	add	x20, x20, #0xca0
   800e4:	91000508 	add	x8, x8, #0x1
   800e8:	7100053f 	cmp	w9, #0x1
   800ec:	911a22b5 	add	x21, x21, #0x688
   800f0:	f90027e8 	str	x8, [sp, #72]
   800f4:	54000321 	b.ne	80158 <main+0xe8>  // b.any
   800f8:	f9009fe8 	str	x8, [sp, #312]
   800fc:	d5384249 	mrs	x9, currentel
   80100:	d3420d29 	ubfx	x9, x9, #2, #2
   80104:	f90057e9 	str	x9, [sp, #168]
   80108:	d53800a9 	mrs	x9, mpidr_el1
   8010c:	5280008c 	mov	w12, #0x4                   	// #4
   80110:	92401d29 	and	x9, x9, #0xff
   80114:	b0000021 	adrp	x1, 85000 <memcpy+0x14>
   80118:	9104e3e8 	add	x8, sp, #0x138
   8011c:	9102a3ea 	add	x10, sp, #0xa8
   80120:	910403eb 	add	x11, sp, #0x100
   80124:	a90633f5 	stp	x21, x12, [sp, #96]
   80128:	910303ec 	add	x12, sp, #0xc0
   8012c:	f90083e9 	str	x9, [sp, #256]
   80130:	52800069 	mov	w9, #0x3                   	// #3
   80134:	91194021 	add	x1, x1, #0x650
   80138:	9100e3e0 	add	x0, sp, #0x38
   8013c:	910183e2 	add	x2, sp, #0x60
   80140:	a90c5be8 	stp	x8, x22, [sp, #192]
   80144:	a90d53ea 	stp	x10, x20, [sp, #208]
   80148:	a90e53eb 	stp	x11, x20, [sp, #224]
   8014c:	a9077fff 	stp	xzr, xzr, [sp, #112]
   80150:	a90827ec 	stp	x12, x9, [sp, #128]
   80154:	9400104b 	bl	84280 <_ZN4core3fmt5write17hb5f6a3bd29bb9808E>
   80158:	f94023e0 	ldr	x0, [sp, #64]
   8015c:	b0000021 	adrp	x1, 85000 <memcpy+0x14>
   80160:	910d8021 	add	x1, x1, #0x360
   80164:	52800362 	mov	w2, #0x1b                  	// #27
   80168:	9400049b 	bl	813d4 <_ZN8graph_os8platform6raspi34uart14UARTController5write17h14e13fbd0204fec3E.llvm.16487754560651466094>
   8016c:	9100e3e0 	add	x0, sp, #0x38
   80170:	94000473 	bl	8133c <_ZN8graph_os8platform6raspi34uart14UARTController7newline17h3bac0dbadd4d9f97E>
   80174:	9100e3e0 	add	x0, sp, #0x38
   80178:	94000471 	bl	8133c <_ZN8graph_os8platform6raspi34uart14UARTController7newline17h3bac0dbadd4d9f97E>
   8017c:	f94027e8 	ldr	x8, [sp, #72]
   80180:	394143e9 	ldrb	w9, [sp, #80]
   80184:	52a0002a 	mov	w10, #0x10000               	// #65536
   80188:	f9002fea 	str	x10, [sp, #88]
   8018c:	91000508 	add	x8, x8, #0x1
   80190:	7100053f 	cmp	w9, #0x1
   80194:	f90027e8 	str	x8, [sp, #72]
   80198:	54000321 	b.ne	801fc <main+0x18c>  // b.any
   8019c:	f9009fe8 	str	x8, [sp, #312]
   801a0:	d5384249 	mrs	x9, currentel
   801a4:	d3420d29 	ubfx	x9, x9, #2, #2
   801a8:	f90057e9 	str	x9, [sp, #168]
   801ac:	d53800a9 	mrs	x9, mpidr_el1
   801b0:	5280008c 	mov	w12, #0x4                   	// #4
   801b4:	92401d29 	and	x9, x9, #0xff
   801b8:	b0000021 	adrp	x1, 85000 <memcpy+0x14>
   801bc:	9104e3e8 	add	x8, sp, #0x138
   801c0:	9102a3ea 	add	x10, sp, #0xa8
   801c4:	910403eb 	add	x11, sp, #0x100
   801c8:	a90633f5 	stp	x21, x12, [sp, #96]
   801cc:	910303ec 	add	x12, sp, #0xc0
   801d0:	f90083e9 	str	x9, [sp, #256]
   801d4:	52800069 	mov	w9, #0x3                   	// #3
   801d8:	91194021 	add	x1, x1, #0x650
   801dc:	9100e3e0 	add	x0, sp, #0x38
   801e0:	910183e2 	add	x2, sp, #0x60
   801e4:	a90c5be8 	stp	x8, x22, [sp, #192]
   801e8:	a90d53ea 	stp	x10, x20, [sp, #208]
   801ec:	a90e53eb 	stp	x11, x20, [sp, #224]
   801f0:	a9077fff 	stp	xzr, xzr, [sp, #112]
   801f4:	a90827ec 	stp	x12, x9, [sp, #128]
   801f8:	94001022 	bl	84280 <_ZN4core3fmt5write17hb5f6a3bd29bb9808E>
   801fc:	f94023e0 	ldr	x0, [sp, #64]
   80200:	b0000021 	adrp	x1, 85000 <memcpy+0x14>
   80204:	910dec21 	add	x1, x1, #0x37b
   80208:	52800362 	mov	w2, #0x1b                  	// #27
   8020c:	94000472 	bl	813d4 <_ZN8graph_os8platform6raspi34uart14UARTController5write17h14e13fbd0204fec3E.llvm.16487754560651466094>
   80210:	9100e3e0 	add	x0, sp, #0x38
   80214:	9400044a 	bl	8133c <_ZN8graph_os8platform6raspi34uart14UARTController7newline17h3bac0dbadd4d9f97E>
   80218:	91001e68 	add	x8, x19, #0x7
   8021c:	927df108 	and	x8, x8, #0xfffffffffffffff8
   80220:	eb13011f 	cmp	x8, x19
   80224:	54004821 	b.ne	80b28 <main+0xab8>  // b.any
   80228:	d0000028 	adrp	x8, 86000 <anon.57ef2e3c02ffeaf529e6c598bd0b036c.20.llvm.5445877691761700591+0x1c>
   8022c:	91232108 	add	x8, x8, #0x8c8
   80230:	f9400109 	ldr	x9, [x8]
   80234:	52a0002a 	mov	w10, #0x10000               	// #65536
   80238:	910023eb 	add	x11, sp, #0x8
   8023c:	a900266a 	stp	x10, x9, [x19]
   80240:	d0000009 	adrp	x9, 82000 <handle_exception+0x60>
   80244:	f8008513 	str	x19, [x8], #8
   80248:	912cf129 	add	x9, x9, #0xb3c
   8024c:	089ffd1f 	stlrb	wzr, [x8]
   80250:	a91027eb 	stp	x11, x9, [sp, #256]
   80254:	f94027e8 	ldr	x8, [sp, #72]
   80258:	394143e9 	ldrb	w9, [sp, #80]
   8025c:	910163ea 	add	x10, sp, #0x58
   80260:	a91153ea 	stp	x10, x20, [sp, #272]
   80264:	91000508 	add	x8, x8, #0x1
   80268:	7100053f 	cmp	w9, #0x1
   8026c:	f90027e8 	str	x8, [sp, #72]
   80270:	54000361 	b.ne	802dc <main+0x26c>  // b.any
   80274:	f9007fe8 	str	x8, [sp, #248]
   80278:	d538424a 	mrs	x10, currentel
   8027c:	d3420d4a 	ubfx	x10, x10, #2, #2
   80280:	f9009fea 	str	x10, [sp, #312]
   80284:	d53800aa 	mrs	x10, mpidr_el1
   80288:	5280008c 	mov	w12, #0x4                   	// #4
   8028c:	92401d4a 	and	x10, x10, #0xff
   80290:	b0000021 	adrp	x1, 85000 <memcpy+0x14>
   80294:	9103e3e8 	add	x8, sp, #0xf8
   80298:	9104e3e9 	add	x9, sp, #0x138
   8029c:	9102a3eb 	add	x11, sp, #0xa8
   802a0:	a90633f5 	stp	x21, x12, [sp, #96]
   802a4:	910303ec 	add	x12, sp, #0xc0
   802a8:	f90057ea 	str	x10, [sp, #168]
   802ac:	5280006a 	mov	w10, #0x3                   	// #3
   802b0:	91194021 	add	x1, x1, #0x650
   802b4:	9100e3e0 	add	x0, sp, #0x38
   802b8:	910183e2 	add	x2, sp, #0x60
   802bc:	9100e3f3 	add	x19, sp, #0x38
   802c0:	a90c5be8 	stp	x8, x22, [sp, #192]
   802c4:	a90d53e9 	stp	x9, x20, [sp, #208]
   802c8:	a90e53eb 	stp	x11, x20, [sp, #224]
   802cc:	a9077fff 	stp	xzr, xzr, [sp, #112]
   802d0:	a9082bec 	stp	x12, x10, [sp, #128]
   802d4:	94000feb 	bl	84280 <_ZN4core3fmt5write17hb5f6a3bd29bb9808E>
   802d8:	14000002 	b	802e0 <main+0x270>
   802dc:	9100e3f3 	add	x19, sp, #0x38
   802e0:	b0000028 	adrp	x8, 85000 <memcpy+0x14>
   802e4:	b000002a 	adrp	x10, 85000 <memcpy+0x14>
   802e8:	b0000021 	adrp	x1, 85000 <memcpy+0x14>
   802ec:	910f0108 	add	x8, x8, #0x3c0
   802f0:	52800049 	mov	w9, #0x2                   	// #2
   802f4:	910f814a 	add	x10, x10, #0x3e0
   802f8:	910403f7 	add	x23, sp, #0x100
   802fc:	91194021 	add	x1, x1, #0x650
   80300:	910183e2 	add	x2, sp, #0x60
   80304:	aa1303e0 	mov	x0, x19
   80308:	a90627e8 	stp	x8, x9, [sp, #96]
   8030c:	a90727ea 	stp	x10, x9, [sp, #112]
   80310:	a90827f7 	stp	x23, x9, [sp, #128]
   80314:	94000fdb 	bl	84280 <_ZN4core3fmt5write17hb5f6a3bd29bb9808E>
   80318:	9100e3e0 	add	x0, sp, #0x38
   8031c:	94000408 	bl	8133c <_ZN8graph_os8platform6raspi34uart14UARTController7newline17h3bac0dbadd4d9f97E>
   80320:	9100e3e0 	add	x0, sp, #0x38
   80324:	94000406 	bl	8133c <_ZN8graph_os8platform6raspi34uart14UARTController7newline17h3bac0dbadd4d9f97E>
   80328:	f94027e8 	ldr	x8, [sp, #72]
   8032c:	394143e9 	ldrb	w9, [sp, #80]
   80330:	91000508 	add	x8, x8, #0x1
   80334:	7100053f 	cmp	w9, #0x1
   80338:	f90027e8 	str	x8, [sp, #72]
   8033c:	54000301 	b.ne	8039c <main+0x32c>  // b.any
   80340:	f9009fe8 	str	x8, [sp, #312]
   80344:	d5384248 	mrs	x8, currentel
   80348:	d3420d08 	ubfx	x8, x8, #2, #2
   8034c:	f90057e8 	str	x8, [sp, #168]
   80350:	d53800a8 	mrs	x8, mpidr_el1
   80354:	5280008b 	mov	w11, #0x4                   	// #4
   80358:	92401d08 	and	x8, x8, #0xff
   8035c:	b0000021 	adrp	x1, 85000 <memcpy+0x14>
   80360:	9104e3e9 	add	x9, sp, #0x138
   80364:	9102a3ea 	add	x10, sp, #0xa8
   80368:	a9062ff5 	stp	x21, x11, [sp, #96]
   8036c:	910303eb 	add	x11, sp, #0xc0
   80370:	f90083e8 	str	x8, [sp, #256]
   80374:	52800068 	mov	w8, #0x3                   	// #3
   80378:	91194021 	add	x1, x1, #0x650
   8037c:	9100e3e0 	add	x0, sp, #0x38
   80380:	910183e2 	add	x2, sp, #0x60
   80384:	a90c5be9 	stp	x9, x22, [sp, #192]
   80388:	a90d53ea 	stp	x10, x20, [sp, #208]
   8038c:	a90e53f7 	stp	x23, x20, [sp, #224]
   80390:	a9077fff 	stp	xzr, xzr, [sp, #112]
   80394:	a90823eb 	stp	x11, x8, [sp, #128]
   80398:	94000fba 	bl	84280 <_ZN4core3fmt5write17hb5f6a3bd29bb9808E>
   8039c:	f94023e0 	ldr	x0, [sp, #64]
   803a0:	b0000021 	adrp	x1, 85000 <memcpy+0x14>
   803a4:	52800393 	mov	w19, #0x1c                  	// #28
   803a8:	91114021 	add	x1, x1, #0x450
   803ac:	52800322 	mov	w2, #0x19                  	// #25
   803b0:	72a00413 	movk	w19, #0x20, lsl #16
   803b4:	94000408 	bl	813d4 <_ZN8graph_os8platform6raspi34uart14UARTController5write17h14e13fbd0204fec3E.llvm.16487754560651466094>
   803b8:	9100e3e0 	add	x0, sp, #0x38
   803bc:	940003e0 	bl	8133c <_ZN8graph_os8platform6raspi34uart14UARTController7newline17h3bac0dbadd4d9f97E>
   803c0:	f94017e8 	ldr	x8, [sp, #40]
   803c4:	d100626a 	sub	x10, x19, #0x18
   803c8:	f9400509 	ldr	x9, [x8, #8]
   803cc:	eb0a013f 	cmp	x9, x10
   803d0:	540039e3 	b.cc	80b0c <main+0xa9c>  // b.lo, b.ul, b.last
   803d4:	f9400109 	ldr	x9, [x8]
   803d8:	8b09026a 	add	x10, x19, x9
   803dc:	b85e814b 	ldur	w11, [x10, #-24]
   803e0:	12a1bc09 	mov	w9, #0xf21fffff            	// #-232783873
   803e4:	0a09016b 	and	w11, w11, w9
   803e8:	320b016b 	orr	w11, w11, #0x200000
   803ec:	b81e814b 	stur	w11, [x10, #-24]
   803f0:	f940050b 	ldr	x11, [x8, #8]
   803f4:	d100526a 	sub	x10, x19, #0x14
   803f8:	eb0a017f 	cmp	x11, x10
   803fc:	54003883 	b.cc	80b0c <main+0xa9c>  // b.lo, b.ul, b.last
   80400:	f940010b 	ldr	x11, [x8]
   80404:	b86a696c 	ldr	w12, [x11, x10]
   80408:	0a090189 	and	w9, w12, w9
   8040c:	320b0129 	orr	w9, w9, #0x200000
   80410:	b82a6969 	str	w9, [x11, x10]
   80414:	f9400509 	ldr	x9, [x8, #8]
   80418:	eb0a013f 	cmp	x9, x10
   8041c:	54003783 	b.cc	80b0c <main+0xa9c>  // b.lo, b.ul, b.last
   80420:	f9400108 	ldr	x8, [x8]
   80424:	1283780a 	mov	w10, #0xffffe43f            	// #-7105
   80428:	8b080268 	add	x8, x19, x8
   8042c:	b85ec109 	ldur	w9, [x8, #-20]
   80430:	0a0a0129 	and	w9, w9, w10
   80434:	321a0129 	orr	w9, w9, #0x40
   80438:	b81ec109 	stur	w9, [x8, #-20]
   8043c:	f94027e8 	ldr	x8, [sp, #72]
   80440:	394143e9 	ldrb	w9, [sp, #80]
   80444:	91000508 	add	x8, x8, #0x1
   80448:	7100053f 	cmp	w9, #0x1
   8044c:	f90027e8 	str	x8, [sp, #72]
   80450:	54000321 	b.ne	804b4 <main+0x444>  // b.any
   80454:	f9009fe8 	str	x8, [sp, #312]
   80458:	d5384249 	mrs	x9, currentel
   8045c:	d3420d29 	ubfx	x9, x9, #2, #2
   80460:	f90057e9 	str	x9, [sp, #168]
   80464:	d53800a9 	mrs	x9, mpidr_el1
   80468:	5280008c 	mov	w12, #0x4                   	// #4
   8046c:	92401d29 	and	x9, x9, #0xff
   80470:	b0000021 	adrp	x1, 85000 <memcpy+0x14>
   80474:	9104e3e8 	add	x8, sp, #0x138
   80478:	9102a3ea 	add	x10, sp, #0xa8
   8047c:	910403eb 	add	x11, sp, #0x100
   80480:	a90633f5 	stp	x21, x12, [sp, #96]
   80484:	910303ec 	add	x12, sp, #0xc0
   80488:	f90083e9 	str	x9, [sp, #256]
   8048c:	52800069 	mov	w9, #0x3                   	// #3
   80490:	91194021 	add	x1, x1, #0x650
   80494:	9100e3e0 	add	x0, sp, #0x38
   80498:	910183e2 	add	x2, sp, #0x60
   8049c:	a90c5be8 	stp	x8, x22, [sp, #192]
   804a0:	a90d53ea 	stp	x10, x20, [sp, #208]
   804a4:	a90e53eb 	stp	x11, x20, [sp, #224]
   804a8:	a9077fff 	stp	xzr, xzr, [sp, #112]
   804ac:	a90827ec 	stp	x12, x9, [sp, #128]
   804b0:	94000f74 	bl	84280 <_ZN4core3fmt5write17hb5f6a3bd29bb9808E>
   804b4:	f94023e0 	ldr	x0, [sp, #64]
   804b8:	b0000021 	adrp	x1, 85000 <memcpy+0x14>
   804bc:	9111a421 	add	x1, x1, #0x469
   804c0:	52800302 	mov	w2, #0x18                  	// #24
   804c4:	940003c4 	bl	813d4 <_ZN8graph_os8platform6raspi34uart14UARTController5write17h14e13fbd0204fec3E.llvm.16487754560651466094>
   804c8:	9100e3e0 	add	x0, sp, #0x38
   804cc:	9400039c 	bl	8133c <_ZN8graph_os8platform6raspi34uart14UARTController7newline17h3bac0dbadd4d9f97E>
   804d0:	9100e3e0 	add	x0, sp, #0x38
   804d4:	9400039a 	bl	8133c <_ZN8graph_os8platform6raspi34uart14UARTController7newline17h3bac0dbadd4d9f97E>
   804d8:	f94017e8 	ldr	x8, [sp, #40]
   804dc:	f9400509 	ldr	x9, [x8, #8]
   804e0:	eb13013f 	cmp	x9, x19
   804e4:	54003143 	b.cc	80b0c <main+0xa9c>  // b.lo, b.ul, b.last
   804e8:	f9400108 	ldr	x8, [x8]
   804ec:	b8736909 	ldr	w9, [x8, x19]
   804f0:	32050129 	orr	w9, w9, #0x8000000
   804f4:	b8336909 	str	w9, [x8, x19]
   804f8:	f9400fe8 	ldr	x8, [sp, #24]
   804fc:	d342fd09 	lsr	x9, x8, #2
   80500:	f130013f 	cmp	x9, #0xc00
   80504:	54003049 	b.ls	80b0c <main+0xa9c>  // b.plast
   80508:	f9400be9 	ldr	x9, [sp, #16]
   8050c:	d343fd08 	lsr	x8, x8, #3
   80510:	f118011f 	cmp	x8, #0x600
   80514:	b970052a 	ldr	w10, [x9, #12292]
   80518:	54002fa9 	b.ls	80b0c <main+0xa9c>  // b.plast
   8051c:	b970092b 	ldr	w11, [x9, #12296]
   80520:	5290d408 	mov	w8, #0x86a0                	// #34464
   80524:	72a00028 	movk	w8, #0x1, lsl #16
   80528:	b3607d6a 	bfi	x10, x11, #32, #32
   8052c:	8b08014a 	add	x10, x10, x8
   80530:	b970052b 	ldr	w11, [x9, #12292]
   80534:	b970092c 	ldr	w12, [x9, #12296]
   80538:	b3607d8b 	bfi	x11, x12, #32, #32
   8053c:	eb0a017f 	cmp	x11, x10
   80540:	54ffff83 	b.cc	80530 <main+0x4c0>  // b.lo, b.ul, b.last
   80544:	f94017e9 	ldr	x9, [sp, #40]
   80548:	9100326b 	add	x11, x19, #0xc
   8054c:	f940052a 	ldr	x10, [x9, #8]
   80550:	eb0b015f 	cmp	x10, x11
   80554:	54002dc3 	b.cc	80b0c <main+0xa9c>  // b.lo, b.ul, b.last
   80558:	f9400129 	ldr	x9, [x9]
   8055c:	8b090269 	add	x9, x19, x9
   80560:	b9400d2a 	ldr	w10, [x9, #12]
   80564:	3205014a 	orr	w10, w10, #0x8000000
   80568:	b9000d2a 	str	w10, [x9, #12]
   8056c:	f94017e9 	ldr	x9, [sp, #40]
   80570:	f940052a 	ldr	x10, [x9, #8]
   80574:	eb13015f 	cmp	x10, x19
   80578:	54002ca3 	b.cc	80b0c <main+0xa9c>  // b.lo, b.ul, b.last
   8057c:	f9400129 	ldr	x9, [x9]
   80580:	b873692a 	ldr	w10, [x9, x19]
   80584:	320a014a 	orr	w10, w10, #0x400000
   80588:	b833692a 	str	w10, [x9, x19]
   8058c:	f9400feb 	ldr	x11, [sp, #24]
   80590:	d342fd69 	lsr	x9, x11, #2
   80594:	f130013f 	cmp	x9, #0xc00
   80598:	54002ba9 	b.ls	80b0c <main+0xa9c>  // b.plast
   8059c:	f9400be9 	ldr	x9, [sp, #16]
   805a0:	d343fd6b 	lsr	x11, x11, #3
   805a4:	f118017f 	cmp	x11, #0x600
   805a8:	b970052a 	ldr	w10, [x9, #12292]
   805ac:	54002b09 	b.ls	80b0c <main+0xa9c>  // b.plast
   805b0:	b970092b 	ldr	w11, [x9, #12296]
   805b4:	8b08014a 	add	x10, x10, x8
   805b8:	8b0b814a 	add	x10, x10, x11, lsl #32
   805bc:	b970052b 	ldr	w11, [x9, #12292]
   805c0:	b970092c 	ldr	w12, [x9, #12296]
   805c4:	b3607d8b 	bfi	x11, x12, #32, #32
   805c8:	eb0a017f 	cmp	x11, x10
   805cc:	54ffff83 	b.cc	805bc <main+0x54c>  // b.lo, b.ul, b.last
   805d0:	f94017e9 	ldr	x9, [sp, #40]
   805d4:	9100326b 	add	x11, x19, #0xc
   805d8:	f940052a 	ldr	x10, [x9, #8]
   805dc:	eb0b015f 	cmp	x10, x11
   805e0:	54002963 	b.cc	80b0c <main+0xa9c>  // b.lo, b.ul, b.last
   805e4:	f9400129 	ldr	x9, [x9]
   805e8:	8b090269 	add	x9, x19, x9
   805ec:	b9400d2a 	ldr	w10, [x9, #12]
   805f0:	320a014a 	orr	w10, w10, #0x400000
   805f4:	b9000d2a 	str	w10, [x9, #12]
   805f8:	f94017e9 	ldr	x9, [sp, #40]
   805fc:	f940052a 	ldr	x10, [x9, #8]
   80600:	eb13015f 	cmp	x10, x19
   80604:	54002843 	b.cc	80b0c <main+0xa9c>  // b.lo, b.ul, b.last
   80608:	f9400129 	ldr	x9, [x9]
   8060c:	b873692a 	ldr	w10, [x9, x19]
   80610:	320f014a 	orr	w10, w10, #0x20000
   80614:	b833692a 	str	w10, [x9, x19]
   80618:	f9400feb 	ldr	x11, [sp, #24]
   8061c:	d342fd69 	lsr	x9, x11, #2
   80620:	f130013f 	cmp	x9, #0xc00
   80624:	54002749 	b.ls	80b0c <main+0xa9c>  // b.plast
   80628:	f9400be9 	ldr	x9, [sp, #16]
   8062c:	d343fd6b 	lsr	x11, x11, #3
   80630:	f118017f 	cmp	x11, #0x600
   80634:	b970052a 	ldr	w10, [x9, #12292]
   80638:	540026a9 	b.ls	80b0c <main+0xa9c>  // b.plast
   8063c:	b970092b 	ldr	w11, [x9, #12296]
   80640:	8b080148 	add	x8, x10, x8
   80644:	8b0b8108 	add	x8, x8, x11, lsl #32
   80648:	b970052a 	ldr	w10, [x9, #12292]
   8064c:	b970092b 	ldr	w11, [x9, #12296]
   80650:	b3607d6a 	bfi	x10, x11, #32, #32
   80654:	eb08015f 	cmp	x10, x8
   80658:	54ffff83 	b.cc	80648 <main+0x5d8>  // b.lo, b.ul, b.last
   8065c:	f94017e8 	ldr	x8, [sp, #40]
   80660:	9100326a 	add	x10, x19, #0xc
   80664:	f9400509 	ldr	x9, [x8, #8]
   80668:	eb0a013f 	cmp	x9, x10
   8066c:	54002503 	b.cc	80b0c <main+0xa9c>  // b.lo, b.ul, b.last
   80670:	f9400108 	ldr	x8, [x8]
   80674:	8b080268 	add	x8, x19, x8
   80678:	b9400d09 	ldr	w9, [x8, #12]
   8067c:	320f0129 	orr	w9, w9, #0x20000
   80680:	b9000d09 	str	w9, [x8, #12]
   80684:	f94027e8 	ldr	x8, [sp, #72]
   80688:	394143e9 	ldrb	w9, [sp, #80]
   8068c:	91000508 	add	x8, x8, #0x1
   80690:	7100053f 	cmp	w9, #0x1
   80694:	f90027e8 	str	x8, [sp, #72]
   80698:	54000321 	b.ne	806fc <main+0x68c>  // b.any
   8069c:	f9009fe8 	str	x8, [sp, #312]
   806a0:	d5384249 	mrs	x9, currentel
   806a4:	d3420d29 	ubfx	x9, x9, #2, #2
   806a8:	f90057e9 	str	x9, [sp, #168]
   806ac:	d53800a9 	mrs	x9, mpidr_el1
   806b0:	5280008c 	mov	w12, #0x4                   	// #4
   806b4:	92401d29 	and	x9, x9, #0xff
   806b8:	b0000021 	adrp	x1, 85000 <memcpy+0x14>
   806bc:	9104e3e8 	add	x8, sp, #0x138
   806c0:	9102a3ea 	add	x10, sp, #0xa8
   806c4:	910403eb 	add	x11, sp, #0x100
   806c8:	a90633f5 	stp	x21, x12, [sp, #96]
   806cc:	910303ec 	add	x12, sp, #0xc0
   806d0:	f90083e9 	str	x9, [sp, #256]
   806d4:	52800069 	mov	w9, #0x3                   	// #3
   806d8:	91194021 	add	x1, x1, #0x650
   806dc:	9100e3e0 	add	x0, sp, #0x38
   806e0:	910183e2 	add	x2, sp, #0x60
   806e4:	a90c5be8 	stp	x8, x22, [sp, #192]
   806e8:	a90d53ea 	stp	x10, x20, [sp, #208]
   806ec:	a90e53eb 	stp	x11, x20, [sp, #224]
   806f0:	a9077fff 	stp	xzr, xzr, [sp, #112]
   806f4:	a90827ec 	stp	x12, x9, [sp, #128]
   806f8:	94000ee2 	bl	84280 <_ZN4core3fmt5write17hb5f6a3bd29bb9808E>
   806fc:	f94023e0 	ldr	x0, [sp, #64]
   80700:	b0000021 	adrp	x1, 85000 <memcpy+0x14>
   80704:	910d4021 	add	x1, x1, #0x350
   80708:	52800202 	mov	w2, #0x10                  	// #16
   8070c:	94000332 	bl	813d4 <_ZN8graph_os8platform6raspi34uart14UARTController5write17h14e13fbd0204fec3E.llvm.16487754560651466094>
   80710:	9100e3e0 	add	x0, sp, #0x38
   80714:	9400030a 	bl	8133c <_ZN8graph_os8platform6raspi34uart14UARTController7newline17h3bac0dbadd4d9f97E>
   80718:	d0000033 	adrp	x19, 86000 <anon.57ef2e3c02ffeaf529e6c598bd0b036c.20.llvm.5445877691761700591+0x1c>
   8071c:	9120c273 	add	x19, x19, #0x830
   80720:	9100c3e0 	add	x0, sp, #0x30
   80724:	52800102 	mov	w2, #0x8                   	// #8
   80728:	2a1303e1 	mov	w1, w19
   8072c:	9100c3f7 	add	x23, sp, #0x30
   80730:	940001d7 	bl	80e8c <_ZN8graph_os8platform6raspi37mailbox17MailboxController4call17h9f8a6ea04da63d2fE>
   80734:	2942a269 	ldp	w9, w8, [x19, #20]
   80738:	2947aa6b 	ldp	w11, w10, [x19, #60]
   8073c:	b940726f 	ldr	w15, [x19, #112]
   80740:	fd401660 	ldr	d0, [x19, #40]
   80744:	b3607d09 	bfi	x9, x8, #32, #32
   80748:	f94027e8 	ldr	x8, [sp, #72]
   8074c:	b3607d4b 	bfi	x11, x10, #32, #32
   80750:	394143ea 	ldrb	w10, [sp, #80]
   80754:	b940526c 	ldr	w12, [x19, #80]
   80758:	b940626d 	ldr	w13, [x19, #96]
   8075c:	b940866e 	ldr	w14, [x19, #132]
   80760:	910043f0 	add	x16, sp, #0x10
   80764:	a9065ff0 	stp	x16, x23, [sp, #96]
   80768:	52948010 	mov	w16, #0xa400                	// #41984
   8076c:	72a003f0 	movk	w16, #0x1f, lsl #16
   80770:	924075ef 	and	x15, x15, #0x3fffffff
   80774:	91000508 	add	x8, x8, #0x1
   80778:	7100055f 	cmp	w10, #0x1
   8077c:	fd0047e0 	str	d0, [sp, #136]
   80780:	291337ec 	stp	w12, w13, [sp, #152]
   80784:	b900a3ee 	str	w14, [sp, #160]
   80788:	a90743ef 	stp	x15, x16, [sp, #112]
   8078c:	f90043e9 	str	x9, [sp, #128]
   80790:	f9004beb 	str	x11, [sp, #144]
   80794:	f90027e8 	str	x8, [sp, #72]
   80798:	54000321 	b.ne	807fc <main+0x78c>  // b.any
   8079c:	f9007fe8 	str	x8, [sp, #248]
   807a0:	d5384249 	mrs	x9, currentel
   807a4:	d3420d29 	ubfx	x9, x9, #2, #2
   807a8:	f9009fe9 	str	x9, [sp, #312]
   807ac:	d53800a9 	mrs	x9, mpidr_el1
   807b0:	5280008c 	mov	w12, #0x4                   	// #4
   807b4:	92401d29 	and	x9, x9, #0xff
   807b8:	b0000021 	adrp	x1, 85000 <memcpy+0x14>
   807bc:	9103e3e8 	add	x8, sp, #0xf8
   807c0:	9104e3ea 	add	x10, sp, #0x138
   807c4:	9102a3eb 	add	x11, sp, #0xa8
   807c8:	a91033f5 	stp	x21, x12, [sp, #256]
   807cc:	910303ec 	add	x12, sp, #0xc0
   807d0:	f90057e9 	str	x9, [sp, #168]
   807d4:	52800069 	mov	w9, #0x3                   	// #3
   807d8:	91194021 	add	x1, x1, #0x650
   807dc:	9100e3e0 	add	x0, sp, #0x38
   807e0:	910403e2 	add	x2, sp, #0x100
   807e4:	a90c5be8 	stp	x8, x22, [sp, #192]
   807e8:	a90d53ea 	stp	x10, x20, [sp, #208]
   807ec:	a90e53eb 	stp	x11, x20, [sp, #224]
   807f0:	a9117fff 	stp	xzr, xzr, [sp, #272]
   807f4:	a91227ec 	stp	x12, x9, [sp, #288]
   807f8:	94000ea2 	bl	84280 <_ZN4core3fmt5write17hb5f6a3bd29bb9808E>
   807fc:	f94023e0 	ldr	x0, [sp, #64]
   80800:	b0000021 	adrp	x1, 85000 <memcpy+0x14>
   80804:	91120421 	add	x1, x1, #0x481
   80808:	52800382 	mov	w2, #0x1c                  	// #28
   8080c:	940002f2 	bl	813d4 <_ZN8graph_os8platform6raspi34uart14UARTController5write17h14e13fbd0204fec3E.llvm.16487754560651466094>
   80810:	9100e3e0 	add	x0, sp, #0x38
   80814:	940002ca 	bl	8133c <_ZN8graph_os8platform6raspi34uart14UARTController7newline17h3bac0dbadd4d9f97E>
   80818:	f94027eb 	ldr	x11, [sp, #72]
   8081c:	394143ec 	ldrb	w12, [sp, #80]
   80820:	910183e8 	add	x8, sp, #0x60
   80824:	9000000a 	adrp	x10, 80000 <_start>
   80828:	91008108 	add	x8, x8, #0x20
   8082c:	9102e3e9 	add	x9, sp, #0xb8
   80830:	9133914a 	add	x10, x10, #0xce4
   80834:	f9005fe8 	str	x8, [sp, #184]
   80838:	91000568 	add	x8, x11, #0x1
   8083c:	7100059f 	cmp	w12, #0x1
   80840:	a90aabe9 	stp	x9, x10, [sp, #168]
   80844:	f90027e8 	str	x8, [sp, #72]
   80848:	54000361 	b.ne	808b4 <main+0x844>  // b.any
   8084c:	f9007be8 	str	x8, [sp, #240]
   80850:	d538424a 	mrs	x10, currentel
   80854:	d3420d4a 	ubfx	x10, x10, #2, #2
   80858:	f9007fea 	str	x10, [sp, #248]
   8085c:	d53800aa 	mrs	x10, mpidr_el1
   80860:	5280008c 	mov	w12, #0x4                   	// #4
   80864:	92401d4a 	and	x10, x10, #0xff
   80868:	b0000021 	adrp	x1, 85000 <memcpy+0x14>
   8086c:	9103c3e8 	add	x8, sp, #0xf0
   80870:	9103e3e9 	add	x9, sp, #0xf8
   80874:	9104e3eb 	add	x11, sp, #0x138
   80878:	a91033f5 	stp	x21, x12, [sp, #256]
   8087c:	910303ec 	add	x12, sp, #0xc0
   80880:	f9009fea 	str	x10, [sp, #312]
   80884:	5280006a 	mov	w10, #0x3                   	// #3
   80888:	91194021 	add	x1, x1, #0x650
   8088c:	9100e3e0 	add	x0, sp, #0x38
   80890:	910403e2 	add	x2, sp, #0x100
   80894:	9100e3f3 	add	x19, sp, #0x38
   80898:	a90c5be8 	stp	x8, x22, [sp, #192]
   8089c:	a90d53e9 	stp	x9, x20, [sp, #208]
   808a0:	a90e53eb 	stp	x11, x20, [sp, #224]
   808a4:	a9117fff 	stp	xzr, xzr, [sp, #272]
   808a8:	a9122bec 	stp	x12, x10, [sp, #288]
   808ac:	94000e75 	bl	84280 <_ZN4core3fmt5write17hb5f6a3bd29bb9808E>
   808b0:	14000002 	b	808b8 <main+0x848>
   808b4:	9100e3f3 	add	x19, sp, #0x38
   808b8:	b0000028 	adrp	x8, 85000 <memcpy+0x14>
   808bc:	b0000021 	adrp	x1, 85000 <memcpy+0x14>
   808c0:	91128108 	add	x8, x8, #0x4a0
   808c4:	52800029 	mov	w9, #0x1                   	// #1
   808c8:	9102a3ea 	add	x10, sp, #0xa8
   808cc:	91194021 	add	x1, x1, #0x650
   808d0:	910403e2 	add	x2, sp, #0x100
   808d4:	aa1303e0 	mov	x0, x19
   808d8:	a9117fff 	stp	xzr, xzr, [sp, #272]
   808dc:	a91027e8 	stp	x8, x9, [sp, #256]
   808e0:	a91227ea 	stp	x10, x9, [sp, #288]
   808e4:	94000e67 	bl	84280 <_ZN4core3fmt5write17hb5f6a3bd29bb9808E>
   808e8:	9100e3e0 	add	x0, sp, #0x38
   808ec:	94000294 	bl	8133c <_ZN8graph_os8platform6raspi34uart14UARTController7newline17h3bac0dbadd4d9f97E>
   808f0:	9100e3e0 	add	x0, sp, #0x38
   808f4:	94000292 	bl	8133c <_ZN8graph_os8platform6raspi34uart14UARTController7newline17h3bac0dbadd4d9f97E>
   808f8:	b9408be9 	ldr	w9, [sp, #136]
   808fc:	f9403fe1 	ldr	x1, [sp, #120]
   80900:	aa1f03e8 	mov	x8, xzr
   80904:	aa1f03ea 	mov	x10, xzr
   80908:	f9403bee 	ldr	x14, [sp, #112]
   8090c:	aa1f03eb 	mov	x11, xzr
   80910:	aa1f03ec 	mov	x12, xzr
   80914:	92401d4d 	and	x13, x10, #0xff
   80918:	8b0809ce 	add	x14, x14, x8, lsl #2
   8091c:	8b0c0100 	add	x0, x8, x12
   80920:	eb01001f 	cmp	x0, x1
   80924:	54000ec2 	b.cs	80afc <main+0xa8c>  // b.hs, b.nlast
   80928:	12101d6f 	and	w15, w11, #0xff0000
   8092c:	2a0d01ef 	orr	w15, w15, w13
   80930:	b82c79cf 	str	w15, [x14, x12, lsl #2]
   80934:	9100058c 	add	x12, x12, #0x1
   80938:	f11e019f 	cmp	x12, #0x780
   8093c:	9140416b 	add	x11, x11, #0x10, lsl #12
   80940:	54fffee1 	b.ne	8091c <main+0x8ac>  // b.any
   80944:	9100054a 	add	x10, x10, #0x1
   80948:	f110e15f 	cmp	x10, #0x438
   8094c:	8b090108 	add	x8, x8, x9
   80950:	54fffdc1 	b.ne	80908 <main+0x898>  // b.any
   80954:	f94027e8 	ldr	x8, [sp, #72]
   80958:	394143e9 	ldrb	w9, [sp, #80]
   8095c:	91000508 	add	x8, x8, #0x1
   80960:	7100053f 	cmp	w9, #0x1
   80964:	f90027e8 	str	x8, [sp, #72]
   80968:	54000321 	b.ne	809cc <main+0x95c>  // b.any
   8096c:	f9007fe8 	str	x8, [sp, #248]
   80970:	d5384249 	mrs	x9, currentel
   80974:	d3420d29 	ubfx	x9, x9, #2, #2
   80978:	f9009fe9 	str	x9, [sp, #312]
   8097c:	d53800a9 	mrs	x9, mpidr_el1
   80980:	5280008c 	mov	w12, #0x4                   	// #4
   80984:	92401d29 	and	x9, x9, #0xff
   80988:	b0000021 	adrp	x1, 85000 <memcpy+0x14>
   8098c:	9103e3e8 	add	x8, sp, #0xf8
   80990:	9104e3ea 	add	x10, sp, #0x138
   80994:	9102a3eb 	add	x11, sp, #0xa8
   80998:	a91033f5 	stp	x21, x12, [sp, #256]
   8099c:	910303ec 	add	x12, sp, #0xc0
   809a0:	f90057e9 	str	x9, [sp, #168]
   809a4:	52800069 	mov	w9, #0x3                   	// #3
   809a8:	91194021 	add	x1, x1, #0x650
   809ac:	9100e3e0 	add	x0, sp, #0x38
   809b0:	910403e2 	add	x2, sp, #0x100
   809b4:	a90c5be8 	stp	x8, x22, [sp, #192]
   809b8:	a90d53ea 	stp	x10, x20, [sp, #208]
   809bc:	a90e53eb 	stp	x11, x20, [sp, #224]
   809c0:	a9117fff 	stp	xzr, xzr, [sp, #272]
   809c4:	a91227ec 	stp	x12, x9, [sp, #288]
   809c8:	94000e2e 	bl	84280 <_ZN4core3fmt5write17hb5f6a3bd29bb9808E>
   809cc:	f94023e0 	ldr	x0, [sp, #64]
   809d0:	b0000021 	adrp	x1, 85000 <memcpy+0x14>
   809d4:	9112c021 	add	x1, x1, #0x4b0
   809d8:	52800262 	mov	w2, #0x13                  	// #19
   809dc:	9400027e 	bl	813d4 <_ZN8graph_os8platform6raspi34uart14UARTController5write17h14e13fbd0204fec3E.llvm.16487754560651466094>
   809e0:	9100e3e0 	add	x0, sp, #0x38
   809e4:	94000256 	bl	8133c <_ZN8graph_os8platform6raspi34uart14UARTController7newline17h3bac0dbadd4d9f97E>
   809e8:	f94027e8 	ldr	x8, [sp, #72]
   809ec:	394143e9 	ldrb	w9, [sp, #80]
   809f0:	91000508 	add	x8, x8, #0x1
   809f4:	7100053f 	cmp	w9, #0x1
   809f8:	f90027e8 	str	x8, [sp, #72]
   809fc:	54000321 	b.ne	80a60 <main+0x9f0>  // b.any
   80a00:	f9007fe8 	str	x8, [sp, #248]
   80a04:	d5384249 	mrs	x9, currentel
   80a08:	d3420d29 	ubfx	x9, x9, #2, #2
   80a0c:	f9009fe9 	str	x9, [sp, #312]
   80a10:	9103e3e8 	add	x8, sp, #0xf8
   80a14:	9104e3ea 	add	x10, sp, #0x138
   80a18:	d53800a9 	mrs	x9, mpidr_el1
   80a1c:	b0000021 	adrp	x1, 85000 <memcpy+0x14>
   80a20:	9102a3eb 	add	x11, sp, #0xa8
   80a24:	5280008c 	mov	w12, #0x4                   	// #4
   80a28:	a90c5be8 	stp	x8, x22, [sp, #192]
   80a2c:	910303e8 	add	x8, sp, #0xc0
   80a30:	a90d53ea 	stp	x10, x20, [sp, #208]
   80a34:	5280006a 	mov	w10, #0x3                   	// #3
   80a38:	92401d29 	and	x9, x9, #0xff
   80a3c:	91194021 	add	x1, x1, #0x650
   80a40:	9100e3e0 	add	x0, sp, #0x38
   80a44:	910403e2 	add	x2, sp, #0x100
   80a48:	a90e53eb 	stp	x11, x20, [sp, #224]
   80a4c:	a91033f5 	stp	x21, x12, [sp, #256]
   80a50:	a9117fff 	stp	xzr, xzr, [sp, #272]
   80a54:	f90057e9 	str	x9, [sp, #168]
   80a58:	a9122be8 	stp	x8, x10, [sp, #288]
   80a5c:	94000e09 	bl	84280 <_ZN4core3fmt5write17hb5f6a3bd29bb9808E>
   80a60:	f94023e0 	ldr	x0, [sp, #64]
   80a64:	b0000021 	adrp	x1, 85000 <memcpy+0x14>
   80a68:	91130c21 	add	x1, x1, #0x4c3
   80a6c:	52800242 	mov	w2, #0x12                  	// #18
   80a70:	94000259 	bl	813d4 <_ZN8graph_os8platform6raspi34uart14UARTController5write17h14e13fbd0204fec3E.llvm.16487754560651466094>
   80a74:	9100e3e0 	add	x0, sp, #0x38
   80a78:	94000231 	bl	8133c <_ZN8graph_os8platform6raspi34uart14UARTController7newline17h3bac0dbadd4d9f97E>
   80a7c:	9100e3e0 	add	x0, sp, #0x38
   80a80:	9400022f 	bl	8133c <_ZN8graph_os8platform6raspi34uart14UARTController7newline17h3bac0dbadd4d9f97E>
   80a84:	d5384248 	mrs	x8, currentel
   80a88:	927e0508 	and	x8, x8, #0xc
   80a8c:	f100211f 	cmp	x8, #0x8
   80a90:	540002a1 	b.ne	80ae4 <main+0xa74>  // b.any
   80a94:	d53ce109 	mrs	x9, cnthctl_el2
   80a98:	b2400529 	orr	x9, x9, #0x3
   80a9c:	d51ce109 	msr	cnthctl_el2, x9
   80aa0:	2a1f03e8 	mov	w8, wzr
   80aa4:	d51ce068 	msr	cntvoff_el2, x8
   80aa8:	d53c1148 	mrs	x8, cptr_el2
   80aac:	b26c0508 	orr	x8, x8, #0x300000
   80ab0:	d51c1148 	msr	cptr_el2, x8
   80ab4:	d5381048 	mrs	x8, cpacr_el1
   80ab8:	b26c0508 	orr	x8, x8, #0x300000
   80abc:	d5181048 	msr	cpacr_el1, x8
   80ac0:	52800048 	mov	w8, #0x2                   	// #2
   80ac4:	72b00008 	movk	w8, #0x8000, lsl #16
   80ac8:	d51c1108 	msr	hcr_el2, x8
   80acc:	52807888 	mov	w8, #0x3c4                 	// #964
   80ad0:	d51c4008 	msr	spsr_el2, x8
   80ad4:	90000008 	adrp	x8, 80000 <_start>
   80ad8:	912d1108 	add	x8, x8, #0xb44
   80adc:	d51c4028 	msr	elr_el2, x8
   80ae0:	d69f03e0 	eret
   80ae4:	a9564ff4 	ldp	x20, x19, [sp, #352]
   80ae8:	a95557f6 	ldp	x22, x21, [sp, #336]
   80aec:	a9545ffe 	ldp	x30, x23, [sp, #320]
   80af0:	f9409bfd 	ldr	x29, [sp, #304]
   80af4:	9105c3ff 	add	sp, sp, #0x170
   80af8:	d65f03c0 	ret
   80afc:	b0000022 	adrp	x2, 85000 <memcpy+0x14>
   80b00:	9113c042 	add	x2, x2, #0x4f0
   80b04:	94000a22 	bl	8338c <_ZN4core9panicking18panic_bounds_check17h9ccd95bf49c400c4E>
   80b08:	d4200020 	brk	#0x1
   80b0c:	b0000020 	adrp	x0, 85000 <memcpy+0x14>
   80b10:	b0000022 	adrp	x2, 85000 <memcpy+0x14>
   80b14:	91178000 	add	x0, x0, #0x5e0
   80b18:	91182042 	add	x2, x2, #0x608
   80b1c:	528004a1 	mov	w1, #0x25                  	// #37
   80b20:	94000a0e 	bl	83358 <_ZN4core9panicking5panic17h44d2e7d60b187585E>
   80b24:	d4200020 	brk	#0x1
   80b28:	b0000020 	adrp	x0, 85000 <memcpy+0x14>
   80b2c:	b0000022 	adrp	x2, 85000 <memcpy+0x14>
   80b30:	911b8400 	add	x0, x0, #0x6e1
   80b34:	911c4042 	add	x2, x2, #0x710
   80b38:	52800581 	mov	w1, #0x2c                  	// #44
   80b3c:	94000a07 	bl	83358 <_ZN4core9panicking5panic17h44d2e7d60b187585E>
   80b40:	d4200020 	brk	#0x1

0000000000080b44 <init_el1>:
   80b44:	52800388 	mov	w8, #0x1c                  	// #28
   80b48:	72a7e408 	movk	w8, #0x3f20, lsl #16
   80b4c:	b85e8109 	ldur	w9, [x8, #-24]
   80b50:	12a1bc0a 	mov	w10, #0xf21fffff            	// #-232783873
   80b54:	0a0a0129 	and	w9, w9, w10
   80b58:	320b0129 	orr	w9, w9, #0x200000
   80b5c:	b81e8109 	stur	w9, [x8, #-24]
   80b60:	b85ec109 	ldur	w9, [x8, #-20]
   80b64:	0a0a0129 	and	w9, w9, w10
   80b68:	320b0129 	orr	w9, w9, #0x200000
   80b6c:	b81ec109 	stur	w9, [x8, #-20]
   80b70:	b85ec109 	ldur	w9, [x8, #-20]
   80b74:	1283780a 	mov	w10, #0xffffe43f            	// #-7105
   80b78:	0a0a0129 	and	w9, w9, w10
   80b7c:	321a0129 	orr	w9, w9, #0x40
   80b80:	b81ec109 	stur	w9, [x8, #-20]
   80b84:	b940010a 	ldr	w10, [x8]
   80b88:	52860089 	mov	w9, #0x3004                	// #12292
   80b8c:	72a7e009 	movk	w9, #0x3f00, lsl #16
   80b90:	3205014a 	orr	w10, w10, #0x8000000
   80b94:	b900010a 	str	w10, [x8]
   80b98:	b940012a 	ldr	w10, [x9]
   80b9c:	b940052b 	ldr	w11, [x9, #4]
   80ba0:	b3607d6a 	bfi	x10, x11, #32, #32
   80ba4:	52986a0b 	mov	w11, #0xc350                	// #50000
   80ba8:	8b0b014a 	add	x10, x10, x11
   80bac:	b940012b 	ldr	w11, [x9]
   80bb0:	b940052c 	ldr	w12, [x9, #4]
   80bb4:	b3607d8b 	bfi	x11, x12, #32, #32
   80bb8:	eb0a017f 	cmp	x11, x10
   80bbc:	54ffff83 	b.cc	80bac <init_el1+0x68>  // b.lo, b.ul, b.last
   80bc0:	b9400d0a 	ldr	w10, [x8, #12]
   80bc4:	3205014a 	orr	w10, w10, #0x8000000
   80bc8:	b9000d0a 	str	w10, [x8, #12]
   80bcc:	b940010a 	ldr	w10, [x8]
   80bd0:	320a014a 	orr	w10, w10, #0x400000
   80bd4:	b900010a 	str	w10, [x8]
   80bd8:	b940012a 	ldr	w10, [x9]
   80bdc:	b940052b 	ldr	w11, [x9, #4]
   80be0:	b3607d6a 	bfi	x10, x11, #32, #32
   80be4:	52986a0b 	mov	w11, #0xc350                	// #50000
   80be8:	8b0b014a 	add	x10, x10, x11
   80bec:	b940012b 	ldr	w11, [x9]
   80bf0:	b940052c 	ldr	w12, [x9, #4]
   80bf4:	b3607d8b 	bfi	x11, x12, #32, #32
   80bf8:	eb0a017f 	cmp	x11, x10
   80bfc:	54ffff83 	b.cc	80bec <init_el1+0xa8>  // b.lo, b.ul, b.last
   80c00:	b9400d0a 	ldr	w10, [x8, #12]
   80c04:	320a014a 	orr	w10, w10, #0x400000
   80c08:	b9000d0a 	str	w10, [x8, #12]
   80c0c:	b940010a 	ldr	w10, [x8]
   80c10:	320f014a 	orr	w10, w10, #0x20000
   80c14:	b900010a 	str	w10, [x8]
   80c18:	b940012a 	ldr	w10, [x9]
   80c1c:	b940052b 	ldr	w11, [x9, #4]
   80c20:	b3607d6a 	bfi	x10, x11, #32, #32
   80c24:	52986a0b 	mov	w11, #0xc350                	// #50000
   80c28:	8b0b014a 	add	x10, x10, x11
   80c2c:	b940012b 	ldr	w11, [x9]
   80c30:	b940052c 	ldr	w12, [x9, #4]
   80c34:	b3607d8b 	bfi	x11, x12, #32, #32
   80c38:	eb0a017f 	cmp	x11, x10
   80c3c:	54ffff83 	b.cc	80c2c <init_el1+0xe8>  // b.lo, b.ul, b.last
   80c40:	b9400d09 	ldr	w9, [x8, #12]
   80c44:	320f0129 	orr	w9, w9, #0x20000
   80c48:	b9000d09 	str	w9, [x8, #12]
   80c4c:	14000001 	b	80c50 <fun>

0000000000080c50 <fun>:
   80c50:	d10143ff 	sub	sp, sp, #0x50
   80c54:	b0000028 	adrp	x8, 85000 <memcpy+0x14>
   80c58:	3dc0d100 	ldr	q0, [x8, #832]
   80c5c:	910003e8 	mov	x8, sp
   80c60:	a9044ffe 	stp	x30, x19, [sp, #64]
   80c64:	528a0a93 	mov	w19, #0x5054                	// #20564
   80c68:	f9000fe8 	str	x8, [sp, #24]
   80c6c:	910083e8 	add	x8, sp, #0x20
   80c70:	910063e0 	add	x0, sp, #0x18
   80c74:	910003e1 	mov	x1, sp
   80c78:	72a00433 	movk	w19, #0x21, lsl #16
   80c7c:	3d8003e0 	str	q0, [sp]
   80c80:	94000147 	bl	8119c <_ZN8graph_os8platform6raspi34uart14UARTController4init17hc6243bd3960c6e87E>
   80c84:	f94017e8 	ldr	x8, [sp, #40]
   80c88:	f9400509 	ldr	x9, [x8, #8]
   80c8c:	eb13013f 	cmp	x9, x19
   80c90:	54000103 	b.cc	80cb0 <fun+0x60>  // b.lo, b.ul, b.last
   80c94:	f9400109 	ldr	x9, [x8]
   80c98:	b873692a 	ldr	w10, [x9, x19]
   80c9c:	3728018a 	tbnz	w10, #5, 80ccc <fun+0x7c>
   80ca0:	d503201f 	nop
   80ca4:	f9400509 	ldr	x9, [x8, #8]
   80ca8:	eb13013f 	cmp	x9, x19
   80cac:	54ffff42 	b.cs	80c94 <fun+0x44>  // b.hs, b.nlast
   80cb0:	b0000020 	adrp	x0, 85000 <memcpy+0x14>
   80cb4:	b0000022 	adrp	x2, 85000 <memcpy+0x14>
   80cb8:	91178000 	add	x0, x0, #0x5e0
   80cbc:	91182042 	add	x2, x2, #0x608
   80cc0:	528004a1 	mov	w1, #0x25                  	// #37
   80cc4:	940009a5 	bl	83358 <_ZN4core9panicking5panic17h44d2e7d60b187585E>
   80cc8:	d4200020 	brk	#0x1
   80ccc:	8b090268 	add	x8, x19, x9
   80cd0:	52800cc9 	mov	w9, #0x66                  	// #102
   80cd4:	b81ec109 	stur	w9, [x8, #-20]
   80cd8:	a9444ffe 	ldp	x30, x19, [sp, #64]
   80cdc:	910143ff 	add	sp, sp, #0x50
   80ce0:	d65f03c0 	ret

0000000000080ce4 <_ZN42_$LT$$RF$T$u20$as$u20$core..fmt..Debug$GT$3fmt17hc492306d84ce20a8E>:
   80ce4:	d101c3ff 	sub	sp, sp, #0x70
   80ce8:	a9064ff4 	stp	x20, x19, [sp, #96]
   80cec:	f9400013 	ldr	x19, [x0]
   80cf0:	aa0103e8 	mov	x8, x1
   80cf4:	b0000021 	adrp	x1, 85000 <memcpy+0x14>
   80cf8:	91142021 	add	x1, x1, #0x508
   80cfc:	52800102 	mov	w2, #0x8                   	// #8
   80d00:	aa0803e0 	mov	x0, x8
   80d04:	a9026ffe 	stp	x30, x27, [sp, #32]
   80d08:	a90367fa 	stp	x26, x25, [sp, #48]
   80d0c:	a9045ff8 	stp	x24, x23, [sp, #64]
   80d10:	a90557f6 	stp	x22, x21, [sp, #80]
   80d14:	91001279 	add	x25, x19, #0x4
   80d18:	9100227a 	add	x26, x19, #0x8
   80d1c:	9100327b 	add	x27, x19, #0xc
   80d20:	91004278 	add	x24, x19, #0x10
   80d24:	91005277 	add	x23, x19, #0x14
   80d28:	91006276 	add	x22, x19, #0x18
   80d2c:	91007275 	add	x21, x19, #0x1c
   80d30:	91008274 	add	x20, x19, #0x20
   80d34:	94000fd7 	bl	84c90 <_ZN4core3fmt9Formatter12debug_struct17ha099bc2c3542888fE>
   80d38:	f9000ff3 	str	x19, [sp, #24]
   80d3c:	b0000033 	adrp	x19, 85000 <memcpy+0x14>
   80d40:	a90007e0 	stp	x0, x1, [sp]
   80d44:	b0000021 	adrp	x1, 85000 <memcpy+0x14>
   80d48:	91148273 	add	x19, x19, #0x520
   80d4c:	91144021 	add	x1, x1, #0x510
   80d50:	910003e0 	mov	x0, sp
   80d54:	910063e3 	add	x3, sp, #0x18
   80d58:	52800122 	mov	w2, #0x9                   	// #9
   80d5c:	aa1303e4 	mov	x4, x19
   80d60:	94000862 	bl	82ee8 <_ZN4core3fmt8builders11DebugStruct5field17h9e0dae53a1c9bd69E>
   80d64:	b0000021 	adrp	x1, 85000 <memcpy+0x14>
   80d68:	91150021 	add	x1, x1, #0x540
   80d6c:	910003e0 	mov	x0, sp
   80d70:	910063e3 	add	x3, sp, #0x18
   80d74:	52800142 	mov	w2, #0xa                   	// #10
   80d78:	aa1303e4 	mov	x4, x19
   80d7c:	f9000ff9 	str	x25, [sp, #24]
   80d80:	9400085a 	bl	82ee8 <_ZN4core3fmt8builders11DebugStruct5field17h9e0dae53a1c9bd69E>
   80d84:	b0000021 	adrp	x1, 85000 <memcpy+0x14>
   80d88:	91152821 	add	x1, x1, #0x54a
   80d8c:	910003e0 	mov	x0, sp
   80d90:	910063e3 	add	x3, sp, #0x18
   80d94:	52800122 	mov	w2, #0x9                   	// #9
   80d98:	aa1303e4 	mov	x4, x19
   80d9c:	f9000ffa 	str	x26, [sp, #24]
   80da0:	94000852 	bl	82ee8 <_ZN4core3fmt8builders11DebugStruct5field17h9e0dae53a1c9bd69E>
   80da4:	b0000021 	adrp	x1, 85000 <memcpy+0x14>
   80da8:	91154c21 	add	x1, x1, #0x553
   80dac:	910003e0 	mov	x0, sp
   80db0:	910063e3 	add	x3, sp, #0x18
   80db4:	52800142 	mov	w2, #0xa                   	// #10
   80db8:	aa1303e4 	mov	x4, x19
   80dbc:	f9000ffb 	str	x27, [sp, #24]
   80dc0:	9400084a 	bl	82ee8 <_ZN4core3fmt8builders11DebugStruct5field17h9e0dae53a1c9bd69E>
   80dc4:	b0000021 	adrp	x1, 85000 <memcpy+0x14>
   80dc8:	91157421 	add	x1, x1, #0x55d
   80dcc:	910003e0 	mov	x0, sp
   80dd0:	910063e3 	add	x3, sp, #0x18
   80dd4:	52800122 	mov	w2, #0x9                   	// #9
   80dd8:	aa1303e4 	mov	x4, x19
   80ddc:	f9000ff8 	str	x24, [sp, #24]
   80de0:	94000842 	bl	82ee8 <_ZN4core3fmt8builders11DebugStruct5field17h9e0dae53a1c9bd69E>
   80de4:	b0000021 	adrp	x1, 85000 <memcpy+0x14>
   80de8:	91159821 	add	x1, x1, #0x566
   80dec:	910003e0 	mov	x0, sp
   80df0:	910063e3 	add	x3, sp, #0x18
   80df4:	52800142 	mov	w2, #0xa                   	// #10
   80df8:	aa1303e4 	mov	x4, x19
   80dfc:	f9000ff7 	str	x23, [sp, #24]
   80e00:	9400083a 	bl	82ee8 <_ZN4core3fmt8builders11DebugStruct5field17h9e0dae53a1c9bd69E>
   80e04:	b0000021 	adrp	x1, 85000 <memcpy+0x14>
   80e08:	9115c021 	add	x1, x1, #0x570
   80e0c:	910003e0 	mov	x0, sp
   80e10:	910063e3 	add	x3, sp, #0x18
   80e14:	528000a2 	mov	w2, #0x5                   	// #5
   80e18:	aa1303e4 	mov	x4, x19
   80e1c:	f9000ff6 	str	x22, [sp, #24]
   80e20:	94000832 	bl	82ee8 <_ZN4core3fmt8builders11DebugStruct5field17h9e0dae53a1c9bd69E>
   80e24:	b0000021 	adrp	x1, 85000 <memcpy+0x14>
   80e28:	9115d421 	add	x1, x1, #0x575
   80e2c:	910003e0 	mov	x0, sp
   80e30:	910063e3 	add	x3, sp, #0x18
   80e34:	52800122 	mov	w2, #0x9                   	// #9
   80e38:	aa1303e4 	mov	x4, x19
   80e3c:	f9000ff5 	str	x21, [sp, #24]
   80e40:	9400082a 	bl	82ee8 <_ZN4core3fmt8builders11DebugStruct5field17h9e0dae53a1c9bd69E>
   80e44:	b0000021 	adrp	x1, 85000 <memcpy+0x14>
   80e48:	9115f821 	add	x1, x1, #0x57e
   80e4c:	910003e0 	mov	x0, sp
   80e50:	910063e3 	add	x3, sp, #0x18
   80e54:	528000a2 	mov	w2, #0x5                   	// #5
   80e58:	aa1303e4 	mov	x4, x19
   80e5c:	f9000ff4 	str	x20, [sp, #24]
   80e60:	94000822 	bl	82ee8 <_ZN4core3fmt8builders11DebugStruct5field17h9e0dae53a1c9bd69E>
   80e64:	910003e0 	mov	x0, sp
   80e68:	94000892 	bl	830b0 <_ZN4core3fmt8builders11DebugStruct6finish17h3a651c6e351ea651E>
   80e6c:	a9464ff4 	ldp	x20, x19, [sp, #96]
   80e70:	a94557f6 	ldp	x22, x21, [sp, #80]
   80e74:	a9445ff8 	ldp	x24, x23, [sp, #64]
   80e78:	a94367fa 	ldp	x26, x25, [sp, #48]
   80e7c:	a9426ffe 	ldp	x30, x27, [sp, #32]
   80e80:	9101c3ff 	add	sp, sp, #0x70
   80e84:	d65f03c0 	ret

0000000000080e88 <_ZN4core3ptr28drop_in_place$LT$$RF$u32$GT$17hdcb01ce988628407E>:
   80e88:	d65f03c0 	ret

0000000000080e8c <_ZN8graph_os8platform6raspi37mailbox17MailboxController4call17h9f8a6ea04da63d2fE>:
   80e8c:	f9400008 	ldr	x8, [x0]
   80e90:	529712ea 	mov	w10, #0xb897                	// #47255
   80e94:	f9400509 	ldr	x9, [x8, #8]
   80e98:	eb0a013f 	cmp	x9, x10
   80e9c:	540004c9 	b.ls	80f34 <_ZN8graph_os8platform6raspi37mailbox17MailboxController4call17h9f8a6ea04da63d2fE+0xa8>  // b.plast
   80ea0:	f940010a 	ldr	x10, [x8]
   80ea4:	5297130b 	mov	w11, #0xb898                	// #47256
   80ea8:	b86b694b 	ldr	w11, [x10, x11]
   80eac:	36f8014b 	tbz	w11, #31, 80ed4 <_ZN8graph_os8platform6raspi37mailbox17MailboxController4call17h9f8a6ea04da63d2fE+0x48>
   80eb0:	529712eb 	mov	w11, #0xb897                	// #47255
   80eb4:	5297130c 	mov	w12, #0xb898                	// #47256
   80eb8:	d503201f 	nop
   80ebc:	f9400509 	ldr	x9, [x8, #8]
   80ec0:	eb0b013f 	cmp	x9, x11
   80ec4:	54000389 	b.ls	80f34 <_ZN8graph_os8platform6raspi37mailbox17MailboxController4call17h9f8a6ea04da63d2fE+0xa8>  // b.plast
   80ec8:	f940010a 	ldr	x10, [x8]
   80ecc:	b86c694d 	ldr	w13, [x10, x12]
   80ed0:	37ffff4d 	tbnz	w13, #31, 80eb8 <_ZN8graph_os8platform6raspi37mailbox17MailboxController4call17h9f8a6ea04da63d2fE+0x2c>
   80ed4:	d345fd29 	lsr	x9, x9, #5
   80ed8:	f117113f 	cmp	x9, #0x5c4
   80edc:	540003a9 	b.ls	80f50 <_ZN8graph_os8platform6raspi37mailbox17MailboxController4call17h9f8a6ea04da63d2fE+0xc4>  // b.plast
   80ee0:	12001c49 	and	w9, w2, #0xff
   80ee4:	2a01012b 	orr	w11, w9, w1
   80ee8:	5297140c 	mov	w12, #0xb8a0                	// #47264
   80eec:	b82c694b 	str	w11, [x10, x12]
   80ef0:	f940050b 	ldr	x11, [x8, #8]
   80ef4:	529712ea 	mov	w10, #0xb897                	// #47255
   80ef8:	5297130c 	mov	w12, #0xb898                	// #47256
   80efc:	5297100d 	mov	w13, #0xb880                	// #47232
   80f00:	14000003 	b	80f0c <_ZN8graph_os8platform6raspi37mailbox17MailboxController4call17h9f8a6ea04da63d2fE+0x80>
   80f04:	d503201f 	nop
   80f08:	f940050b 	ldr	x11, [x8, #8]
   80f0c:	eb0a017f 	cmp	x11, x10
   80f10:	54000129 	b.ls	80f34 <_ZN8graph_os8platform6raspi37mailbox17MailboxController4call17h9f8a6ea04da63d2fE+0xa8>  // b.plast
   80f14:	f940010e 	ldr	x14, [x8]
   80f18:	b86c69cf 	ldr	w15, [x14, x12]
   80f1c:	37f7ff4f 	tbnz	w15, #30, 80f04 <_ZN8graph_os8platform6raspi37mailbox17MailboxController4call17h9f8a6ea04da63d2fE+0x78>
   80f20:	b86d69c0 	ldr	w0, [x14, x13]
   80f24:	12000c0e 	and	w14, w0, #0xf
   80f28:	6b0901df 	cmp	w14, w9
   80f2c:	54ffff01 	b.ne	80f0c <_ZN8graph_os8platform6raspi37mailbox17MailboxController4call17h9f8a6ea04da63d2fE+0x80>  // b.any
   80f30:	d65f03c0 	ret
   80f34:	b0000020 	adrp	x0, 85000 <memcpy+0x14>
   80f38:	b0000022 	adrp	x2, 85000 <memcpy+0x14>
   80f3c:	91178000 	add	x0, x0, #0x5e0
   80f40:	91182042 	add	x2, x2, #0x608
   80f44:	528004a1 	mov	w1, #0x25                  	// #37
   80f48:	94000904 	bl	83358 <_ZN4core9panicking5panic17h44d2e7d60b187585E>
   80f4c:	d4200020 	brk	#0x1
   80f50:	b0000020 	adrp	x0, 85000 <memcpy+0x14>
   80f54:	b0000022 	adrp	x2, 85000 <memcpy+0x14>
   80f58:	91160c00 	add	x0, x0, #0x583
   80f5c:	91172042 	add	x2, x2, #0x5c8
   80f60:	52800481 	mov	w1, #0x24                  	// #36
   80f64:	940008fd 	bl	83358 <_ZN4core9panicking5panic17h44d2e7d60b187585E>
   80f68:	d4200020 	brk	#0x1

0000000000080f6c <_ZN4core3fmt5Write10write_char17h9f4acd8d4fa5d751E.llvm.16487754560651466094>:
   80f6c:	f81f0ffe 	str	x30, [sp, #-16]!
   80f70:	7102003f 	cmp	w1, #0x80
   80f74:	b9000fff 	str	wzr, [sp, #12]
   80f78:	54000082 	b.cs	80f88 <_ZN4core3fmt5Write10write_char17h9f4acd8d4fa5d751E.llvm.16487754560651466094+0x1c>  // b.hs, b.nlast
   80f7c:	390033e1 	strb	w1, [sp, #12]
   80f80:	52800022 	mov	w2, #0x1                   	// #1
   80f84:	14000025 	b	81018 <_ZN4core3fmt5Write10write_char17h9f4acd8d4fa5d751E.llvm.16487754560651466094+0xac>
   80f88:	7120003f 	cmp	w1, #0x800
   80f8c:	54000122 	b.cs	80fb0 <_ZN4core3fmt5Write10write_char17h9f4acd8d4fa5d751E.llvm.16487754560651466094+0x44>  // b.hs, b.nlast
   80f90:	53067c28 	lsr	w8, w1, #6
   80f94:	52801009 	mov	w9, #0x80                  	// #128
   80f98:	321a0508 	orr	w8, w8, #0xc0
   80f9c:	33001429 	bfxil	w9, w1, #0, #6
   80fa0:	390033e8 	strb	w8, [sp, #12]
   80fa4:	390037e9 	strb	w9, [sp, #13]
   80fa8:	52800042 	mov	w2, #0x2                   	// #2
   80fac:	1400001b 	b	81018 <_ZN4core3fmt5Write10write_char17h9f4acd8d4fa5d751E.llvm.16487754560651466094+0xac>
   80fb0:	7140403f 	cmp	w1, #0x10, lsl #12
   80fb4:	54000182 	b.cs	80fe4 <_ZN4core3fmt5Write10write_char17h9f4acd8d4fa5d751E.llvm.16487754560651466094+0x78>  // b.hs, b.nlast
   80fb8:	530c7c28 	lsr	w8, w1, #12
   80fbc:	52801009 	mov	w9, #0x80                  	// #128
   80fc0:	5280100a 	mov	w10, #0x80                  	// #128
   80fc4:	321b0908 	orr	w8, w8, #0xe0
   80fc8:	33062c2a 	bfxil	w10, w1, #6, #6
   80fcc:	33001429 	bfxil	w9, w1, #0, #6
   80fd0:	390033e8 	strb	w8, [sp, #12]
   80fd4:	390037ea 	strb	w10, [sp, #13]
   80fd8:	39003be9 	strb	w9, [sp, #14]
   80fdc:	52800062 	mov	w2, #0x3                   	// #3
   80fe0:	1400000e 	b	81018 <_ZN4core3fmt5Write10write_char17h9f4acd8d4fa5d751E.llvm.16487754560651466094+0xac>
   80fe4:	53127c28 	lsr	w8, w1, #18
   80fe8:	52801009 	mov	w9, #0x80                  	// #128
   80fec:	5280100a 	mov	w10, #0x80                  	// #128
   80ff0:	5280100b 	mov	w11, #0x80                  	// #128
   80ff4:	321c0d08 	orr	w8, w8, #0xf0
   80ff8:	330c442a 	bfxil	w10, w1, #12, #6
   80ffc:	33062c2b 	bfxil	w11, w1, #6, #6
   81000:	33001429 	bfxil	w9, w1, #0, #6
   81004:	52800082 	mov	w2, #0x4                   	// #4
   81008:	390033e8 	strb	w8, [sp, #12]
   8100c:	390037ea 	strb	w10, [sp, #13]
   81010:	39003beb 	strb	w11, [sp, #14]
   81014:	39003fe9 	strb	w9, [sp, #15]
   81018:	f9400400 	ldr	x0, [x0, #8]
   8101c:	910033e1 	add	x1, sp, #0xc
   81020:	940000ed 	bl	813d4 <_ZN8graph_os8platform6raspi34uart14UARTController5write17h14e13fbd0204fec3E.llvm.16487754560651466094>
   81024:	2a1f03e0 	mov	w0, wzr
   81028:	f84107fe 	ldr	x30, [sp], #16
   8102c:	d65f03c0 	ret

0000000000081030 <_ZN4core3fmt5Write9write_fmt17h0ea9dafc119e2e3fE.llvm.16487754560651466094>:
   81030:	d10103ff 	sub	sp, sp, #0x40
   81034:	a90303fe 	stp	x30, x0, [sp, #48]
   81038:	910003e0 	mov	x0, sp
   8103c:	52800602 	mov	w2, #0x30                  	// #48
   81040:	94000feb 	bl	84fec <memcpy>
   81044:	90000021 	adrp	x1, 85000 <memcpy+0x14>
   81048:	91188021 	add	x1, x1, #0x620
   8104c:	9100e3e0 	add	x0, sp, #0x38
   81050:	910003e2 	mov	x2, sp
   81054:	94000c8b 	bl	84280 <_ZN4core3fmt5write17hb5f6a3bd29bb9808E>
   81058:	f9401bfe 	ldr	x30, [sp, #48]
   8105c:	910103ff 	add	sp, sp, #0x40
   81060:	d65f03c0 	ret

0000000000081064 <_ZN4core3ptr29drop_in_place$LT$$LP$$RP$$GT$17h9059fd73c1f28b3bE.llvm.16487754560651466094>:
   81064:	d65f03c0 	ret

0000000000081068 <_ZN50_$LT$$RF$mut$u20$W$u20$as$u20$core..fmt..Write$GT$10write_char17h2210d1eabe8bd62eE>:
   81068:	f81f0ffe 	str	x30, [sp, #-16]!
   8106c:	f9400008 	ldr	x8, [x0]
   81070:	7102003f 	cmp	w1, #0x80
   81074:	b9000fff 	str	wzr, [sp, #12]
   81078:	54000082 	b.cs	81088 <_ZN50_$LT$$RF$mut$u20$W$u20$as$u20$core..fmt..Write$GT$10write_char17h2210d1eabe8bd62eE+0x20>  // b.hs, b.nlast
   8107c:	390033e1 	strb	w1, [sp, #12]
   81080:	52800022 	mov	w2, #0x1                   	// #1
   81084:	14000025 	b	81118 <_ZN50_$LT$$RF$mut$u20$W$u20$as$u20$core..fmt..Write$GT$10write_char17h2210d1eabe8bd62eE+0xb0>
   81088:	7120003f 	cmp	w1, #0x800
   8108c:	54000122 	b.cs	810b0 <_ZN50_$LT$$RF$mut$u20$W$u20$as$u20$core..fmt..Write$GT$10write_char17h2210d1eabe8bd62eE+0x48>  // b.hs, b.nlast
   81090:	53067c29 	lsr	w9, w1, #6
   81094:	5280100a 	mov	w10, #0x80                  	// #128
   81098:	321a0529 	orr	w9, w9, #0xc0
   8109c:	3300142a 	bfxil	w10, w1, #0, #6
   810a0:	390033e9 	strb	w9, [sp, #12]
   810a4:	390037ea 	strb	w10, [sp, #13]
   810a8:	52800042 	mov	w2, #0x2                   	// #2
   810ac:	1400001b 	b	81118 <_ZN50_$LT$$RF$mut$u20$W$u20$as$u20$core..fmt..Write$GT$10write_char17h2210d1eabe8bd62eE+0xb0>
   810b0:	7140403f 	cmp	w1, #0x10, lsl #12
   810b4:	54000182 	b.cs	810e4 <_ZN50_$LT$$RF$mut$u20$W$u20$as$u20$core..fmt..Write$GT$10write_char17h2210d1eabe8bd62eE+0x7c>  // b.hs, b.nlast
   810b8:	530c7c29 	lsr	w9, w1, #12
   810bc:	5280100a 	mov	w10, #0x80                  	// #128
   810c0:	5280100b 	mov	w11, #0x80                  	// #128
   810c4:	321b0929 	orr	w9, w9, #0xe0
   810c8:	33062c2b 	bfxil	w11, w1, #6, #6
   810cc:	3300142a 	bfxil	w10, w1, #0, #6
   810d0:	390033e9 	strb	w9, [sp, #12]
   810d4:	390037eb 	strb	w11, [sp, #13]
   810d8:	39003bea 	strb	w10, [sp, #14]
   810dc:	52800062 	mov	w2, #0x3                   	// #3
   810e0:	1400000e 	b	81118 <_ZN50_$LT$$RF$mut$u20$W$u20$as$u20$core..fmt..Write$GT$10write_char17h2210d1eabe8bd62eE+0xb0>
   810e4:	53127c29 	lsr	w9, w1, #18
   810e8:	5280100a 	mov	w10, #0x80                  	// #128
   810ec:	5280100b 	mov	w11, #0x80                  	// #128
   810f0:	5280100c 	mov	w12, #0x80                  	// #128
   810f4:	321c0d29 	orr	w9, w9, #0xf0
   810f8:	330c442b 	bfxil	w11, w1, #12, #6
   810fc:	33062c2c 	bfxil	w12, w1, #6, #6
   81100:	3300142a 	bfxil	w10, w1, #0, #6
   81104:	52800082 	mov	w2, #0x4                   	// #4
   81108:	390033e9 	strb	w9, [sp, #12]
   8110c:	390037eb 	strb	w11, [sp, #13]
   81110:	39003bec 	strb	w12, [sp, #14]
   81114:	39003fea 	strb	w10, [sp, #15]
   81118:	f9400500 	ldr	x0, [x8, #8]
   8111c:	910033e1 	add	x1, sp, #0xc
   81120:	940000ad 	bl	813d4 <_ZN8graph_os8platform6raspi34uart14UARTController5write17h14e13fbd0204fec3E.llvm.16487754560651466094>
   81124:	2a1f03e0 	mov	w0, wzr
   81128:	f84107fe 	ldr	x30, [sp], #16
   8112c:	d65f03c0 	ret

0000000000081130 <_ZN50_$LT$$RF$mut$u20$W$u20$as$u20$core..fmt..Write$GT$9write_fmt17h3a141ae5690efff5E>:
   81130:	d10103ff 	sub	sp, sp, #0x40
   81134:	f9400008 	ldr	x8, [x0]
   81138:	910003e0 	mov	x0, sp
   8113c:	52800602 	mov	w2, #0x30                  	// #48
   81140:	a90323fe 	stp	x30, x8, [sp, #48]
   81144:	94000faa 	bl	84fec <memcpy>
   81148:	90000021 	adrp	x1, 85000 <memcpy+0x14>
   8114c:	91188021 	add	x1, x1, #0x620
   81150:	9100e3e0 	add	x0, sp, #0x38
   81154:	910003e2 	mov	x2, sp
   81158:	94000c4a 	bl	84280 <_ZN4core3fmt5write17hb5f6a3bd29bb9808E>
   8115c:	f9401bfe 	ldr	x30, [sp, #48]
   81160:	910103ff 	add	sp, sp, #0x40
   81164:	d65f03c0 	ret

0000000000081168 <_ZN50_$LT$$RF$mut$u20$W$u20$as$u20$core..fmt..Write$GT$9write_str17h2a8c964aeab67024E>:
   81168:	f81f0ffe 	str	x30, [sp, #-16]!
   8116c:	f9400008 	ldr	x8, [x0]
   81170:	f9400500 	ldr	x0, [x8, #8]
   81174:	94000098 	bl	813d4 <_ZN8graph_os8platform6raspi34uart14UARTController5write17h14e13fbd0204fec3E.llvm.16487754560651466094>
   81178:	2a1f03e0 	mov	w0, wzr
   8117c:	f84107fe 	ldr	x30, [sp], #16
   81180:	d65f03c0 	ret

0000000000081184 <_ZN85_$LT$graph_os..platform..raspi3..uart..UARTController$u20$as$u20$core..fmt..Write$GT$9write_str17h140e0b088704102eE.llvm.16487754560651466094>:
   81184:	f81f0ffe 	str	x30, [sp, #-16]!
   81188:	f9400400 	ldr	x0, [x0, #8]
   8118c:	94000092 	bl	813d4 <_ZN8graph_os8platform6raspi34uart14UARTController5write17h14e13fbd0204fec3E.llvm.16487754560651466094>
   81190:	2a1f03e0 	mov	w0, wzr
   81194:	f84107fe 	ldr	x30, [sp], #16
   81198:	d65f03c0 	ret

000000000008119c <_ZN8graph_os8platform6raspi34uart14UARTController4init17hc6243bd3960c6e87E>:
   8119c:	f940042a 	ldr	x10, [x1, #8]
   811a0:	52800089 	mov	w9, #0x4                   	// #4
   811a4:	528a000b 	mov	w11, #0x5000                	// #20480
   811a8:	72a00409 	movk	w9, #0x20, lsl #16
   811ac:	72a0002b 	movk	w11, #0x1, lsl #16
   811b0:	aa0b012b 	orr	x11, x9, x11
   811b4:	eb0b015f 	cmp	x10, x11
   811b8:	54000b43 	b.cc	81320 <_ZN8graph_os8platform6raspi34uart14UARTController4init17hc6243bd3960c6e87E+0x184>  // b.lo, b.ul, b.last
   811bc:	f940002a 	ldr	x10, [x1]
   811c0:	8b0a012a 	add	x10, x9, x10
   811c4:	9140554a 	add	x10, x10, #0x15, lsl #12
   811c8:	b940014b 	ldr	w11, [x10]
   811cc:	3200016b 	orr	w11, w11, #0x1
   811d0:	b900014b 	str	w11, [x10]
   811d4:	f940042b 	ldr	x11, [x1, #8]
   811d8:	528a0c0a 	mov	w10, #0x5060                	// #20576
   811dc:	72a0042a 	movk	w10, #0x21, lsl #16
   811e0:	eb0a017f 	cmp	x11, x10
   811e4:	54000903 	b.cc	81304 <_ZN8graph_os8platform6raspi34uart14UARTController4init17hc6243bd3960c6e87E+0x168>  // b.lo, b.ul, b.last
   811e8:	f940002b 	ldr	x11, [x1]
   811ec:	d100514c 	sub	x12, x10, #0x14
   811f0:	b82a697f 	str	wzr, [x11, x10]
   811f4:	f940042b 	ldr	x11, [x1, #8]
   811f8:	eb0c017f 	cmp	x11, x12
   811fc:	54000843 	b.cc	81304 <_ZN8graph_os8platform6raspi34uart14UARTController4init17hc6243bd3960c6e87E+0x168>  // b.lo, b.ul, b.last
   81200:	f940002b 	ldr	x11, [x1]
   81204:	5280006c 	mov	w12, #0x3                   	// #3
   81208:	8b0b014b 	add	x11, x10, x11
   8120c:	b81ec16c 	stur	w12, [x11, #-20]
   81210:	f940042b 	ldr	x11, [x1, #8]
   81214:	d100414c 	sub	x12, x10, #0x10
   81218:	eb0c017f 	cmp	x11, x12
   8121c:	54000743 	b.cc	81304 <_ZN8graph_os8platform6raspi34uart14UARTController4init17hc6243bd3960c6e87E+0x168>  // b.lo, b.ul, b.last
   81220:	f940002b 	ldr	x11, [x1]
   81224:	d100714c 	sub	x12, x10, #0x1c
   81228:	8b0b014b 	add	x11, x10, x11
   8122c:	b81f017f 	stur	wzr, [x11, #-16]
   81230:	f940042b 	ldr	x11, [x1, #8]
   81234:	eb0c017f 	cmp	x11, x12
   81238:	54000663 	b.cc	81304 <_ZN8graph_os8platform6raspi34uart14UARTController4init17hc6243bd3960c6e87E+0x168>  // b.lo, b.ul, b.last
   8123c:	f940002b 	ldr	x11, [x1]
   81240:	d100614c 	sub	x12, x10, #0x18
   81244:	8b0b014b 	add	x11, x10, x11
   81248:	b81e417f 	stur	wzr, [x11, #-28]
   8124c:	f940042b 	ldr	x11, [x1, #8]
   81250:	eb0c017f 	cmp	x11, x12
   81254:	54000583 	b.cc	81304 <_ZN8graph_os8platform6raspi34uart14UARTController4init17hc6243bd3960c6e87E+0x168>  // b.lo, b.ul, b.last
   81258:	f940002b 	ldr	x11, [x1]
   8125c:	528018cc 	mov	w12, #0xc6                  	// #198
   81260:	8b0b014b 	add	x11, x10, x11
   81264:	b81e816c 	stur	w12, [x11, #-24]
   81268:	f940042b 	ldr	x11, [x1, #8]
   8126c:	9100214c 	add	x12, x10, #0x8
   81270:	eb0c017f 	cmp	x11, x12
   81274:	54000483 	b.cc	81304 <_ZN8graph_os8platform6raspi34uart14UARTController4init17hc6243bd3960c6e87E+0x168>  // b.lo, b.ul, b.last
   81278:	f940002b 	ldr	x11, [x1]
   8127c:	528021cc 	mov	w12, #0x10e                 	// #270
   81280:	8b0b014b 	add	x11, x10, x11
   81284:	b900096c 	str	w12, [x11, #8]
   81288:	f940000b 	ldr	x11, [x0]
   8128c:	f940056c 	ldr	x12, [x11, #8]
   81290:	eb09019f 	cmp	x12, x9
   81294:	54000463 	b.cc	81320 <_ZN8graph_os8platform6raspi34uart14UARTController4init17hc6243bd3960c6e87E+0x184>  // b.lo, b.ul, b.last
   81298:	f940016c 	ldr	x12, [x11]
   8129c:	528fffeb 	mov	w11, #0x7fff                	// #32767
   812a0:	72bff90b 	movk	w11, #0xffc8, lsl #16
   812a4:	114c256e 	add	w14, w11, #0x309, lsl #12
   812a8:	b869698d 	ldr	w13, [x12, x9]
   812ac:	0a0e01ad 	and	w13, w13, w14
   812b0:	321301ad 	orr	w13, w13, #0x2000
   812b4:	b829698d 	str	w13, [x12, x9]
   812b8:	f940000c 	ldr	x12, [x0]
   812bc:	f940058d 	ldr	x13, [x12, #8]
   812c0:	eb0901bf 	cmp	x13, x9
   812c4:	540002e3 	b.cc	81320 <_ZN8graph_os8platform6raspi34uart14UARTController4init17hc6243bd3960c6e87E+0x184>  // b.lo, b.ul, b.last
   812c8:	f940018c 	ldr	x12, [x12]
   812cc:	b869698d 	ldr	w13, [x12, x9]
   812d0:	0a0b01ab 	and	w11, w13, w11
   812d4:	3210016b 	orr	w11, w11, #0x10000
   812d8:	b829698b 	str	w11, [x12, x9]
   812dc:	f9400429 	ldr	x9, [x1, #8]
   812e0:	eb0a013f 	cmp	x9, x10
   812e4:	54000103 	b.cc	81304 <_ZN8graph_os8platform6raspi34uart14UARTController4init17hc6243bd3960c6e87E+0x168>  // b.lo, b.ul, b.last
   812e8:	f9400029 	ldr	x9, [x1]
   812ec:	5280006b 	mov	w11, #0x3                   	// #3
   812f0:	b82a692b 	str	w11, [x9, x10]
   812f4:	a9000500 	stp	x0, x1, [x8]
   812f8:	f900091f 	str	xzr, [x8, #16]
   812fc:	3900611f 	strb	wzr, [x8, #24]
   81300:	d65f03c0 	ret
   81304:	90000020 	adrp	x0, 85000 <memcpy+0x14>
   81308:	90000022 	adrp	x2, 85000 <memcpy+0x14>
   8130c:	91160c00 	add	x0, x0, #0x583
   81310:	91172042 	add	x2, x2, #0x5c8
   81314:	52800481 	mov	w1, #0x24                  	// #36
   81318:	94000810 	bl	83358 <_ZN4core9panicking5panic17h44d2e7d60b187585E>
   8131c:	d4200020 	brk	#0x1
   81320:	90000020 	adrp	x0, 85000 <memcpy+0x14>
   81324:	90000022 	adrp	x2, 85000 <memcpy+0x14>
   81328:	91178000 	add	x0, x0, #0x5e0
   8132c:	91182042 	add	x2, x2, #0x608
   81330:	528004a1 	mov	w1, #0x25                  	// #37
   81334:	94000809 	bl	83358 <_ZN4core9panicking5panic17h44d2e7d60b187585E>
   81338:	d4200020 	brk	#0x1

000000000008133c <_ZN8graph_os8platform6raspi34uart14UARTController7newline17h3bac0dbadd4d9f97E>:
   8133c:	f9400409 	ldr	x9, [x0, #8]
   81340:	528a0a88 	mov	w8, #0x5054                	// #20564
   81344:	72a00428 	movk	w8, #0x21, lsl #16
   81348:	f940052a 	ldr	x10, [x9, #8]
   8134c:	eb08015f 	cmp	x10, x8
   81350:	54000103 	b.cc	81370 <_ZN8graph_os8platform6raspi34uart14UARTController7newline17h3bac0dbadd4d9f97E+0x34>  // b.lo, b.ul, b.last
   81354:	f940012a 	ldr	x10, [x9]
   81358:	b868694b 	ldr	w11, [x10, x8]
   8135c:	3728018b 	tbnz	w11, #5, 8138c <_ZN8graph_os8platform6raspi34uart14UARTController7newline17h3bac0dbadd4d9f97E+0x50>
   81360:	d503201f 	nop
   81364:	f940052a 	ldr	x10, [x9, #8]
   81368:	eb08015f 	cmp	x10, x8
   8136c:	54ffff42 	b.cs	81354 <_ZN8graph_os8platform6raspi34uart14UARTController7newline17h3bac0dbadd4d9f97E+0x18>  // b.hs, b.nlast
   81370:	90000020 	adrp	x0, 85000 <memcpy+0x14>
   81374:	90000022 	adrp	x2, 85000 <memcpy+0x14>
   81378:	91178000 	add	x0, x0, #0x5e0
   8137c:	91182042 	add	x2, x2, #0x608
   81380:	528004a1 	mov	w1, #0x25                  	// #37
   81384:	940007f5 	bl	83358 <_ZN4core9panicking5panic17h44d2e7d60b187585E>
   81388:	d4200020 	brk	#0x1
   8138c:	8b0a010a 	add	x10, x8, x10
   81390:	5280014b 	mov	w11, #0xa                   	// #10
   81394:	b81ec14b 	stur	w11, [x10, #-20]
   81398:	f940052a 	ldr	x10, [x9, #8]
   8139c:	eb08015f 	cmp	x10, x8
   813a0:	54fffe83 	b.cc	81370 <_ZN8graph_os8platform6raspi34uart14UARTController7newline17h3bac0dbadd4d9f97E+0x34>  // b.lo, b.ul, b.last
   813a4:	f940012a 	ldr	x10, [x9]
   813a8:	b868694b 	ldr	w11, [x10, x8]
   813ac:	372800cb 	tbnz	w11, #5, 813c4 <_ZN8graph_os8platform6raspi34uart14UARTController7newline17h3bac0dbadd4d9f97E+0x88>
   813b0:	d503201f 	nop
   813b4:	f940052a 	ldr	x10, [x9, #8]
   813b8:	eb08015f 	cmp	x10, x8
   813bc:	54ffff42 	b.cs	813a4 <_ZN8graph_os8platform6raspi34uart14UARTController7newline17h3bac0dbadd4d9f97E+0x68>  // b.hs, b.nlast
   813c0:	17ffffec 	b	81370 <_ZN8graph_os8platform6raspi34uart14UARTController7newline17h3bac0dbadd4d9f97E+0x34>
   813c4:	8b0a0108 	add	x8, x8, x10
   813c8:	528001a9 	mov	w9, #0xd                   	// #13
   813cc:	b81ec109 	stur	w9, [x8, #-20]
   813d0:	d65f03c0 	ret

00000000000813d4 <_ZN8graph_os8platform6raspi34uart14UARTController5write17h14e13fbd0204fec3E.llvm.16487754560651466094>:
   813d4:	b4000802 	cbz	x2, 814d4 <_ZN8graph_os8platform6raspi34uart14UARTController5write17h14e13fbd0204fec3E.llvm.16487754560651466094+0x100>
   813d8:	528a0a89 	mov	w9, #0x5054                	// #20564
   813dc:	8b020028 	add	x8, x1, x2
   813e0:	72a00429 	movk	w9, #0x21, lsl #16
   813e4:	aa0103eb 	mov	x11, x1
   813e8:	38c0156c 	ldrsb	w12, [x11], #1
   813ec:	12001d8a 	and	w10, w12, #0xff
   813f0:	37f8006c 	tbnz	w12, #31, 813fc <_ZN8graph_os8platform6raspi34uart14UARTController5write17h14e13fbd0204fec3E.llvm.16487754560651466094+0x28>
   813f4:	aa0b03e1 	mov	x1, x11
   813f8:	1400002d 	b	814ac <_ZN8graph_os8platform6raspi34uart14UARTController5write17h14e13fbd0204fec3E.llvm.16487754560651466094+0xd8>
   813fc:	eb08017f 	cmp	x11, x8
   81400:	54000260 	b.eq	8144c <_ZN8graph_os8platform6raspi34uart14UARTController5write17h14e13fbd0204fec3E.llvm.16487754560651466094+0x78>  // b.none
   81404:	3940042b 	ldrb	w11, [x1, #1]
   81408:	91000821 	add	x1, x1, #0x2
   8140c:	1200156d 	and	w13, w11, #0x3f
   81410:	71037d5f 	cmp	w10, #0xdf
   81414:	1200114b 	and	w11, w10, #0x1f
   81418:	54000249 	b.ls	81460 <_ZN8graph_os8platform6raspi34uart14UARTController5write17h14e13fbd0204fec3E.llvm.16487754560651466094+0x8c>  // b.plast
   8141c:	eb08003f 	cmp	x1, x8
   81420:	54000260 	b.eq	8146c <_ZN8graph_os8platform6raspi34uart14UARTController5write17h14e13fbd0204fec3E.llvm.16487754560651466094+0x98>  // b.none
   81424:	3840142c 	ldrb	w12, [x1], #1
   81428:	1200158c 	and	w12, w12, #0x3f
   8142c:	7103c15f 	cmp	w10, #0xf0
   81430:	331a15ac 	bfi	w12, w13, #6, #6
   81434:	54000263 	b.cc	81480 <_ZN8graph_os8platform6raspi34uart14UARTController5write17h14e13fbd0204fec3E.llvm.16487754560651466094+0xac>  // b.lo, b.ul, b.last
   81438:	eb08003f 	cmp	x1, x8
   8143c:	54000280 	b.eq	8148c <_ZN8graph_os8platform6raspi34uart14UARTController5write17h14e13fbd0204fec3E.llvm.16487754560651466094+0xb8>  // b.none
   81440:	3840142a 	ldrb	w10, [x1], #1
   81444:	1200154a 	and	w10, w10, #0x3f
   81448:	14000012 	b	81490 <_ZN8graph_os8platform6raspi34uart14UARTController5write17h14e13fbd0204fec3E.llvm.16487754560651466094+0xbc>
   8144c:	2a1f03ed 	mov	w13, wzr
   81450:	aa0803e1 	mov	x1, x8
   81454:	71037d5f 	cmp	w10, #0xdf
   81458:	1200114b 	and	w11, w10, #0x1f
   8145c:	54fffe08 	b.hi	8141c <_ZN8graph_os8platform6raspi34uart14UARTController5write17h14e13fbd0204fec3E.llvm.16487754560651466094+0x48>  // b.pmore
   81460:	331a116d 	bfi	w13, w11, #6, #5
   81464:	2a0d03ea 	mov	w10, w13
   81468:	14000011 	b	814ac <_ZN8graph_os8platform6raspi34uart14UARTController5write17h14e13fbd0204fec3E.llvm.16487754560651466094+0xd8>
   8146c:	2a1f03ec 	mov	w12, wzr
   81470:	aa0803e1 	mov	x1, x8
   81474:	7103c15f 	cmp	w10, #0xf0
   81478:	331a15ac 	bfi	w12, w13, #6, #6
   8147c:	54fffde2 	b.cs	81438 <_ZN8graph_os8platform6raspi34uart14UARTController5write17h14e13fbd0204fec3E.llvm.16487754560651466094+0x64>  // b.hs, b.nlast
   81480:	3314116c 	bfi	w12, w11, #12, #5
   81484:	2a0c03ea 	mov	w10, w12
   81488:	14000009 	b	814ac <_ZN8graph_os8platform6raspi34uart14UARTController5write17h14e13fbd0204fec3E.llvm.16487754560651466094+0xd8>
   8148c:	2a1f03ea 	mov	w10, wzr
   81490:	530e096b 	ubfiz	w11, w11, #18, #3
   81494:	331a2d8b 	bfi	w11, w12, #6, #12
   81498:	2a0a016a 	orr	w10, w11, w10
   8149c:	7144415f 	cmp	w10, #0x110, lsl #12
   814a0:	54000061 	b.ne	814ac <_ZN8graph_os8platform6raspi34uart14UARTController5write17h14e13fbd0204fec3E.llvm.16487754560651466094+0xd8>  // b.any
   814a4:	1400000c 	b	814d4 <_ZN8graph_os8platform6raspi34uart14UARTController5write17h14e13fbd0204fec3E.llvm.16487754560651466094+0x100>
   814a8:	d503201f 	nop
   814ac:	f940040b 	ldr	x11, [x0, #8]
   814b0:	eb09017f 	cmp	x11, x9
   814b4:	54000123 	b.cc	814d8 <_ZN8graph_os8platform6raspi34uart14UARTController5write17h14e13fbd0204fec3E.llvm.16487754560651466094+0x104>  // b.lo, b.ul, b.last
   814b8:	f940000b 	ldr	x11, [x0]
   814bc:	b869696c 	ldr	w12, [x11, x9]
   814c0:	362fff4c 	tbz	w12, #5, 814a8 <_ZN8graph_os8platform6raspi34uart14UARTController5write17h14e13fbd0204fec3E.llvm.16487754560651466094+0xd4>
   814c4:	8b0b012b 	add	x11, x9, x11
   814c8:	eb08003f 	cmp	x1, x8
   814cc:	b81ec16a 	stur	w10, [x11, #-20]
   814d0:	54fff8a1 	b.ne	813e4 <_ZN8graph_os8platform6raspi34uart14UARTController5write17h14e13fbd0204fec3E.llvm.16487754560651466094+0x10>  // b.any
   814d4:	d65f03c0 	ret
   814d8:	90000020 	adrp	x0, 85000 <memcpy+0x14>
   814dc:	90000022 	adrp	x2, 85000 <memcpy+0x14>
   814e0:	91178000 	add	x0, x0, #0x5e0
   814e4:	91182042 	add	x2, x2, #0x608
   814e8:	528004a1 	mov	w1, #0x25                  	// #37
   814ec:	9400079b 	bl	83358 <_ZN4core9panicking5panic17h44d2e7d60b187585E>
   814f0:	d4200020 	brk	#0x1
	...

0000000000081800 <_exception_vector>:
   81800:	d2800000 	mov	x0, #0x0                   	// #0
   81804:	d2800001 	mov	x1, #0x0                   	// #0
   81808:	d5385202 	mrs	x2, esr_el1
   8180c:	d5384023 	mrs	x3, elr_el1
   81810:	d5384004 	mrs	x4, spsr_el1
   81814:	d5386005 	mrs	x5, far_el1
   81818:	910003e6 	mov	x6, sp
   8181c:	140001e1 	b	81fa0 <handle_exception>
	...
   81880:	d2800000 	mov	x0, #0x0                   	// #0
   81884:	d2800021 	mov	x1, #0x1                   	// #1
   81888:	d5385202 	mrs	x2, esr_el1
   8188c:	d5384023 	mrs	x3, elr_el1
   81890:	d5384004 	mrs	x4, spsr_el1
   81894:	d5386005 	mrs	x5, far_el1
   81898:	910003e6 	mov	x6, sp
   8189c:	140001c1 	b	81fa0 <handle_exception>
	...
   81900:	d2800000 	mov	x0, #0x0                   	// #0
   81904:	d2800041 	mov	x1, #0x2                   	// #2
   81908:	d5385202 	mrs	x2, esr_el1
   8190c:	d5384023 	mrs	x3, elr_el1
   81910:	d5384004 	mrs	x4, spsr_el1
   81914:	d5386005 	mrs	x5, far_el1
   81918:	910003e6 	mov	x6, sp
   8191c:	140001a1 	b	81fa0 <handle_exception>
	...
   81980:	d2800000 	mov	x0, #0x0                   	// #0
   81984:	d2800061 	mov	x1, #0x3                   	// #3
   81988:	d5385202 	mrs	x2, esr_el1
   8198c:	d5384023 	mrs	x3, elr_el1
   81990:	d5384004 	mrs	x4, spsr_el1
   81994:	d5386005 	mrs	x5, far_el1
   81998:	910003e6 	mov	x6, sp
   8199c:	14000181 	b	81fa0 <handle_exception>
	...
   81a00:	d2800020 	mov	x0, #0x1                   	// #1
   81a04:	d2800001 	mov	x1, #0x0                   	// #0
   81a08:	d5385202 	mrs	x2, esr_el1
   81a0c:	d5384023 	mrs	x3, elr_el1
   81a10:	d5384004 	mrs	x4, spsr_el1
   81a14:	d5386005 	mrs	x5, far_el1
   81a18:	910003e6 	mov	x6, sp
   81a1c:	14000161 	b	81fa0 <handle_exception>
	...
   81a80:	d2800020 	mov	x0, #0x1                   	// #1
   81a84:	d2800021 	mov	x1, #0x1                   	// #1
   81a88:	d5385202 	mrs	x2, esr_el1
   81a8c:	d5384023 	mrs	x3, elr_el1
   81a90:	d5384004 	mrs	x4, spsr_el1
   81a94:	d5386005 	mrs	x5, far_el1
   81a98:	910003e6 	mov	x6, sp
   81a9c:	14000141 	b	81fa0 <handle_exception>
	...
   81b00:	d2800020 	mov	x0, #0x1                   	// #1
   81b04:	d2800041 	mov	x1, #0x2                   	// #2
   81b08:	d5385202 	mrs	x2, esr_el1
   81b0c:	d5384023 	mrs	x3, elr_el1
   81b10:	d5384004 	mrs	x4, spsr_el1
   81b14:	d5386005 	mrs	x5, far_el1
   81b18:	910003e6 	mov	x6, sp
   81b1c:	14000121 	b	81fa0 <handle_exception>
	...
   81b80:	d2800020 	mov	x0, #0x1                   	// #1
   81b84:	d2800061 	mov	x1, #0x3                   	// #3
   81b88:	d5385202 	mrs	x2, esr_el1
   81b8c:	d5384023 	mrs	x3, elr_el1
   81b90:	d5384004 	mrs	x4, spsr_el1
   81b94:	d5386005 	mrs	x5, far_el1
   81b98:	910003e6 	mov	x6, sp
   81b9c:	14000101 	b	81fa0 <handle_exception>
	...
   81c00:	d2800040 	mov	x0, #0x2                   	// #2
   81c04:	d2800001 	mov	x1, #0x0                   	// #0
   81c08:	d5385202 	mrs	x2, esr_el1
   81c0c:	d5384023 	mrs	x3, elr_el1
   81c10:	d5384004 	mrs	x4, spsr_el1
   81c14:	d5386005 	mrs	x5, far_el1
   81c18:	910003e6 	mov	x6, sp
   81c1c:	140000e1 	b	81fa0 <handle_exception>
	...
   81c80:	d2800040 	mov	x0, #0x2                   	// #2
   81c84:	d2800021 	mov	x1, #0x1                   	// #1
   81c88:	d5385202 	mrs	x2, esr_el1
   81c8c:	d5384023 	mrs	x3, elr_el1
   81c90:	d5384004 	mrs	x4, spsr_el1
   81c94:	d5386005 	mrs	x5, far_el1
   81c98:	910003e6 	mov	x6, sp
   81c9c:	140000c1 	b	81fa0 <handle_exception>
	...
   81d00:	d2800040 	mov	x0, #0x2                   	// #2
   81d04:	d2800041 	mov	x1, #0x2                   	// #2
   81d08:	d5385202 	mrs	x2, esr_el1
   81d0c:	d5384023 	mrs	x3, elr_el1
   81d10:	d5384004 	mrs	x4, spsr_el1
   81d14:	d5386005 	mrs	x5, far_el1
   81d18:	910003e6 	mov	x6, sp
   81d1c:	140000a1 	b	81fa0 <handle_exception>
	...
   81d80:	d2800040 	mov	x0, #0x2                   	// #2
   81d84:	d2800061 	mov	x1, #0x3                   	// #3
   81d88:	d5385202 	mrs	x2, esr_el1
   81d8c:	d5384023 	mrs	x3, elr_el1
   81d90:	d5384004 	mrs	x4, spsr_el1
   81d94:	d5386005 	mrs	x5, far_el1
   81d98:	910003e6 	mov	x6, sp
   81d9c:	14000081 	b	81fa0 <handle_exception>
	...
   81e00:	d2800060 	mov	x0, #0x3                   	// #3
   81e04:	d2800001 	mov	x1, #0x0                   	// #0
   81e08:	d5385202 	mrs	x2, esr_el1
   81e0c:	d5384023 	mrs	x3, elr_el1
   81e10:	d5384004 	mrs	x4, spsr_el1
   81e14:	d5386005 	mrs	x5, far_el1
   81e18:	910003e6 	mov	x6, sp
   81e1c:	14000061 	b	81fa0 <handle_exception>
	...
   81e80:	d2800060 	mov	x0, #0x3                   	// #3
   81e84:	d2800021 	mov	x1, #0x1                   	// #1
   81e88:	d5385202 	mrs	x2, esr_el1
   81e8c:	d5384023 	mrs	x3, elr_el1
   81e90:	d5384004 	mrs	x4, spsr_el1
   81e94:	d5386005 	mrs	x5, far_el1
   81e98:	910003e6 	mov	x6, sp
   81e9c:	14000041 	b	81fa0 <handle_exception>
	...
   81f00:	d2800060 	mov	x0, #0x3                   	// #3
   81f04:	d2800041 	mov	x1, #0x2                   	// #2
   81f08:	d5385202 	mrs	x2, esr_el1
   81f0c:	d5384023 	mrs	x3, elr_el1
   81f10:	d5384004 	mrs	x4, spsr_el1
   81f14:	d5386005 	mrs	x5, far_el1
   81f18:	910003e6 	mov	x6, sp
   81f1c:	14000021 	b	81fa0 <handle_exception>
	...
   81f80:	d2800060 	mov	x0, #0x3                   	// #3
   81f84:	d2800061 	mov	x1, #0x3                   	// #3
   81f88:	d5385202 	mrs	x2, esr_el1
   81f8c:	d5384023 	mrs	x3, elr_el1
   81f90:	d5384004 	mrs	x4, spsr_el1
   81f94:	d5386005 	mrs	x5, far_el1
   81f98:	910003e6 	mov	x6, sp
   81f9c:	14000001 	b	81fa0 <handle_exception>

0000000000081fa0 <handle_exception>:
   81fa0:	52800388 	mov	w8, #0x1c                  	// #28
   81fa4:	72a7e408 	movk	w8, #0x3f20, lsl #16
   81fa8:	b85e8109 	ldur	w9, [x8, #-24]
   81fac:	12a1bc0b 	mov	w11, #0xf21fffff            	// #-232783873
   81fb0:	1283780e 	mov	w14, #0xffffe43f            	// #-7105
   81fb4:	5284b40a 	mov	w10, #0x25a0                	// #9632
   81fb8:	0a0b0129 	and	w9, w9, w11
   81fbc:	320b0129 	orr	w9, w9, #0x200000
   81fc0:	b81e8109 	stur	w9, [x8, #-24]
   81fc4:	b85ec10c 	ldur	w12, [x8, #-20]
   81fc8:	52860089 	mov	w9, #0x3004                	// #12292
   81fcc:	72a7e009 	movk	w9, #0x3f00, lsl #16
   81fd0:	72a004ca 	movk	w10, #0x26, lsl #16
   81fd4:	0a0b018b 	and	w11, w12, w11
   81fd8:	320b016b 	orr	w11, w11, #0x200000
   81fdc:	b81ec10b 	stur	w11, [x8, #-20]
   81fe0:	b85ec10c 	ldur	w12, [x8, #-20]
   81fe4:	5288480b 	mov	w11, #0x4240                	// #16960
   81fe8:	72a001eb 	movk	w11, #0xf, lsl #16
   81fec:	b100140d 	adds	x13, x0, #0x5
   81ff0:	0a0e018c 	and	w12, w12, w14
   81ff4:	321a018c 	orr	w12, w12, #0x40
   81ff8:	b81ec10c 	stur	w12, [x8, #-20]
   81ffc:	9100142c 	add	x12, x1, #0x5
   82000:	54001060 	b.eq	8220c <handle_exception+0x26c>  // b.none
   82004:	aa1f03ee 	mov	x14, xzr
   82008:	b940010f 	ldr	w15, [x8]
   8200c:	320a01ef 	orr	w15, w15, #0x400000
   82010:	b900010f 	str	w15, [x8]
   82014:	b940012f 	ldr	w15, [x9]
   82018:	b9400530 	ldr	w16, [x9, #4]
   8201c:	8b0b01ef 	add	x15, x15, x11
   82020:	8b1081ef 	add	x15, x15, x16, lsl #32
   82024:	b9400130 	ldr	w16, [x9]
   82028:	b9400531 	ldr	w17, [x9, #4]
   8202c:	b3607e30 	bfi	x16, x17, #32, #32
   82030:	eb0f021f 	cmp	x16, x15
   82034:	54ffff83 	b.cc	82024 <handle_exception+0x84>  // b.lo, b.ul, b.last
   82038:	b9400d0f 	ldr	w15, [x8, #12]
   8203c:	320a01ef 	orr	w15, w15, #0x400000
   82040:	b9000d0f 	str	w15, [x8, #12]
   82044:	b940012f 	ldr	w15, [x9]
   82048:	b9400530 	ldr	w16, [x9, #4]
   8204c:	8b0b01ef 	add	x15, x15, x11
   82050:	8b1081ef 	add	x15, x15, x16, lsl #32
   82054:	b9400130 	ldr	w16, [x9]
   82058:	b9400531 	ldr	w17, [x9, #4]
   8205c:	b3607e30 	bfi	x16, x17, #32, #32
   82060:	eb0f021f 	cmp	x16, x15
   82064:	54ffff83 	b.cc	82054 <handle_exception+0xb4>  // b.lo, b.ul, b.last
   82068:	910005ce 	add	x14, x14, #0x1
   8206c:	eb0d01df 	cmp	x14, x13
   82070:	54fffcc1 	b.ne	82008 <handle_exception+0x68>  // b.any
   82074:	b940012e 	ldr	w14, [x9]
   82078:	b940052f 	ldr	w15, [x9, #4]
   8207c:	8b0a01ce 	add	x14, x14, x10
   82080:	8b0f81ce 	add	x14, x14, x15, lsl #32
   82084:	b940012f 	ldr	w15, [x9]
   82088:	b9400530 	ldr	w16, [x9, #4]
   8208c:	b3607e0f 	bfi	x15, x16, #32, #32
   82090:	eb0e01ff 	cmp	x15, x14
   82094:	54ffff83 	b.cc	82084 <handle_exception+0xe4>  // b.lo, b.ul, b.last
   82098:	b40003ac 	cbz	x12, 8210c <handle_exception+0x16c>
   8209c:	aa1f03ee 	mov	x14, xzr
   820a0:	b940010f 	ldr	w15, [x8]
   820a4:	320f01ef 	orr	w15, w15, #0x20000
   820a8:	b900010f 	str	w15, [x8]
   820ac:	b940012f 	ldr	w15, [x9]
   820b0:	b9400530 	ldr	w16, [x9, #4]
   820b4:	8b0b01ef 	add	x15, x15, x11
   820b8:	8b1081ef 	add	x15, x15, x16, lsl #32
   820bc:	b9400130 	ldr	w16, [x9]
   820c0:	b9400531 	ldr	w17, [x9, #4]
   820c4:	b3607e30 	bfi	x16, x17, #32, #32
   820c8:	eb0f021f 	cmp	x16, x15
   820cc:	54ffff83 	b.cc	820bc <handle_exception+0x11c>  // b.lo, b.ul, b.last
   820d0:	b9400d0f 	ldr	w15, [x8, #12]
   820d4:	320f01ef 	orr	w15, w15, #0x20000
   820d8:	b9000d0f 	str	w15, [x8, #12]
   820dc:	b940012f 	ldr	w15, [x9]
   820e0:	b9400530 	ldr	w16, [x9, #4]
   820e4:	8b0b01ef 	add	x15, x15, x11
   820e8:	8b1081ef 	add	x15, x15, x16, lsl #32
   820ec:	b9400130 	ldr	w16, [x9]
   820f0:	b9400531 	ldr	w17, [x9, #4]
   820f4:	b3607e30 	bfi	x16, x17, #32, #32
   820f8:	eb0f021f 	cmp	x16, x15
   820fc:	54ffff83 	b.cc	820ec <handle_exception+0x14c>  // b.lo, b.ul, b.last
   82100:	910005ce 	add	x14, x14, #0x1
   82104:	eb0c01df 	cmp	x14, x12
   82108:	54fffcc1 	b.ne	820a0 <handle_exception+0x100>  // b.any
   8210c:	b940012e 	ldr	w14, [x9]
   82110:	b940052f 	ldr	w15, [x9, #4]
   82114:	8b0a01ce 	add	x14, x14, x10
   82118:	8b0f81ce 	add	x14, x14, x15, lsl #32
   8211c:	b940012f 	ldr	w15, [x9]
   82120:	b9400530 	ldr	w16, [x9, #4]
   82124:	b3607e0f 	bfi	x15, x16, #32, #32
   82128:	eb0e01ff 	cmp	x15, x14
   8212c:	54ffff83 	b.cc	8211c <handle_exception+0x17c>  // b.lo, b.ul, b.last
   82130:	2a1f03ee 	mov	w14, wzr
   82134:	b940010f 	ldr	w15, [x8]
   82138:	4b0e03f0 	neg	w16, w14
   8213c:	9ad02470 	lsr	x16, x3, x16
   82140:	360001d0 	tbz	w16, #0, 82178 <handle_exception+0x1d8>
   82144:	320501ef 	orr	w15, w15, #0x8000000
   82148:	b900010f 	str	w15, [x8]
   8214c:	b940012f 	ldr	w15, [x9]
   82150:	b9400530 	ldr	w16, [x9, #4]
   82154:	8b0b01ef 	add	x15, x15, x11
   82158:	8b1081ef 	add	x15, x15, x16, lsl #32
   8215c:	b9400130 	ldr	w16, [x9]
   82160:	b9400531 	ldr	w17, [x9, #4]
   82164:	b3607e30 	bfi	x16, x17, #32, #32
   82168:	eb0f021f 	cmp	x16, x15
   8216c:	54ffff83 	b.cc	8215c <handle_exception+0x1bc>  // b.lo, b.ul, b.last
   82170:	52a1000f 	mov	w15, #0x8000000             	// #134217728
   82174:	1400000d 	b	821a8 <handle_exception+0x208>
   82178:	320a01ef 	orr	w15, w15, #0x400000
   8217c:	b900010f 	str	w15, [x8]
   82180:	b940012f 	ldr	w15, [x9]
   82184:	b9400530 	ldr	w16, [x9, #4]
   82188:	8b0b01ef 	add	x15, x15, x11
   8218c:	8b1081ef 	add	x15, x15, x16, lsl #32
   82190:	b9400130 	ldr	w16, [x9]
   82194:	b9400531 	ldr	w17, [x9, #4]
   82198:	b3607e30 	bfi	x16, x17, #32, #32
   8219c:	eb0f021f 	cmp	x16, x15
   821a0:	54ffff83 	b.cc	82190 <handle_exception+0x1f0>  // b.lo, b.ul, b.last
   821a4:	52a0080f 	mov	w15, #0x400000              	// #4194304
   821a8:	b9400d10 	ldr	w16, [x8, #12]
   821ac:	110005ce 	add	w14, w14, #0x1
   821b0:	2a0f020f 	orr	w15, w16, w15
   821b4:	b9000d0f 	str	w15, [x8, #12]
   821b8:	b940012f 	ldr	w15, [x9]
   821bc:	b9400530 	ldr	w16, [x9, #4]
   821c0:	8b0b01ef 	add	x15, x15, x11
   821c4:	8b1081ef 	add	x15, x15, x16, lsl #32
   821c8:	b9400130 	ldr	w16, [x9]
   821cc:	b9400531 	ldr	w17, [x9, #4]
   821d0:	b3607e30 	bfi	x16, x17, #32, #32
   821d4:	eb0f021f 	cmp	x16, x15
   821d8:	54ffff83 	b.cc	821c8 <handle_exception+0x228>  // b.lo, b.ul, b.last
   821dc:	710101df 	cmp	w14, #0x40
   821e0:	54fffaa1 	b.ne	82134 <handle_exception+0x194>  // b.any
   821e4:	b940012e 	ldr	w14, [x9]
   821e8:	b940052f 	ldr	w15, [x9, #4]
   821ec:	8b0a01ce 	add	x14, x14, x10
   821f0:	8b0f81ce 	add	x14, x14, x15, lsl #32
   821f4:	b940012f 	ldr	w15, [x9]
   821f8:	b9400530 	ldr	w16, [x9, #4]
   821fc:	b3607e0f 	bfi	x15, x16, #32, #32
   82200:	eb0e01ff 	cmp	x15, x14
   82204:	54ffff83 	b.cc	821f4 <handle_exception+0x254>  // b.lo, b.ul, b.last
   82208:	17ffff7f 	b	82004 <handle_exception+0x64>
   8220c:	b940012d 	ldr	w13, [x9]
   82210:	b940052e 	ldr	w14, [x9, #4]
   82214:	8b0a01ad 	add	x13, x13, x10
   82218:	8b0e81ad 	add	x13, x13, x14, lsl #32
   8221c:	b940012e 	ldr	w14, [x9]
   82220:	b940052f 	ldr	w15, [x9, #4]
   82224:	b3607dee 	bfi	x14, x15, #32, #32
   82228:	eb0d01df 	cmp	x14, x13
   8222c:	54ffff83 	b.cc	8221c <handle_exception+0x27c>  // b.lo, b.ul, b.last
   82230:	b40003ac 	cbz	x12, 822a4 <handle_exception+0x304>
   82234:	aa1f03ed 	mov	x13, xzr
   82238:	b940010e 	ldr	w14, [x8]
   8223c:	320f01ce 	orr	w14, w14, #0x20000
   82240:	b900010e 	str	w14, [x8]
   82244:	b940012e 	ldr	w14, [x9]
   82248:	b940052f 	ldr	w15, [x9, #4]
   8224c:	8b0b01ce 	add	x14, x14, x11
   82250:	8b0f81ce 	add	x14, x14, x15, lsl #32
   82254:	b940012f 	ldr	w15, [x9]
   82258:	b9400530 	ldr	w16, [x9, #4]
   8225c:	b3607e0f 	bfi	x15, x16, #32, #32
   82260:	eb0e01ff 	cmp	x15, x14
   82264:	54ffff83 	b.cc	82254 <handle_exception+0x2b4>  // b.lo, b.ul, b.last
   82268:	b9400d0e 	ldr	w14, [x8, #12]
   8226c:	320f01ce 	orr	w14, w14, #0x20000
   82270:	b9000d0e 	str	w14, [x8, #12]
   82274:	b940012e 	ldr	w14, [x9]
   82278:	b940052f 	ldr	w15, [x9, #4]
   8227c:	8b0b01ce 	add	x14, x14, x11
   82280:	8b0f81ce 	add	x14, x14, x15, lsl #32
   82284:	b940012f 	ldr	w15, [x9]
   82288:	b9400530 	ldr	w16, [x9, #4]
   8228c:	b3607e0f 	bfi	x15, x16, #32, #32
   82290:	eb0e01ff 	cmp	x15, x14
   82294:	54ffff83 	b.cc	82284 <handle_exception+0x2e4>  // b.lo, b.ul, b.last
   82298:	910005ad 	add	x13, x13, #0x1
   8229c:	eb0c01bf 	cmp	x13, x12
   822a0:	54fffcc1 	b.ne	82238 <handle_exception+0x298>  // b.any
   822a4:	b940012d 	ldr	w13, [x9]
   822a8:	b940052e 	ldr	w14, [x9, #4]
   822ac:	8b0a01ad 	add	x13, x13, x10
   822b0:	8b0e81ad 	add	x13, x13, x14, lsl #32
   822b4:	b940012e 	ldr	w14, [x9]
   822b8:	b940052f 	ldr	w15, [x9, #4]
   822bc:	b3607dee 	bfi	x14, x15, #32, #32
   822c0:	eb0d01df 	cmp	x14, x13
   822c4:	54ffff83 	b.cc	822b4 <handle_exception+0x314>  // b.lo, b.ul, b.last
   822c8:	2a1f03ed 	mov	w13, wzr
   822cc:	b940010e 	ldr	w14, [x8]
   822d0:	4b0d03ef 	neg	w15, w13
   822d4:	9acf246f 	lsr	x15, x3, x15
   822d8:	360001cf 	tbz	w15, #0, 82310 <handle_exception+0x370>
   822dc:	320501ce 	orr	w14, w14, #0x8000000
   822e0:	b900010e 	str	w14, [x8]
   822e4:	b940012e 	ldr	w14, [x9]
   822e8:	b940052f 	ldr	w15, [x9, #4]
   822ec:	8b0b01ce 	add	x14, x14, x11
   822f0:	8b0f81ce 	add	x14, x14, x15, lsl #32
   822f4:	b940012f 	ldr	w15, [x9]
   822f8:	b9400530 	ldr	w16, [x9, #4]
   822fc:	b3607e0f 	bfi	x15, x16, #32, #32
   82300:	eb0e01ff 	cmp	x15, x14
   82304:	54ffff83 	b.cc	822f4 <handle_exception+0x354>  // b.lo, b.ul, b.last
   82308:	52a1000e 	mov	w14, #0x8000000             	// #134217728
   8230c:	1400000d 	b	82340 <handle_exception+0x3a0>
   82310:	320a01ce 	orr	w14, w14, #0x400000
   82314:	b900010e 	str	w14, [x8]
   82318:	b940012e 	ldr	w14, [x9]
   8231c:	b940052f 	ldr	w15, [x9, #4]
   82320:	8b0b01ce 	add	x14, x14, x11
   82324:	8b0f81ce 	add	x14, x14, x15, lsl #32
   82328:	b940012f 	ldr	w15, [x9]
   8232c:	b9400530 	ldr	w16, [x9, #4]
   82330:	b3607e0f 	bfi	x15, x16, #32, #32
   82334:	eb0e01ff 	cmp	x15, x14
   82338:	54ffff83 	b.cc	82328 <handle_exception+0x388>  // b.lo, b.ul, b.last
   8233c:	52a0080e 	mov	w14, #0x400000              	// #4194304
   82340:	b9400d0f 	ldr	w15, [x8, #12]
   82344:	110005ad 	add	w13, w13, #0x1
   82348:	2a0e01ee 	orr	w14, w15, w14
   8234c:	b9000d0e 	str	w14, [x8, #12]
   82350:	b940012e 	ldr	w14, [x9]
   82354:	b940052f 	ldr	w15, [x9, #4]
   82358:	8b0b01ce 	add	x14, x14, x11
   8235c:	8b0f81ce 	add	x14, x14, x15, lsl #32
   82360:	b940012f 	ldr	w15, [x9]
   82364:	b9400530 	ldr	w16, [x9, #4]
   82368:	b3607e0f 	bfi	x15, x16, #32, #32
   8236c:	eb0e01ff 	cmp	x15, x14
   82370:	54ffff83 	b.cc	82360 <handle_exception+0x3c0>  // b.lo, b.ul, b.last
   82374:	710101bf 	cmp	w13, #0x40
   82378:	54fffaa1 	b.ne	822cc <handle_exception+0x32c>  // b.any
   8237c:	b940012d 	ldr	w13, [x9]
   82380:	b940052e 	ldr	w14, [x9, #4]
   82384:	8b0a01ad 	add	x13, x13, x10
   82388:	8b0e81ad 	add	x13, x13, x14, lsl #32
   8238c:	b940012e 	ldr	w14, [x9]
   82390:	b940052f 	ldr	w15, [x9, #4]
   82394:	b3607dee 	bfi	x14, x15, #32, #32
   82398:	eb0d01df 	cmp	x14, x13
   8239c:	54ffff83 	b.cc	8238c <handle_exception+0x3ec>  // b.lo, b.ul, b.last
   823a0:	17ffff9b 	b	8220c <handle_exception+0x26c>

00000000000823a4 <rust_begin_unwind>:
   823a4:	d10443ff 	sub	sp, sp, #0x110
   823a8:	f0000008 	adrp	x8, 85000 <memcpy+0x14>
   823ac:	3dc0d100 	ldr	q0, [x8, #832]
   823b0:	910003e8 	mov	x8, sp
   823b4:	a9104ff4 	stp	x20, x19, [sp, #256]
   823b8:	aa0003f3 	mov	x19, x0
   823bc:	52800114 	mov	w20, #0x8                   	// #8
   823c0:	f9000be8 	str	x8, [sp, #16]
   823c4:	910063e8 	add	x8, sp, #0x18
   823c8:	910043e0 	add	x0, sp, #0x10
   823cc:	910003e1 	mov	x1, sp
   823d0:	f90073fd 	str	x29, [sp, #224]
   823d4:	a90f57fe 	stp	x30, x21, [sp, #240]
   823d8:	72a00414 	movk	w20, #0x20, lsl #16
   823dc:	3d8003e0 	str	q0, [sp]
   823e0:	97fffb6f 	bl	8119c <_ZN8graph_os8platform6raspi34uart14UARTController4init17hc6243bd3960c6e87E>
   823e4:	f9400be8 	ldr	x8, [sp, #16]
   823e8:	d100128a 	sub	x10, x20, #0x4
   823ec:	f9400509 	ldr	x9, [x8, #8]
   823f0:	eb0a013f 	cmp	x9, x10
   823f4:	54002be3 	b.cc	82970 <rust_begin_unwind+0x5cc>  // b.lo, b.ul, b.last
   823f8:	f9400109 	ldr	x9, [x8]
   823fc:	8b09028a 	add	x10, x20, x9
   82400:	b85fc14b 	ldur	w11, [x10, #-4]
   82404:	12a1bc09 	mov	w9, #0xf21fffff            	// #-232783873
   82408:	0a09016b 	and	w11, w11, w9
   8240c:	320b016b 	orr	w11, w11, #0x200000
   82410:	b81fc14b 	stur	w11, [x10, #-4]
   82414:	f940050a 	ldr	x10, [x8, #8]
   82418:	eb14015f 	cmp	x10, x20
   8241c:	54002aa3 	b.cc	82970 <rust_begin_unwind+0x5cc>  // b.lo, b.ul, b.last
   82420:	f940010a 	ldr	x10, [x8]
   82424:	b874694b 	ldr	w11, [x10, x20]
   82428:	0a090169 	and	w9, w11, w9
   8242c:	320b0129 	orr	w9, w9, #0x200000
   82430:	b8346949 	str	w9, [x10, x20]
   82434:	f9400509 	ldr	x9, [x8, #8]
   82438:	eb14013f 	cmp	x9, x20
   8243c:	540029a3 	b.cc	82970 <rust_begin_unwind+0x5cc>  // b.lo, b.ul, b.last
   82440:	f9400108 	ldr	x8, [x8]
   82444:	1283780a 	mov	w10, #0xffffe43f            	// #-7105
   82448:	b8746909 	ldr	w9, [x8, x20]
   8244c:	0a0a0129 	and	w9, w9, w10
   82450:	321a0129 	orr	w9, w9, #0x40
   82454:	b8346909 	str	w9, [x8, x20]
   82458:	f9400be9 	ldr	x9, [sp, #16]
   8245c:	91008288 	add	x8, x20, #0x20
   82460:	f940052a 	ldr	x10, [x9, #8]
   82464:	eb08015f 	cmp	x10, x8
   82468:	54002843 	b.cc	82970 <rust_begin_unwind+0x5cc>  // b.lo, b.ul, b.last
   8246c:	f9400129 	ldr	x9, [x9]
   82470:	b868692a 	ldr	w10, [x9, x8]
   82474:	3205014a 	orr	w10, w10, #0x8000000
   82478:	b828692a 	str	w10, [x9, x8]
   8247c:	f9400be9 	ldr	x9, [sp, #16]
   82480:	f940052a 	ldr	x10, [x9, #8]
   82484:	eb08015f 	cmp	x10, x8
   82488:	54002743 	b.cc	82970 <rust_begin_unwind+0x5cc>  // b.lo, b.ul, b.last
   8248c:	f9400128 	ldr	x8, [x9]
   82490:	9100528a 	add	x10, x20, #0x14
   82494:	8b080288 	add	x8, x20, x8
   82498:	b9402109 	ldr	w9, [x8, #32]
   8249c:	320a0129 	orr	w9, w9, #0x400000
   824a0:	b9002109 	str	w9, [x8, #32]
   824a4:	f9400be8 	ldr	x8, [sp, #16]
   824a8:	f9400509 	ldr	x9, [x8, #8]
   824ac:	eb0a013f 	cmp	x9, x10
   824b0:	54002603 	b.cc	82970 <rust_begin_unwind+0x5cc>  // b.lo, b.ul, b.last
   824b4:	f9400108 	ldr	x8, [x8]
   824b8:	8b080288 	add	x8, x20, x8
   824bc:	b9401509 	ldr	w9, [x8, #20]
   824c0:	320f0129 	orr	w9, w9, #0x20000
   824c4:	b9001509 	str	w9, [x8, #20]
   824c8:	f94017e8 	ldr	x8, [sp, #40]
   824cc:	3940c3e9 	ldrb	w9, [sp, #48]
   824d0:	91000508 	add	x8, x8, #0x1
   824d4:	7100053f 	cmp	w9, #0x1
   824d8:	f90017e8 	str	x8, [sp, #40]
   824dc:	540003e1 	b.ne	82558 <rust_begin_unwind+0x1b4>  // b.any
   824e0:	f90077e8 	str	x8, [sp, #232]
   824e4:	d538424a 	mrs	x10, currentel
   824e8:	b0000009 	adrp	x9, 83000 <_ZN4core3fmt8builders11DebugStruct5field17h9e0dae53a1c9bd69E+0x118>
   824ec:	d3420d4a 	ubfx	x10, x10, #2, #2
   824f0:	9103a3e8 	add	x8, sp, #0xe8
   824f4:	91328129 	add	x9, x9, #0xca0
   824f8:	f9002fea 	str	x10, [sp, #88]
   824fc:	d53800aa 	mrs	x10, mpidr_el1
   82500:	a90727e8 	stp	x8, x9, [sp, #112]
   82504:	f0000008 	adrp	x8, 85000 <memcpy+0x14>
   82508:	911a2108 	add	x8, x8, #0x688
   8250c:	52800089 	mov	w9, #0x4                   	// #4
   82510:	b000000c 	adrp	x12, 83000 <_ZN4core3fmt8builders11DebugStruct5field17h9e0dae53a1c9bd69E+0x118>
   82514:	a90b27e8 	stp	x8, x9, [sp, #176]
   82518:	92401d49 	and	x9, x10, #0xff
   8251c:	f0000001 	adrp	x1, 85000 <memcpy+0x14>
   82520:	910163eb 	add	x11, sp, #0x58
   82524:	9132818c 	add	x12, x12, #0xca0
   82528:	9100e3ed 	add	x13, sp, #0x38
   8252c:	9101c3e8 	add	x8, sp, #0x70
   82530:	f9001fe9 	str	x9, [sp, #56]
   82534:	52800069 	mov	w9, #0x3                   	// #3
   82538:	91194021 	add	x1, x1, #0x650
   8253c:	910063e0 	add	x0, sp, #0x18
   82540:	9102c3e2 	add	x2, sp, #0xb0
   82544:	a90833eb 	stp	x11, x12, [sp, #128]
   82548:	a90933ed 	stp	x13, x12, [sp, #144]
   8254c:	a90c7fff 	stp	xzr, xzr, [sp, #192]
   82550:	a90d27e8 	stp	x8, x9, [sp, #208]
   82554:	9400074b 	bl	84280 <_ZN4core3fmt5write17hb5f6a3bd29bb9808E>
   82558:	f94013e0 	ldr	x0, [sp, #32]
   8255c:	f0000001 	adrp	x1, 85000 <memcpy+0x14>
   82560:	911ca021 	add	x1, x1, #0x728
   82564:	aa1f03e2 	mov	x2, xzr
   82568:	97fffb9b 	bl	813d4 <_ZN8graph_os8platform6raspi34uart14UARTController5write17h14e13fbd0204fec3E.llvm.16487754560651466094>
   8256c:	910063e0 	add	x0, sp, #0x18
   82570:	97fffb73 	bl	8133c <_ZN8graph_os8platform6raspi34uart14UARTController7newline17h3bac0dbadd4d9f97E>
   82574:	f94017e8 	ldr	x8, [sp, #40]
   82578:	3940c3e9 	ldrb	w9, [sp, #48]
   8257c:	91000508 	add	x8, x8, #0x1
   82580:	7100053f 	cmp	w9, #0x1
   82584:	f90017e8 	str	x8, [sp, #40]
   82588:	540003e1 	b.ne	82604 <rust_begin_unwind+0x260>  // b.any
   8258c:	f90077e8 	str	x8, [sp, #232]
   82590:	d538424a 	mrs	x10, currentel
   82594:	b0000009 	adrp	x9, 83000 <_ZN4core3fmt8builders11DebugStruct5field17h9e0dae53a1c9bd69E+0x118>
   82598:	d3420d4a 	ubfx	x10, x10, #2, #2
   8259c:	9103a3e8 	add	x8, sp, #0xe8
   825a0:	91328129 	add	x9, x9, #0xca0
   825a4:	f9002fea 	str	x10, [sp, #88]
   825a8:	d53800aa 	mrs	x10, mpidr_el1
   825ac:	a90727e8 	stp	x8, x9, [sp, #112]
   825b0:	f0000008 	adrp	x8, 85000 <memcpy+0x14>
   825b4:	911a2108 	add	x8, x8, #0x688
   825b8:	52800089 	mov	w9, #0x4                   	// #4
   825bc:	b000000c 	adrp	x12, 83000 <_ZN4core3fmt8builders11DebugStruct5field17h9e0dae53a1c9bd69E+0x118>
   825c0:	a90b27e8 	stp	x8, x9, [sp, #176]
   825c4:	92401d49 	and	x9, x10, #0xff
   825c8:	f0000001 	adrp	x1, 85000 <memcpy+0x14>
   825cc:	910163eb 	add	x11, sp, #0x58
   825d0:	9132818c 	add	x12, x12, #0xca0
   825d4:	9100e3ed 	add	x13, sp, #0x38
   825d8:	9101c3e8 	add	x8, sp, #0x70
   825dc:	f9001fe9 	str	x9, [sp, #56]
   825e0:	52800069 	mov	w9, #0x3                   	// #3
   825e4:	91194021 	add	x1, x1, #0x650
   825e8:	910063e0 	add	x0, sp, #0x18
   825ec:	9102c3e2 	add	x2, sp, #0xb0
   825f0:	a90833eb 	stp	x11, x12, [sp, #128]
   825f4:	a90933ed 	stp	x13, x12, [sp, #144]
   825f8:	a90c7fff 	stp	xzr, xzr, [sp, #192]
   825fc:	a90d27e8 	stp	x8, x9, [sp, #208]
   82600:	94000720 	bl	84280 <_ZN4core3fmt5write17hb5f6a3bd29bb9808E>
   82604:	f94013e0 	ldr	x0, [sp, #32]
   82608:	f0000001 	adrp	x1, 85000 <memcpy+0x14>
   8260c:	911ca021 	add	x1, x1, #0x728
   82610:	52800382 	mov	w2, #0x1c                  	// #28
   82614:	97fffb70 	bl	813d4 <_ZN8graph_os8platform6raspi34uart14UARTController5write17h14e13fbd0204fec3E.llvm.16487754560651466094>
   82618:	910063e0 	add	x0, sp, #0x18
   8261c:	97fffb48 	bl	8133c <_ZN8graph_os8platform6raspi34uart14UARTController7newline17h3bac0dbadd4d9f97E>
   82620:	aa1303e0 	mov	x0, x19
   82624:	940003b0 	bl	834e4 <_ZN4core5panic9PanicInfo7message17ha3e34dc3062522eeE>
   82628:	b4000c20 	cbz	x0, 827ac <rust_begin_unwind+0x408>
   8262c:	f9400409 	ldr	x9, [x0, #8]
   82630:	f9401408 	ldr	x8, [x0, #40]
   82634:	f100053f 	cmp	x9, #0x1
   82638:	540000e0 	b.eq	82654 <rust_begin_unwind+0x2b0>  // b.none
   8263c:	b50000e9 	cbnz	x9, 82658 <rust_begin_unwind+0x2b4>
   82640:	b50000c8 	cbnz	x8, 82658 <rust_begin_unwind+0x2b4>
   82644:	f0000015 	adrp	x21, 85000 <memcpy+0x14>
   82648:	aa1f03f4 	mov	x20, xzr
   8264c:	911ca2b5 	add	x21, x21, #0x728
   82650:	1400002d 	b	82704 <rust_begin_unwind+0x360>
   82654:	b4000548 	cbz	x8, 826fc <rust_begin_unwind+0x358>
   82658:	f94017e8 	ldr	x8, [sp, #40]
   8265c:	3940c3e9 	ldrb	w9, [sp, #48]
   82660:	91000508 	add	x8, x8, #0x1
   82664:	7100053f 	cmp	w9, #0x1
   82668:	f90017e8 	str	x8, [sp, #40]
   8266c:	540003e1 	b.ne	826e8 <rust_begin_unwind+0x344>  // b.any
   82670:	f90077e8 	str	x8, [sp, #232]
   82674:	d538424a 	mrs	x10, currentel
   82678:	b0000009 	adrp	x9, 83000 <_ZN4core3fmt8builders11DebugStruct5field17h9e0dae53a1c9bd69E+0x118>
   8267c:	d3420d4a 	ubfx	x10, x10, #2, #2
   82680:	9103a3e8 	add	x8, sp, #0xe8
   82684:	91328129 	add	x9, x9, #0xca0
   82688:	f9002fea 	str	x10, [sp, #88]
   8268c:	d53800aa 	mrs	x10, mpidr_el1
   82690:	a90727e8 	stp	x8, x9, [sp, #112]
   82694:	f0000008 	adrp	x8, 85000 <memcpy+0x14>
   82698:	911a2108 	add	x8, x8, #0x688
   8269c:	52800089 	mov	w9, #0x4                   	// #4
   826a0:	b000000c 	adrp	x12, 83000 <_ZN4core3fmt8builders11DebugStruct5field17h9e0dae53a1c9bd69E+0x118>
   826a4:	a90b27e8 	stp	x8, x9, [sp, #176]
   826a8:	92401d49 	and	x9, x10, #0xff
   826ac:	f0000001 	adrp	x1, 85000 <memcpy+0x14>
   826b0:	910163eb 	add	x11, sp, #0x58
   826b4:	9132818c 	add	x12, x12, #0xca0
   826b8:	9100e3ed 	add	x13, sp, #0x38
   826bc:	9101c3e8 	add	x8, sp, #0x70
   826c0:	f9001fe9 	str	x9, [sp, #56]
   826c4:	52800069 	mov	w9, #0x3                   	// #3
   826c8:	91194021 	add	x1, x1, #0x650
   826cc:	910063e0 	add	x0, sp, #0x18
   826d0:	9102c3e2 	add	x2, sp, #0xb0
   826d4:	a90833eb 	stp	x11, x12, [sp, #128]
   826d8:	a90933ed 	stp	x13, x12, [sp, #144]
   826dc:	a90c7fff 	stp	xzr, xzr, [sp, #192]
   826e0:	a90d27e8 	stp	x8, x9, [sp, #208]
   826e4:	940006e7 	bl	84280 <_ZN4core3fmt5write17hb5f6a3bd29bb9808E>
   826e8:	f94013e0 	ldr	x0, [sp, #32]
   826ec:	f0000001 	adrp	x1, 85000 <memcpy+0x14>
   826f0:	911d1021 	add	x1, x1, #0x744
   826f4:	52800262 	mov	w2, #0x13                  	// #19
   826f8:	1400002a 	b	827a0 <rust_begin_unwind+0x3fc>
   826fc:	f9400008 	ldr	x8, [x0]
   82700:	a9405115 	ldp	x21, x20, [x8]
   82704:	f94017e8 	ldr	x8, [sp, #40]
   82708:	3940c3e9 	ldrb	w9, [sp, #48]
   8270c:	91000508 	add	x8, x8, #0x1
   82710:	7100053f 	cmp	w9, #0x1
   82714:	f90017e8 	str	x8, [sp, #40]
   82718:	540003e1 	b.ne	82794 <rust_begin_unwind+0x3f0>  // b.any
   8271c:	f90077e8 	str	x8, [sp, #232]
   82720:	d538424a 	mrs	x10, currentel
   82724:	b0000009 	adrp	x9, 83000 <_ZN4core3fmt8builders11DebugStruct5field17h9e0dae53a1c9bd69E+0x118>
   82728:	d3420d4a 	ubfx	x10, x10, #2, #2
   8272c:	9103a3e8 	add	x8, sp, #0xe8
   82730:	91328129 	add	x9, x9, #0xca0
   82734:	f9002fea 	str	x10, [sp, #88]
   82738:	d53800aa 	mrs	x10, mpidr_el1
   8273c:	a90727e8 	stp	x8, x9, [sp, #112]
   82740:	f0000008 	adrp	x8, 85000 <memcpy+0x14>
   82744:	911a2108 	add	x8, x8, #0x688
   82748:	52800089 	mov	w9, #0x4                   	// #4
   8274c:	b000000c 	adrp	x12, 83000 <_ZN4core3fmt8builders11DebugStruct5field17h9e0dae53a1c9bd69E+0x118>
   82750:	a90b27e8 	stp	x8, x9, [sp, #176]
   82754:	92401d49 	and	x9, x10, #0xff
   82758:	f0000001 	adrp	x1, 85000 <memcpy+0x14>
   8275c:	910163eb 	add	x11, sp, #0x58
   82760:	9132818c 	add	x12, x12, #0xca0
   82764:	9100e3ed 	add	x13, sp, #0x38
   82768:	9101c3e8 	add	x8, sp, #0x70
   8276c:	f9001fe9 	str	x9, [sp, #56]
   82770:	52800069 	mov	w9, #0x3                   	// #3
   82774:	91194021 	add	x1, x1, #0x650
   82778:	910063e0 	add	x0, sp, #0x18
   8277c:	9102c3e2 	add	x2, sp, #0xb0
   82780:	a90833eb 	stp	x11, x12, [sp, #128]
   82784:	a90933ed 	stp	x13, x12, [sp, #144]
   82788:	a90c7fff 	stp	xzr, xzr, [sp, #192]
   8278c:	a90d27e8 	stp	x8, x9, [sp, #208]
   82790:	940006bc 	bl	84280 <_ZN4core3fmt5write17hb5f6a3bd29bb9808E>
   82794:	f94013e0 	ldr	x0, [sp, #32]
   82798:	aa1503e1 	mov	x1, x21
   8279c:	aa1403e2 	mov	x2, x20
   827a0:	97fffb0d 	bl	813d4 <_ZN8graph_os8platform6raspi34uart14UARTController5write17h14e13fbd0204fec3E.llvm.16487754560651466094>
   827a4:	910063e0 	add	x0, sp, #0x18
   827a8:	97fffae5 	bl	8133c <_ZN8graph_os8platform6raspi34uart14UARTController7newline17h3bac0dbadd4d9f97E>
   827ac:	aa1303e0 	mov	x0, x19
   827b0:	9400034f 	bl	834ec <_ZN4core5panic9PanicInfo8location17hf5c21144beeed54cE>
   827b4:	b40006a0 	cbz	x0, 82888 <rust_begin_unwind+0x4e4>
   827b8:	aa0003f3 	mov	x19, x0
   827bc:	9400034e 	bl	834f4 <_ZN4core5panic8Location4file17h237dd86184e47232E>
   827c0:	a90587e0 	stp	x0, x1, [sp, #88]
   827c4:	aa1303e0 	mov	x0, x19
   827c8:	9400034e 	bl	83500 <_ZN4core5panic8Location4line17h9bf8d130953fcd1cE>
   827cc:	f94017ec 	ldr	x12, [sp, #40]
   827d0:	3940c3ed 	ldrb	w13, [sp, #48]
   827d4:	90000009 	adrp	x9, 82000 <handle_exception+0x60>
   827d8:	910163e8 	add	x8, sp, #0x58
   827dc:	9127c129 	add	x9, x9, #0x9f0
   827e0:	b000000b 	adrp	x11, 83000 <_ZN4core3fmt8builders11DebugStruct5field17h9e0dae53a1c9bd69E+0x118>
   827e4:	9101b3ea 	add	x10, sp, #0x6c
   827e8:	912ca16b 	add	x11, x11, #0xb28
   827ec:	a903a7e8 	stp	x8, x9, [sp, #56]
   827f0:	91000588 	add	x8, x12, #0x1
   827f4:	710005bf 	cmp	w13, #0x1
   827f8:	b9006fe0 	str	w0, [sp, #108]
   827fc:	a904afea 	stp	x10, x11, [sp, #72]
   82800:	f90017e8 	str	x8, [sp, #40]
   82804:	54000961 	b.ne	82930 <rust_begin_unwind+0x58c>  // b.any
   82808:	f90053e8 	str	x8, [sp, #160]
   8280c:	d538424b 	mrs	x11, currentel
   82810:	b0000009 	adrp	x9, 83000 <_ZN4core3fmt8builders11DebugStruct5field17h9e0dae53a1c9bd69E+0x118>
   82814:	d3420d6b 	ubfx	x11, x11, #2, #2
   82818:	910283e8 	add	x8, sp, #0xa0
   8281c:	91328129 	add	x9, x9, #0xca0
   82820:	f90057eb 	str	x11, [sp, #168]
   82824:	d53800ab 	mrs	x11, mpidr_el1
   82828:	a90727e8 	stp	x8, x9, [sp, #112]
   8282c:	f0000008 	adrp	x8, 85000 <memcpy+0x14>
   82830:	911a2108 	add	x8, x8, #0x688
   82834:	52800089 	mov	w9, #0x4                   	// #4
   82838:	b000000c 	adrp	x12, 83000 <_ZN4core3fmt8builders11DebugStruct5field17h9e0dae53a1c9bd69E+0x118>
   8283c:	a90b27e8 	stp	x8, x9, [sp, #176]
   82840:	92401d69 	and	x9, x11, #0xff
   82844:	f0000001 	adrp	x1, 85000 <memcpy+0x14>
   82848:	9102a3ea 	add	x10, sp, #0xa8
   8284c:	9132818c 	add	x12, x12, #0xca0
   82850:	9103a3ed 	add	x13, sp, #0xe8
   82854:	9101c3e8 	add	x8, sp, #0x70
   82858:	f90077e9 	str	x9, [sp, #232]
   8285c:	52800069 	mov	w9, #0x3                   	// #3
   82860:	91194021 	add	x1, x1, #0x650
   82864:	910063e0 	add	x0, sp, #0x18
   82868:	9102c3e2 	add	x2, sp, #0xb0
   8286c:	910063f3 	add	x19, sp, #0x18
   82870:	a90833ea 	stp	x10, x12, [sp, #128]
   82874:	a90933ed 	stp	x13, x12, [sp, #144]
   82878:	a90c7fff 	stp	xzr, xzr, [sp, #192]
   8287c:	a90d27e8 	stp	x8, x9, [sp, #208]
   82880:	94000680 	bl	84280 <_ZN4core3fmt5write17hb5f6a3bd29bb9808E>
   82884:	1400002c 	b	82934 <rust_begin_unwind+0x590>
   82888:	f94017e8 	ldr	x8, [sp, #40]
   8288c:	3940c3e9 	ldrb	w9, [sp, #48]
   82890:	91000508 	add	x8, x8, #0x1
   82894:	7100053f 	cmp	w9, #0x1
   82898:	f90017e8 	str	x8, [sp, #40]
   8289c:	540003e1 	b.ne	82918 <rust_begin_unwind+0x574>  // b.any
   828a0:	f90077e8 	str	x8, [sp, #232]
   828a4:	d538424a 	mrs	x10, currentel
   828a8:	b0000009 	adrp	x9, 83000 <_ZN4core3fmt8builders11DebugStruct5field17h9e0dae53a1c9bd69E+0x118>
   828ac:	d3420d4a 	ubfx	x10, x10, #2, #2
   828b0:	9103a3e8 	add	x8, sp, #0xe8
   828b4:	91328129 	add	x9, x9, #0xca0
   828b8:	f9002fea 	str	x10, [sp, #88]
   828bc:	d53800aa 	mrs	x10, mpidr_el1
   828c0:	a90727e8 	stp	x8, x9, [sp, #112]
   828c4:	f0000008 	adrp	x8, 85000 <memcpy+0x14>
   828c8:	911a2108 	add	x8, x8, #0x688
   828cc:	52800089 	mov	w9, #0x4                   	// #4
   828d0:	b000000c 	adrp	x12, 83000 <_ZN4core3fmt8builders11DebugStruct5field17h9e0dae53a1c9bd69E+0x118>
   828d4:	a90b27e8 	stp	x8, x9, [sp, #176]
   828d8:	92401d49 	and	x9, x10, #0xff
   828dc:	f0000001 	adrp	x1, 85000 <memcpy+0x14>
   828e0:	910163eb 	add	x11, sp, #0x58
   828e4:	9132818c 	add	x12, x12, #0xca0
   828e8:	9100e3ed 	add	x13, sp, #0x38
   828ec:	9101c3e8 	add	x8, sp, #0x70
   828f0:	f9001fe9 	str	x9, [sp, #56]
   828f4:	52800069 	mov	w9, #0x3                   	// #3
   828f8:	91194021 	add	x1, x1, #0x650
   828fc:	910063e0 	add	x0, sp, #0x18
   82900:	9102c3e2 	add	x2, sp, #0xb0
   82904:	a90833eb 	stp	x11, x12, [sp, #128]
   82908:	a90933ed 	stp	x13, x12, [sp, #144]
   8290c:	a90c7fff 	stp	xzr, xzr, [sp, #192]
   82910:	a90d27e8 	stp	x8, x9, [sp, #208]
   82914:	9400065b 	bl	84280 <_ZN4core3fmt5write17hb5f6a3bd29bb9808E>
   82918:	f94013e0 	ldr	x0, [sp, #32]
   8291c:	f0000001 	adrp	x1, 85000 <memcpy+0x14>
   82920:	911d5c21 	add	x1, x1, #0x757
   82924:	52800222 	mov	w2, #0x11                  	// #17
   82928:	97fffaab 	bl	813d4 <_ZN8graph_os8platform6raspi34uart14UARTController5write17h14e13fbd0204fec3E.llvm.16487754560651466094>
   8292c:	1400000e 	b	82964 <rust_begin_unwind+0x5c0>
   82930:	910063f3 	add	x19, sp, #0x18
   82934:	f0000008 	adrp	x8, 85000 <memcpy+0x14>
   82938:	f0000001 	adrp	x1, 85000 <memcpy+0x14>
   8293c:	911dc108 	add	x8, x8, #0x770
   82940:	52800049 	mov	w9, #0x2                   	// #2
   82944:	9100e3ea 	add	x10, sp, #0x38
   82948:	91194021 	add	x1, x1, #0x650
   8294c:	9102c3e2 	add	x2, sp, #0xb0
   82950:	aa1303e0 	mov	x0, x19
   82954:	a90c7fff 	stp	xzr, xzr, [sp, #192]
   82958:	a90b27e8 	stp	x8, x9, [sp, #176]
   8295c:	a90d27ea 	stp	x10, x9, [sp, #208]
   82960:	94000648 	bl	84280 <_ZN4core3fmt5write17hb5f6a3bd29bb9808E>
   82964:	910063e0 	add	x0, sp, #0x18
   82968:	97fffa75 	bl	8133c <_ZN8graph_os8platform6raspi34uart14UARTController7newline17h3bac0dbadd4d9f97E>
   8296c:	14000000 	b	8296c <rust_begin_unwind+0x5c8>
   82970:	f0000000 	adrp	x0, 85000 <memcpy+0x14>
   82974:	f0000002 	adrp	x2, 85000 <memcpy+0x14>
   82978:	91178000 	add	x0, x0, #0x5e0
   8297c:	91182042 	add	x2, x2, #0x608
   82980:	528004a1 	mov	w1, #0x25                  	// #37
   82984:	94000275 	bl	83358 <_ZN4core9panicking5panic17h44d2e7d60b187585E>
   82988:	d4200020 	brk	#0x1

000000000008298c <_ZN42_$LT$$RF$T$u20$as$u20$core..fmt..Debug$GT$3fmt17hbe18cf0b1a206cf5E>:
   8298c:	f81e0ffe 	str	x30, [sp, #-32]!
   82990:	a9014ff4 	stp	x20, x19, [sp, #16]
   82994:	f9400014 	ldr	x20, [x0]
   82998:	aa0103e0 	mov	x0, x1
   8299c:	aa0103f3 	mov	x19, x1
   829a0:	940008b6 	bl	84c78 <_ZN4core3fmt9Formatter15debug_lower_hex17he895c92ce3e1e3eeE>
   829a4:	360000c0 	tbz	w0, #0, 829bc <_ZN42_$LT$$RF$T$u20$as$u20$core..fmt..Debug$GT$3fmt17hbe18cf0b1a206cf5E+0x30>
   829a8:	aa1403e0 	mov	x0, x20
   829ac:	aa1303e1 	mov	x1, x19
   829b0:	a9414ff4 	ldp	x20, x19, [sp, #16]
   829b4:	f84207fe 	ldr	x30, [sp], #32
   829b8:	14000013 	b	82a04 <_ZN4core3fmt3num53_$LT$impl$u20$core..fmt..LowerHex$u20$for$u20$i32$GT$3fmt17h05a74205f36ced35E>
   829bc:	aa1303e0 	mov	x0, x19
   829c0:	940008b1 	bl	84c84 <_ZN4core3fmt9Formatter15debug_upper_hex17h9a3cde1d80970c0eE>
   829c4:	360000c0 	tbz	w0, #0, 829dc <_ZN42_$LT$$RF$T$u20$as$u20$core..fmt..Debug$GT$3fmt17hbe18cf0b1a206cf5E+0x50>
   829c8:	aa1403e0 	mov	x0, x20
   829cc:	aa1303e1 	mov	x1, x19
   829d0:	a9414ff4 	ldp	x20, x19, [sp, #16]
   829d4:	f84207fe 	ldr	x30, [sp], #32
   829d8:	14000032 	b	82aa0 <_ZN4core3fmt3num53_$LT$impl$u20$core..fmt..UpperHex$u20$for$u20$i32$GT$3fmt17haeba2713e0d468adE>
   829dc:	aa1403e0 	mov	x0, x20
   829e0:	aa1303e1 	mov	x1, x19
   829e4:	a9414ff4 	ldp	x20, x19, [sp, #16]
   829e8:	f84207fe 	ldr	x30, [sp], #32
   829ec:	1400044f 	b	83b28 <_ZN4core3fmt3num3imp52_$LT$impl$u20$core..fmt..Display$u20$for$u20$u32$GT$3fmt17hec05b80591ab5f4eE>

00000000000829f0 <_ZN44_$LT$$RF$T$u20$as$u20$core..fmt..Display$GT$3fmt17h36732e8673239d4fE>:
   829f0:	a9402408 	ldp	x8, x9, [x0]
   829f4:	aa0103e2 	mov	x2, x1
   829f8:	aa0803e0 	mov	x0, x8
   829fc:	aa0903e1 	mov	x1, x9
   82a00:	140008ae 	b	84cb8 <_ZN42_$LT$str$u20$as$u20$core..fmt..Display$GT$3fmt17h5f2a536c1cace94aE>

0000000000082a04 <_ZN4core3fmt3num53_$LT$impl$u20$core..fmt..LowerHex$u20$for$u20$i32$GT$3fmt17h05a74205f36ced35E>:
   82a04:	d10243ff 	sub	sp, sp, #0x90
   82a08:	b940000b 	ldr	w11, [x0]
   82a0c:	aa0103e8 	mov	x8, x1
   82a10:	aa1f03e9 	mov	x9, xzr
   82a14:	910003ea 	mov	x10, sp
   82a18:	f90043fe 	str	x30, [sp, #128]
   82a1c:	12000d6e 	and	w14, w11, #0xf
   82a20:	5280060f 	mov	w15, #0x30                  	// #48
   82a24:	53047d6d 	lsr	w13, w11, #4
   82a28:	33000d6f 	bfxil	w15, w11, #0, #4
   82a2c:	11015dcb 	add	w11, w14, #0x57
   82a30:	710029df 	cmp	w14, #0xa
   82a34:	8b09014c 	add	x12, x10, x9
   82a38:	1a8b31eb 	csel	w11, w15, w11, cc  // cc = lo, ul, last
   82a3c:	3901fd8b 	strb	w11, [x12, #127]
   82a40:	d1000529 	sub	x9, x9, #0x1
   82a44:	2a0d03eb 	mov	w11, w13
   82a48:	35fffead 	cbnz	w13, 82a1c <_ZN4core3fmt3num53_$LT$impl$u20$core..fmt..LowerHex$u20$for$u20$i32$GT$3fmt17h05a74205f36ced35E+0x18>
   82a4c:	91020120 	add	x0, x9, #0x80
   82a50:	f102041f 	cmp	x0, #0x81
   82a54:	540001c2 	b.cs	82a8c <_ZN4core3fmt3num53_$LT$impl$u20$core..fmt..LowerHex$u20$for$u20$i32$GT$3fmt17h05a74205f36ced35E+0x88>  // b.hs, b.nlast
   82a58:	910003ea 	mov	x10, sp
   82a5c:	cb0903e5 	neg	x5, x9
   82a60:	8b090149 	add	x9, x10, x9
   82a64:	f0000002 	adrp	x2, 85000 <memcpy+0x14>
   82a68:	91020124 	add	x4, x9, #0x80
   82a6c:	9120a042 	add	x2, x2, #0x828
   82a70:	52800021 	mov	w1, #0x1                   	// #1
   82a74:	52800043 	mov	w3, #0x2                   	// #2
   82a78:	aa0803e0 	mov	x0, x8
   82a7c:	94000680 	bl	8447c <_ZN4core3fmt9Formatter12pad_integral17hd76664d265795836E>
   82a80:	f94043fe 	ldr	x30, [sp, #128]
   82a84:	910243ff 	add	sp, sp, #0x90
   82a88:	d65f03c0 	ret
   82a8c:	f0000002 	adrp	x2, 85000 <memcpy+0x14>
   82a90:	91204042 	add	x2, x2, #0x810
   82a94:	52801001 	mov	w1, #0x80                  	// #128
   82a98:	94000258 	bl	833f8 <_ZN4core5slice5index26slice_start_index_len_fail17h92d701fb2ff102e6E>
   82a9c:	d4200020 	brk	#0x1

0000000000082aa0 <_ZN4core3fmt3num53_$LT$impl$u20$core..fmt..UpperHex$u20$for$u20$i32$GT$3fmt17haeba2713e0d468adE>:
   82aa0:	d10243ff 	sub	sp, sp, #0x90
   82aa4:	b940000b 	ldr	w11, [x0]
   82aa8:	aa0103e8 	mov	x8, x1
   82aac:	aa1f03e9 	mov	x9, xzr
   82ab0:	910003ea 	mov	x10, sp
   82ab4:	f90043fe 	str	x30, [sp, #128]
   82ab8:	12000d6e 	and	w14, w11, #0xf
   82abc:	5280060f 	mov	w15, #0x30                  	// #48
   82ac0:	53047d6d 	lsr	w13, w11, #4
   82ac4:	33000d6f 	bfxil	w15, w11, #0, #4
   82ac8:	1100ddcb 	add	w11, w14, #0x37
   82acc:	710029df 	cmp	w14, #0xa
   82ad0:	8b09014c 	add	x12, x10, x9
   82ad4:	1a8b31eb 	csel	w11, w15, w11, cc  // cc = lo, ul, last
   82ad8:	3901fd8b 	strb	w11, [x12, #127]
   82adc:	d1000529 	sub	x9, x9, #0x1
   82ae0:	2a0d03eb 	mov	w11, w13
   82ae4:	35fffead 	cbnz	w13, 82ab8 <_ZN4core3fmt3num53_$LT$impl$u20$core..fmt..UpperHex$u20$for$u20$i32$GT$3fmt17haeba2713e0d468adE+0x18>
   82ae8:	91020120 	add	x0, x9, #0x80
   82aec:	f102041f 	cmp	x0, #0x81
   82af0:	540001c2 	b.cs	82b28 <_ZN4core3fmt3num53_$LT$impl$u20$core..fmt..UpperHex$u20$for$u20$i32$GT$3fmt17haeba2713e0d468adE+0x88>  // b.hs, b.nlast
   82af4:	910003ea 	mov	x10, sp
   82af8:	cb0903e5 	neg	x5, x9
   82afc:	8b090149 	add	x9, x10, x9
   82b00:	f0000002 	adrp	x2, 85000 <memcpy+0x14>
   82b04:	91020124 	add	x4, x9, #0x80
   82b08:	9120a042 	add	x2, x2, #0x828
   82b0c:	52800021 	mov	w1, #0x1                   	// #1
   82b10:	52800043 	mov	w3, #0x2                   	// #2
   82b14:	aa0803e0 	mov	x0, x8
   82b18:	94000659 	bl	8447c <_ZN4core3fmt9Formatter12pad_integral17hd76664d265795836E>
   82b1c:	f94043fe 	ldr	x30, [sp, #128]
   82b20:	910243ff 	add	sp, sp, #0x90
   82b24:	d65f03c0 	ret
   82b28:	f0000002 	adrp	x2, 85000 <memcpy+0x14>
   82b2c:	91204042 	add	x2, x2, #0x810
   82b30:	52801001 	mov	w1, #0x80                  	// #128
   82b34:	94000231 	bl	833f8 <_ZN4core5slice5index26slice_start_index_len_fail17h92d701fb2ff102e6E>
   82b38:	d4200020 	brk	#0x1

0000000000082b3c <_ZN4core3fmt3num53_$LT$impl$u20$core..fmt..LowerHex$u20$for$u20$i64$GT$3fmt17h8d38a0da9c376211E>:
   82b3c:	d10243ff 	sub	sp, sp, #0x90
   82b40:	f940000b 	ldr	x11, [x0]
   82b44:	aa0103e8 	mov	x8, x1
   82b48:	aa1f03e9 	mov	x9, xzr
   82b4c:	910003ea 	mov	x10, sp
   82b50:	f90043fe 	str	x30, [sp, #128]
   82b54:	12000d6e 	and	w14, w11, #0xf
   82b58:	5280060f 	mov	w15, #0x30                  	// #48
   82b5c:	d344fd6d 	lsr	x13, x11, #4
   82b60:	33000d6f 	bfxil	w15, w11, #0, #4
   82b64:	11015dcb 	add	w11, w14, #0x57
   82b68:	710029df 	cmp	w14, #0xa
   82b6c:	8b09014c 	add	x12, x10, x9
   82b70:	1a8b31eb 	csel	w11, w15, w11, cc  // cc = lo, ul, last
   82b74:	3901fd8b 	strb	w11, [x12, #127]
   82b78:	d1000529 	sub	x9, x9, #0x1
   82b7c:	aa0d03eb 	mov	x11, x13
   82b80:	b5fffead 	cbnz	x13, 82b54 <_ZN4core3fmt3num53_$LT$impl$u20$core..fmt..LowerHex$u20$for$u20$i64$GT$3fmt17h8d38a0da9c376211E+0x18>
   82b84:	91020120 	add	x0, x9, #0x80
   82b88:	f102041f 	cmp	x0, #0x81
   82b8c:	540001c2 	b.cs	82bc4 <_ZN4core3fmt3num53_$LT$impl$u20$core..fmt..LowerHex$u20$for$u20$i64$GT$3fmt17h8d38a0da9c376211E+0x88>  // b.hs, b.nlast
   82b90:	910003ea 	mov	x10, sp
   82b94:	cb0903e5 	neg	x5, x9
   82b98:	8b090149 	add	x9, x10, x9
   82b9c:	f0000002 	adrp	x2, 85000 <memcpy+0x14>
   82ba0:	91020124 	add	x4, x9, #0x80
   82ba4:	9120a042 	add	x2, x2, #0x828
   82ba8:	52800021 	mov	w1, #0x1                   	// #1
   82bac:	52800043 	mov	w3, #0x2                   	// #2
   82bb0:	aa0803e0 	mov	x0, x8
   82bb4:	94000632 	bl	8447c <_ZN4core3fmt9Formatter12pad_integral17hd76664d265795836E>
   82bb8:	f94043fe 	ldr	x30, [sp, #128]
   82bbc:	910243ff 	add	sp, sp, #0x90
   82bc0:	d65f03c0 	ret
   82bc4:	f0000002 	adrp	x2, 85000 <memcpy+0x14>
   82bc8:	91204042 	add	x2, x2, #0x810
   82bcc:	52801001 	mov	w1, #0x80                  	// #128
   82bd0:	9400020a 	bl	833f8 <_ZN4core5slice5index26slice_start_index_len_fail17h92d701fb2ff102e6E>
   82bd4:	d4200020 	brk	#0x1

0000000000082bd8 <_ZN4core3ptr25drop_in_place$LT$char$GT$17h63faa3cbb4c2c790E.llvm.17280607647294964220>:
   82bd8:	d65f03c0 	ret

0000000000082bdc <_ZN68_$LT$core..fmt..builders..PadAdapter$u20$as$u20$core..fmt..Write$GT$9write_str17h664f3ba9611891cdE>:
   82bdc:	d10283ff 	sub	sp, sp, #0xa0
   82be0:	fd002be8 	str	d8, [sp, #80]
   82be4:	f9002ffe 	str	x30, [sp, #88]
   82be8:	a90667fa 	stp	x26, x25, [sp, #96]
   82bec:	a9075ff8 	stp	x24, x23, [sp, #112]
   82bf0:	a90857f6 	stp	x22, x21, [sp, #128]
   82bf4:	a9094ff4 	stp	x20, x19, [sp, #144]
   82bf8:	b40013e2 	cbz	x2, 82e74 <_ZN68_$LT$core..fmt..builders..PadAdapter$u20$as$u20$core..fmt..Write$GT$9write_str17h664f3ba9611891cdE+0x298>
   82bfc:	a940e019 	ldp	x25, x24, [x0, #8]
   82c00:	f9400015 	ldr	x21, [x0]
   82c04:	b207dbe8 	mov	x8, #0xfefefefefefefefe    	// #-72340172838076674
   82c08:	f29fdfe8 	movk	x8, #0xfeff
   82c0c:	f0000016 	adrp	x22, 85000 <memcpy+0x14>
   82c10:	aa0203f3 	mov	x19, x2
   82c14:	aa0103f4 	mov	x20, x1
   82c18:	5280003a 	mov	w26, #0x1                   	// #1
   82c1c:	0f000548 	movi	v8.2s, #0xa
   82c20:	4f00e542 	movi	v2.16b, #0xa
   82c24:	4e080d03 	dup	v3.2d, x8
   82c28:	4f04e404 	movi	v4.16b, #0x80
   82c2c:	9123cad6 	add	x22, x22, #0x8f2
   82c30:	3d8003e3 	str	q3, [sp]
   82c34:	1400000d 	b	82c68 <_ZN68_$LT$core..fmt..builders..PadAdapter$u20$as$u20$core..fmt..Write$GT$9write_str17h664f3ba9611891cdE+0x8c>
   82c38:	f9400f28 	ldr	x8, [x25, #24]
   82c3c:	aa1503e0 	mov	x0, x21
   82c40:	aa1403e1 	mov	x1, x20
   82c44:	aa1f03e2 	mov	x2, xzr
   82c48:	d63f0100 	blr	x8
   82c4c:	3dc003e3 	ldr	q3, [sp]
   82c50:	4f04e404 	movi	v4.16b, #0x80
   82c54:	4f00e542 	movi	v2.16b, #0xa
   82c58:	370010a0 	tbnz	w0, #0, 82e6c <_ZN68_$LT$core..fmt..builders..PadAdapter$u20$as$u20$core..fmt..Write$GT$9write_str17h664f3ba9611891cdE+0x290>
   82c5c:	eb170273 	subs	x19, x19, x23
   82c60:	8b170294 	add	x20, x20, x23
   82c64:	54001080 	b.eq	82e74 <_ZN68_$LT$core..fmt..builders..PadAdapter$u20$as$u20$core..fmt..Write$GT$9write_str17h664f3ba9611891cdE+0x298>  // b.none
   82c68:	39400308 	ldrb	w8, [x24]
   82c6c:	34000148 	cbz	w8, 82c94 <_ZN68_$LT$core..fmt..builders..PadAdapter$u20$as$u20$core..fmt..Write$GT$9write_str17h664f3ba9611891cdE+0xb8>
   82c70:	f9400f28 	ldr	x8, [x25, #24]
   82c74:	52800082 	mov	w2, #0x4                   	// #4
   82c78:	aa1503e0 	mov	x0, x21
   82c7c:	aa1603e1 	mov	x1, x22
   82c80:	d63f0100 	blr	x8
   82c84:	3dc003e3 	ldr	q3, [sp]
   82c88:	4f04e404 	movi	v4.16b, #0x80
   82c8c:	4f00e542 	movi	v2.16b, #0xa
   82c90:	37000ee0 	tbnz	w0, #0, 82e6c <_ZN68_$LT$core..fmt..builders..PadAdapter$u20$as$u20$core..fmt..Write$GT$9write_str17h664f3ba9611891cdE+0x290>
   82c94:	fd0027e8 	str	d8, [sp, #72]
   82c98:	394133e8 	ldrb	w8, [sp, #76]
   82c9c:	aa1f03f7 	mov	x23, xzr
   82ca0:	aa1303e1 	mov	x1, x19
   82ca4:	a9024ff4 	stp	x20, x19, [sp, #32]
   82ca8:	a903ebf3 	stp	x19, x26, [sp, #56]
   82cac:	14000003 	b	82cb8 <_ZN68_$LT$core..fmt..builders..PadAdapter$u20$as$u20$core..fmt..Write$GT$9write_str17h664f3ba9611891cdE+0xdc>
   82cb0:	eb170261 	subs	x1, x19, x23
   82cb4:	54000963 	b.cc	82de0 <_ZN68_$LT$core..fmt..builders..PadAdapter$u20$as$u20$core..fmt..Write$GT$9write_str17h664f3ba9611891cdE+0x204>  // b.lo, b.ul, b.last
   82cb8:	f1004029 	subs	x9, x1, #0x10
   82cbc:	54000162 	b.cs	82ce8 <_ZN68_$LT$core..fmt..builders..PadAdapter$u20$as$u20$core..fmt..Write$GT$9write_str17h664f3ba9611891cdE+0x10c>  // b.hs, b.nlast
   82cc0:	b4000901 	cbz	x1, 82de0 <_ZN68_$LT$core..fmt..builders..PadAdapter$u20$as$u20$core..fmt..Write$GT$9write_str17h664f3ba9611891cdE+0x204>
   82cc4:	aa1f03ea 	mov	x10, xzr
   82cc8:	8b170289 	add	x9, x20, x23
   82ccc:	386a692b 	ldrb	w11, [x9, x10]
   82cd0:	7100297f 	cmp	w11, #0xa
   82cd4:	54000740 	b.eq	82dbc <_ZN68_$LT$core..fmt..builders..PadAdapter$u20$as$u20$core..fmt..Write$GT$9write_str17h664f3ba9611891cdE+0x1e0>  // b.none
   82cd8:	9100054a 	add	x10, x10, #0x1
   82cdc:	eb0a003f 	cmp	x1, x10
   82ce0:	54ffff61 	b.ne	82ccc <_ZN68_$LT$core..fmt..builders..PadAdapter$u20$as$u20$core..fmt..Write$GT$9write_str17h664f3ba9611891cdE+0xf0>  // b.any
   82ce4:	1400003f 	b	82de0 <_ZN68_$LT$core..fmt..builders..PadAdapter$u20$as$u20$core..fmt..Write$GT$9write_str17h664f3ba9611891cdE+0x204>
   82ce8:	8b17028a 	add	x10, x20, x23
   82cec:	91001d4b 	add	x11, x10, #0x7
   82cf0:	927df16b 	and	x11, x11, #0xfffffffffffffff8
   82cf4:	eb0a016b 	subs	x11, x11, x10
   82cf8:	540001c0 	b.eq	82d30 <_ZN68_$LT$core..fmt..builders..PadAdapter$u20$as$u20$core..fmt..Write$GT$9write_str17h664f3ba9611891cdE+0x154>  // b.none
   82cfc:	eb01017f 	cmp	x11, x1
   82d00:	aa1f03ea 	mov	x10, xzr
   82d04:	9a8b8020 	csel	x0, x1, x11, hi  // hi = pmore
   82d08:	8b17028b 	add	x11, x20, x23
   82d0c:	386a696c 	ldrb	w12, [x11, x10]
   82d10:	7100299f 	cmp	w12, #0xa
   82d14:	54000540 	b.eq	82dbc <_ZN68_$LT$core..fmt..builders..PadAdapter$u20$as$u20$core..fmt..Write$GT$9write_str17h664f3ba9611891cdE+0x1e0>  // b.none
   82d18:	9100054a 	add	x10, x10, #0x1
   82d1c:	eb0a001f 	cmp	x0, x10
   82d20:	54ffff61 	b.ne	82d0c <_ZN68_$LT$core..fmt..builders..PadAdapter$u20$as$u20$core..fmt..Write$GT$9write_str17h664f3ba9611891cdE+0x130>  // b.any
   82d24:	eb09001f 	cmp	x0, x9
   82d28:	54000069 	b.ls	82d34 <_ZN68_$LT$core..fmt..builders..PadAdapter$u20$as$u20$core..fmt..Write$GT$9write_str17h664f3ba9611891cdE+0x158>  // b.plast
   82d2c:	14000016 	b	82d84 <_ZN68_$LT$core..fmt..builders..PadAdapter$u20$as$u20$core..fmt..Write$GT$9write_str17h664f3ba9611891cdE+0x1a8>
   82d30:	aa1f03e0 	mov	x0, xzr
   82d34:	8b17028a 	add	x10, x20, x23
   82d38:	8b00014b 	add	x11, x10, x0
   82d3c:	f940056c 	ldr	x12, [x11, #8]
   82d40:	f9000fec 	str	x12, [sp, #24]
   82d44:	f940016b 	ldr	x11, [x11]
   82d48:	f9000beb 	str	x11, [sp, #16]
   82d4c:	3dc007e0 	ldr	q0, [sp, #16]
   82d50:	6e221c01 	eor	v1.16b, v0.16b, v2.16b
   82d54:	4ee38421 	add	v1.2d, v1.2d, v3.2d
   82d58:	4e601c20 	bic	v0.16b, v1.16b, v0.16b
   82d5c:	4e241c00 	and	v0.16b, v0.16b, v4.16b
   82d60:	4e180401 	dup	v1.2d, v0.d[1]
   82d64:	4ea01c20 	orr	v0.16b, v1.16b, v0.16b
   82d68:	9e66000b 	fmov	x11, d0
   82d6c:	b500008b 	cbnz	x11, 82d7c <_ZN68_$LT$core..fmt..builders..PadAdapter$u20$as$u20$core..fmt..Write$GT$9write_str17h664f3ba9611891cdE+0x1a0>
   82d70:	91004000 	add	x0, x0, #0x10
   82d74:	eb09001f 	cmp	x0, x9
   82d78:	54fffe09 	b.ls	82d38 <_ZN68_$LT$core..fmt..builders..PadAdapter$u20$as$u20$core..fmt..Write$GT$9write_str17h664f3ba9611891cdE+0x15c>  // b.plast
   82d7c:	eb01001f 	cmp	x0, x1
   82d80:	540009c8 	b.hi	82eb8 <_ZN68_$LT$core..fmt..builders..PadAdapter$u20$as$u20$core..fmt..Write$GT$9write_str17h664f3ba9611891cdE+0x2dc>  // b.pmore
   82d84:	eb01001f 	cmp	x0, x1
   82d88:	540002c0 	b.eq	82de0 <_ZN68_$LT$core..fmt..builders..PadAdapter$u20$as$u20$core..fmt..Write$GT$9write_str17h664f3ba9611891cdE+0x204>  // b.none
   82d8c:	8b17000a 	add	x10, x0, x23
   82d90:	aa1f03e9 	mov	x9, xzr
   82d94:	8b0a028a 	add	x10, x20, x10
   82d98:	cb00002b 	sub	x11, x1, x0
   82d9c:	3869694c 	ldrb	w12, [x10, x9]
   82da0:	7100299f 	cmp	w12, #0xa
   82da4:	540000a0 	b.eq	82db8 <_ZN68_$LT$core..fmt..builders..PadAdapter$u20$as$u20$core..fmt..Write$GT$9write_str17h664f3ba9611891cdE+0x1dc>  // b.none
   82da8:	91000529 	add	x9, x9, #0x1
   82dac:	eb09017f 	cmp	x11, x9
   82db0:	54ffff61 	b.ne	82d9c <_ZN68_$LT$core..fmt..builders..PadAdapter$u20$as$u20$core..fmt..Write$GT$9write_str17h664f3ba9611891cdE+0x1c0>  // b.any
   82db4:	1400000b 	b	82de0 <_ZN68_$LT$core..fmt..builders..PadAdapter$u20$as$u20$core..fmt..Write$GT$9write_str17h664f3ba9611891cdE+0x204>
   82db8:	8b09000a 	add	x10, x0, x9
   82dbc:	8b0a02e9 	add	x9, x23, x10
   82dc0:	eb13013f 	cmp	x9, x19
   82dc4:	91000537 	add	x23, x9, #0x1
   82dc8:	54fff742 	b.cs	82cb0 <_ZN68_$LT$core..fmt..builders..PadAdapter$u20$as$u20$core..fmt..Write$GT$9write_str17h664f3ba9611891cdE+0xd4>  // b.hs, b.nlast
   82dcc:	38696a89 	ldrb	w9, [x20, x9]
   82dd0:	6b08013f 	cmp	w9, w8
   82dd4:	54fff6e1 	b.ne	82cb0 <_ZN68_$LT$core..fmt..builders..PadAdapter$u20$as$u20$core..fmt..Write$GT$9write_str17h664f3ba9611891cdE+0xd4>  // b.any
   82dd8:	3900031a 	strb	w26, [x24]
   82ddc:	14000004 	b	82dec <_ZN68_$LT$core..fmt..builders..PadAdapter$u20$as$u20$core..fmt..Write$GT$9write_str17h664f3ba9611891cdE+0x210>
   82de0:	aa1303f7 	mov	x23, x19
   82de4:	3900031f 	strb	wzr, [x24]
   82de8:	b4fff293 	cbz	x19, 82c38 <_ZN68_$LT$core..fmt..builders..PadAdapter$u20$as$u20$core..fmt..Write$GT$9write_str17h664f3ba9611891cdE+0x5c>
   82dec:	eb17027f 	cmp	x19, x23
   82df0:	54000289 	b.ls	82e40 <_ZN68_$LT$core..fmt..builders..PadAdapter$u20$as$u20$core..fmt..Write$GT$9write_str17h664f3ba9611891cdE+0x264>  // b.plast
   82df4:	38f76a88 	ldrsb	w8, [x20, x23]
   82df8:	3101051f 	cmn	w8, #0x41
   82dfc:	540004ed 	b.le	82e98 <_ZN68_$LT$core..fmt..builders..PadAdapter$u20$as$u20$core..fmt..Write$GT$9write_str17h664f3ba9611891cdE+0x2bc>
   82e00:	f9400f28 	ldr	x8, [x25, #24]
   82e04:	aa1503e0 	mov	x0, x21
   82e08:	aa1403e1 	mov	x1, x20
   82e0c:	aa1703e2 	mov	x2, x23
   82e10:	d63f0100 	blr	x8
   82e14:	370002c0 	tbnz	w0, #0, 82e6c <_ZN68_$LT$core..fmt..builders..PadAdapter$u20$as$u20$core..fmt..Write$GT$9write_str17h664f3ba9611891cdE+0x290>
   82e18:	38f76a88 	ldrsb	w8, [x20, x23]
   82e1c:	3101051f 	cmn	w8, #0x41
   82e20:	5400054d 	b.le	82ec8 <_ZN68_$LT$core..fmt..builders..PadAdapter$u20$as$u20$core..fmt..Write$GT$9write_str17h664f3ba9611891cdE+0x2ec>
   82e24:	3dc003e3 	ldr	q3, [sp]
   82e28:	4f00e542 	movi	v2.16b, #0xa
   82e2c:	4f04e404 	movi	v4.16b, #0x80
   82e30:	eb170273 	subs	x19, x19, x23
   82e34:	8b170294 	add	x20, x20, x23
   82e38:	54fff181 	b.ne	82c68 <_ZN68_$LT$core..fmt..builders..PadAdapter$u20$as$u20$core..fmt..Write$GT$9write_str17h664f3ba9611891cdE+0x8c>  // b.any
   82e3c:	1400000e 	b	82e74 <_ZN68_$LT$core..fmt..builders..PadAdapter$u20$as$u20$core..fmt..Write$GT$9write_str17h664f3ba9611891cdE+0x298>
   82e40:	540002c1 	b.ne	82e98 <_ZN68_$LT$core..fmt..builders..PadAdapter$u20$as$u20$core..fmt..Write$GT$9write_str17h664f3ba9611891cdE+0x2bc>  // b.any
   82e44:	f9400f28 	ldr	x8, [x25, #24]
   82e48:	aa1503e0 	mov	x0, x21
   82e4c:	aa1403e1 	mov	x1, x20
   82e50:	aa1303e2 	mov	x2, x19
   82e54:	d63f0100 	blr	x8
   82e58:	3dc003e3 	ldr	q3, [sp]
   82e5c:	aa1303f7 	mov	x23, x19
   82e60:	4f00e542 	movi	v2.16b, #0xa
   82e64:	4f04e404 	movi	v4.16b, #0x80
   82e68:	3607efa0 	tbz	w0, #0, 82c5c <_ZN68_$LT$core..fmt..builders..PadAdapter$u20$as$u20$core..fmt..Write$GT$9write_str17h664f3ba9611891cdE+0x80>
   82e6c:	52800020 	mov	w0, #0x1                   	// #1
   82e70:	14000002 	b	82e78 <_ZN68_$LT$core..fmt..builders..PadAdapter$u20$as$u20$core..fmt..Write$GT$9write_str17h664f3ba9611891cdE+0x29c>
   82e74:	2a1f03e0 	mov	w0, wzr
   82e78:	a9494ff4 	ldp	x20, x19, [sp, #144]
   82e7c:	a94857f6 	ldp	x22, x21, [sp, #128]
   82e80:	a9475ff8 	ldp	x24, x23, [sp, #112]
   82e84:	a94667fa 	ldp	x26, x25, [sp, #96]
   82e88:	f9402ffe 	ldr	x30, [sp, #88]
   82e8c:	fd402be8 	ldr	d8, [sp, #80]
   82e90:	910283ff 	add	sp, sp, #0xa0
   82e94:	d65f03c0 	ret
   82e98:	f0000004 	adrp	x4, 85000 <memcpy+0x14>
   82e9c:	9125e084 	add	x4, x4, #0x978
   82ea0:	aa1403e0 	mov	x0, x20
   82ea4:	aa1303e1 	mov	x1, x19
   82ea8:	aa1f03e2 	mov	x2, xzr
   82eac:	aa1703e3 	mov	x3, x23
   82eb0:	940003da 	bl	83e18 <_ZN4core3str16slice_error_fail17h0a884f572164fefcE>
   82eb4:	d4200020 	brk	#0x1
   82eb8:	90000022 	adrp	x2, 86000 <anon.57ef2e3c02ffeaf529e6c598bd0b036c.20.llvm.5445877691761700591+0x1c>
   82ebc:	91082042 	add	x2, x2, #0x208
   82ec0:	9400014e 	bl	833f8 <_ZN4core5slice5index26slice_start_index_len_fail17h92d701fb2ff102e6E>
   82ec4:	d4200020 	brk	#0x1
   82ec8:	f0000004 	adrp	x4, 85000 <memcpy+0x14>
   82ecc:	91264084 	add	x4, x4, #0x990
   82ed0:	aa1403e0 	mov	x0, x20
   82ed4:	aa1303e1 	mov	x1, x19
   82ed8:	aa1703e2 	mov	x2, x23
   82edc:	aa1303e3 	mov	x3, x19
   82ee0:	940003ce 	bl	83e18 <_ZN4core3str16slice_error_fail17h0a884f572164fefcE>
   82ee4:	d4200020 	brk	#0x1

0000000000082ee8 <_ZN4core3fmt8builders11DebugStruct5field17h9e0dae53a1c9bd69E>:
   82ee8:	d10303ff 	sub	sp, sp, #0xc0
   82eec:	39402008 	ldrb	w8, [x0, #8]
   82ef0:	a90867fe 	stp	x30, x25, [sp, #128]
   82ef4:	a90b4ff4 	stp	x20, x19, [sp, #176]
   82ef8:	aa0003f3 	mov	x19, x0
   82efc:	52800039 	mov	w25, #0x1                   	// #1
   82f00:	52800020 	mov	w0, #0x1                   	// #1
   82f04:	a9095ff8 	stp	x24, x23, [sp, #144]
   82f08:	a90a57f6 	stp	x22, x21, [sp, #160]
   82f0c:	35000b28 	cbnz	w8, 83070 <_ZN4core3fmt8builders11DebugStruct5field17h9e0dae53a1c9bd69E+0x188>
   82f10:	f9400277 	ldr	x23, [x19]
   82f14:	39402669 	ldrb	w9, [x19, #9]
   82f18:	aa0403f5 	mov	x21, x4
   82f1c:	aa0303f4 	mov	x20, x3
   82f20:	b94032e8 	ldr	w8, [x23, #48]
   82f24:	aa0203f6 	mov	x22, x2
   82f28:	aa0103f8 	mov	x24, x1
   82f2c:	371003e8 	tbnz	w8, #2, 82fa8 <_ZN4core3fmt8builders11DebugStruct5field17h9e0dae53a1c9bd69E+0xc0>
   82f30:	a94222e0 	ldp	x0, x8, [x23, #32]
   82f34:	f000000a 	adrp	x10, 85000 <memcpy+0x14>
   82f38:	f000000b 	adrp	x11, 85000 <memcpy+0x14>
   82f3c:	9126bd4a 	add	x10, x10, #0x9af
   82f40:	f9400d08 	ldr	x8, [x8, #24]
   82f44:	9126c56b 	add	x11, x11, #0x9b1
   82f48:	7100013f 	cmp	w9, #0x0
   82f4c:	52800049 	mov	w9, #0x2                   	// #2
   82f50:	9a8a0161 	csel	x1, x11, x10, eq  // eq = none
   82f54:	9a891522 	cinc	x2, x9, eq  // eq = none
   82f58:	d63f0100 	blr	x8
   82f5c:	37000880 	tbnz	w0, #0, 8306c <_ZN4core3fmt8builders11DebugStruct5field17h9e0dae53a1c9bd69E+0x184>
   82f60:	a94222e0 	ldp	x0, x8, [x23, #32]
   82f64:	aa1803e1 	mov	x1, x24
   82f68:	aa1603e2 	mov	x2, x22
   82f6c:	f9400d08 	ldr	x8, [x8, #24]
   82f70:	d63f0100 	blr	x8
   82f74:	370007c0 	tbnz	w0, #0, 8306c <_ZN4core3fmt8builders11DebugStruct5field17h9e0dae53a1c9bd69E+0x184>
   82f78:	a94222e0 	ldp	x0, x8, [x23, #32]
   82f7c:	f0000001 	adrp	x1, 85000 <memcpy+0x14>
   82f80:	9126ac21 	add	x1, x1, #0x9ab
   82f84:	52800042 	mov	w2, #0x2                   	// #2
   82f88:	f9400d08 	ldr	x8, [x8, #24]
   82f8c:	d63f0100 	blr	x8
   82f90:	370006e0 	tbnz	w0, #0, 8306c <_ZN4core3fmt8builders11DebugStruct5field17h9e0dae53a1c9bd69E+0x184>
   82f94:	f9400ea8 	ldr	x8, [x21, #24]
   82f98:	aa1403e0 	mov	x0, x20
   82f9c:	aa1703e1 	mov	x1, x23
   82fa0:	d63f0100 	blr	x8
   82fa4:	14000033 	b	83070 <_ZN4core3fmt8builders11DebugStruct5field17h9e0dae53a1c9bd69E+0x188>
   82fa8:	35000129 	cbnz	w9, 82fcc <_ZN4core3fmt8builders11DebugStruct5field17h9e0dae53a1c9bd69E+0xe4>
   82fac:	a94222e0 	ldp	x0, x8, [x23, #32]
   82fb0:	f0000001 	adrp	x1, 85000 <memcpy+0x14>
   82fb4:	9126a021 	add	x1, x1, #0x9a8
   82fb8:	52800062 	mov	w2, #0x3                   	// #3
   82fbc:	f9400d08 	ldr	x8, [x8, #24]
   82fc0:	d63f0100 	blr	x8
   82fc4:	37000540 	tbnz	w0, #0, 8306c <_ZN4core3fmt8builders11DebugStruct5field17h9e0dae53a1c9bd69E+0x184>
   82fc8:	b94032e8 	ldr	w8, [x23, #48]
   82fcc:	52800029 	mov	w9, #0x1                   	// #1
   82fd0:	3900f3e9 	strb	w9, [sp, #60]
   82fd4:	a9422ae9 	ldp	x9, x10, [x23, #32]
   82fd8:	9100f3eb 	add	x11, sp, #0x3c
   82fdc:	910083ec 	add	x12, sp, #0x20
   82fe0:	910083e0 	add	x0, sp, #0x20
   82fe4:	a902afea 	stp	x10, x11, [sp, #40]
   82fe8:	f90013e9 	str	x9, [sp, #32]
   82fec:	f94006e9 	ldr	x9, [x23, #8]
   82ff0:	b94036ea 	ldr	w10, [x23, #52]
   82ff4:	3940e2eb 	ldrb	w11, [x23, #56]
   82ff8:	aa1803e1 	mov	x1, x24
   82ffc:	f90007e9 	str	x9, [sp, #8]
   83000:	f94002e9 	ldr	x9, [x23]
   83004:	aa1603e2 	mov	x2, x22
   83008:	f90003e9 	str	x9, [sp]
   8300c:	f9400ee9 	ldr	x9, [x23, #24]
   83010:	f9000fe9 	str	x9, [sp, #24]
   83014:	f9400ae9 	ldr	x9, [x23, #16]
   83018:	290e2be8 	stp	w8, w10, [sp, #112]
   8301c:	3901e3eb 	strb	w11, [sp, #120]
   83020:	f9000be9 	str	x9, [sp, #16]
   83024:	ad4007e0 	ldp	q0, q1, [sp]
   83028:	f0000009 	adrp	x9, 86000 <anon.57ef2e3c02ffeaf529e6c598bd0b036c.20.llvm.5445877691761700591+0x1c>
   8302c:	91200129 	add	x9, x9, #0x800
   83030:	a90627ec 	stp	x12, x9, [sp, #96]
   83034:	ad0207e0 	stp	q0, q1, [sp, #64]
   83038:	97fffee9 	bl	82bdc <_ZN68_$LT$core..fmt..builders..PadAdapter$u20$as$u20$core..fmt..Write$GT$9write_str17h664f3ba9611891cdE>
   8303c:	37000180 	tbnz	w0, #0, 8306c <_ZN4core3fmt8builders11DebugStruct5field17h9e0dae53a1c9bd69E+0x184>
   83040:	d0000001 	adrp	x1, 85000 <memcpy+0x14>
   83044:	9126ac21 	add	x1, x1, #0x9ab
   83048:	910083e0 	add	x0, sp, #0x20
   8304c:	52800042 	mov	w2, #0x2                   	// #2
   83050:	97fffee3 	bl	82bdc <_ZN68_$LT$core..fmt..builders..PadAdapter$u20$as$u20$core..fmt..Write$GT$9write_str17h664f3ba9611891cdE>
   83054:	350000c0 	cbnz	w0, 8306c <_ZN4core3fmt8builders11DebugStruct5field17h9e0dae53a1c9bd69E+0x184>
   83058:	f9400ea8 	ldr	x8, [x21, #24]
   8305c:	910103e1 	add	x1, sp, #0x40
   83060:	aa1403e0 	mov	x0, x20
   83064:	d63f0100 	blr	x8
   83068:	36000160 	tbz	w0, #0, 83094 <_ZN4core3fmt8builders11DebugStruct5field17h9e0dae53a1c9bd69E+0x1ac>
   8306c:	52800020 	mov	w0, #0x1                   	// #1
   83070:	39002260 	strb	w0, [x19, #8]
   83074:	39002679 	strb	w25, [x19, #9]
   83078:	aa1303e0 	mov	x0, x19
   8307c:	a94b4ff4 	ldp	x20, x19, [sp, #176]
   83080:	a94a57f6 	ldp	x22, x21, [sp, #160]
   83084:	a9495ff8 	ldp	x24, x23, [sp, #144]
   83088:	a94867fe 	ldp	x30, x25, [sp, #128]
   8308c:	910303ff 	add	sp, sp, #0xc0
   83090:	d65f03c0 	ret
   83094:	a94623e0 	ldp	x0, x8, [sp, #96]
   83098:	d0000001 	adrp	x1, 85000 <memcpy+0x14>
   8309c:	9126b421 	add	x1, x1, #0x9ad
   830a0:	52800042 	mov	w2, #0x2                   	// #2
   830a4:	f9400d08 	ldr	x8, [x8, #24]
   830a8:	d63f0100 	blr	x8
   830ac:	17fffff1 	b	83070 <_ZN4core3fmt8builders11DebugStruct5field17h9e0dae53a1c9bd69E+0x188>

00000000000830b0 <_ZN4core3fmt8builders11DebugStruct6finish17h3a651c6e351ea651E>:
   830b0:	a9bf4ffe 	stp	x30, x19, [sp, #-16]!
   830b4:	aa0003f3 	mov	x19, x0
   830b8:	39402408 	ldrb	w8, [x0, #9]
   830bc:	39402000 	ldrb	w0, [x0, #8]
   830c0:	34000268 	cbz	w8, 8310c <_ZN4core3fmt8builders11DebugStruct6finish17h3a651c6e351ea651E+0x5c>
   830c4:	34000060 	cbz	w0, 830d0 <_ZN4core3fmt8builders11DebugStruct6finish17h3a651c6e351ea651E+0x20>
   830c8:	52800020 	mov	w0, #0x1                   	// #1
   830cc:	1400000f 	b	83108 <_ZN4core3fmt8builders11DebugStruct6finish17h3a651c6e351ea651E+0x58>
   830d0:	f9400268 	ldr	x8, [x19]
   830d4:	3940c109 	ldrb	w9, [x8, #48]
   830d8:	371000c9 	tbnz	w9, #2, 830f0 <_ZN4core3fmt8builders11DebugStruct6finish17h3a651c6e351ea651E+0x40>
   830dc:	a9422500 	ldp	x0, x9, [x8, #32]
   830e0:	d0000001 	adrp	x1, 85000 <memcpy+0x14>
   830e4:	9126d421 	add	x1, x1, #0x9b5
   830e8:	52800042 	mov	w2, #0x2                   	// #2
   830ec:	14000005 	b	83100 <_ZN4core3fmt8builders11DebugStruct6finish17h3a651c6e351ea651E+0x50>
   830f0:	a9422500 	ldp	x0, x9, [x8, #32]
   830f4:	d0000001 	adrp	x1, 85000 <memcpy+0x14>
   830f8:	9126d021 	add	x1, x1, #0x9b4
   830fc:	52800022 	mov	w2, #0x1                   	// #1
   83100:	f9400d28 	ldr	x8, [x9, #24]
   83104:	d63f0100 	blr	x8
   83108:	39002260 	strb	w0, [x19, #8]
   8310c:	7100001f 	cmp	w0, #0x0
   83110:	1a9f07e0 	cset	w0, ne  // ne = any
   83114:	a8c14ffe 	ldp	x30, x19, [sp], #16
   83118:	d65f03c0 	ret

000000000008311c <_ZN4core3fmt5Write10write_char17h655b37dddbc6b4f0E>:
   8311c:	f81f0ffe 	str	x30, [sp, #-16]!
   83120:	7102003f 	cmp	w1, #0x80
   83124:	b9000fff 	str	wzr, [sp, #12]
   83128:	540000e2 	b.cs	83144 <_ZN4core3fmt5Write10write_char17h655b37dddbc6b4f0E+0x28>  // b.hs, b.nlast
   8312c:	390033e1 	strb	w1, [sp, #12]
   83130:	52800022 	mov	w2, #0x1                   	// #1
   83134:	910033e1 	add	x1, sp, #0xc
   83138:	97fffea9 	bl	82bdc <_ZN68_$LT$core..fmt..builders..PadAdapter$u20$as$u20$core..fmt..Write$GT$9write_str17h664f3ba9611891cdE>
   8313c:	f84107fe 	ldr	x30, [sp], #16
   83140:	d65f03c0 	ret
   83144:	7120003f 	cmp	w1, #0x800
   83148:	54000182 	b.cs	83178 <_ZN4core3fmt5Write10write_char17h655b37dddbc6b4f0E+0x5c>  // b.hs, b.nlast
   8314c:	53067c28 	lsr	w8, w1, #6
   83150:	52801009 	mov	w9, #0x80                  	// #128
   83154:	321a0508 	orr	w8, w8, #0xc0
   83158:	33001429 	bfxil	w9, w1, #0, #6
   8315c:	390033e8 	strb	w8, [sp, #12]
   83160:	390037e9 	strb	w9, [sp, #13]
   83164:	52800042 	mov	w2, #0x2                   	// #2
   83168:	910033e1 	add	x1, sp, #0xc
   8316c:	97fffe9c 	bl	82bdc <_ZN68_$LT$core..fmt..builders..PadAdapter$u20$as$u20$core..fmt..Write$GT$9write_str17h664f3ba9611891cdE>
   83170:	f84107fe 	ldr	x30, [sp], #16
   83174:	d65f03c0 	ret
   83178:	7140403f 	cmp	w1, #0x10, lsl #12
   8317c:	540001e2 	b.cs	831b8 <_ZN4core3fmt5Write10write_char17h655b37dddbc6b4f0E+0x9c>  // b.hs, b.nlast
   83180:	530c7c28 	lsr	w8, w1, #12
   83184:	52801009 	mov	w9, #0x80                  	// #128
   83188:	5280100a 	mov	w10, #0x80                  	// #128
   8318c:	321b0908 	orr	w8, w8, #0xe0
   83190:	33062c2a 	bfxil	w10, w1, #6, #6
   83194:	33001429 	bfxil	w9, w1, #0, #6
   83198:	390033e8 	strb	w8, [sp, #12]
   8319c:	390037ea 	strb	w10, [sp, #13]
   831a0:	39003be9 	strb	w9, [sp, #14]
   831a4:	52800062 	mov	w2, #0x3                   	// #3
   831a8:	910033e1 	add	x1, sp, #0xc
   831ac:	97fffe8c 	bl	82bdc <_ZN68_$LT$core..fmt..builders..PadAdapter$u20$as$u20$core..fmt..Write$GT$9write_str17h664f3ba9611891cdE>
   831b0:	f84107fe 	ldr	x30, [sp], #16
   831b4:	d65f03c0 	ret
   831b8:	53127c28 	lsr	w8, w1, #18
   831bc:	52801009 	mov	w9, #0x80                  	// #128
   831c0:	5280100a 	mov	w10, #0x80                  	// #128
   831c4:	5280100b 	mov	w11, #0x80                  	// #128
   831c8:	321c0d08 	orr	w8, w8, #0xf0
   831cc:	330c442a 	bfxil	w10, w1, #12, #6
   831d0:	33062c2b 	bfxil	w11, w1, #6, #6
   831d4:	33001429 	bfxil	w9, w1, #0, #6
   831d8:	52800082 	mov	w2, #0x4                   	// #4
   831dc:	390033e8 	strb	w8, [sp, #12]
   831e0:	390037ea 	strb	w10, [sp, #13]
   831e4:	39003beb 	strb	w11, [sp, #14]
   831e8:	39003fe9 	strb	w9, [sp, #15]
   831ec:	910033e1 	add	x1, sp, #0xc
   831f0:	97fffe7b 	bl	82bdc <_ZN68_$LT$core..fmt..builders..PadAdapter$u20$as$u20$core..fmt..Write$GT$9write_str17h664f3ba9611891cdE>
   831f4:	f84107fe 	ldr	x30, [sp], #16
   831f8:	d65f03c0 	ret

00000000000831fc <_ZN4core3fmt5Write9write_fmt17h42490fc885868fc0E>:
   831fc:	d10103ff 	sub	sp, sp, #0x40
   83200:	a90303fe 	stp	x30, x0, [sp, #48]
   83204:	910003e0 	mov	x0, sp
   83208:	52800602 	mov	w2, #0x30                  	// #48
   8320c:	94000778 	bl	84fec <memcpy>
   83210:	d0000001 	adrp	x1, 85000 <memcpy+0x14>
   83214:	9126e021 	add	x1, x1, #0x9b8
   83218:	9100e3e0 	add	x0, sp, #0x38
   8321c:	910003e2 	mov	x2, sp
   83220:	94000418 	bl	84280 <_ZN4core3fmt5write17hb5f6a3bd29bb9808E>
   83224:	f9401bfe 	ldr	x30, [sp, #48]
   83228:	910103ff 	add	sp, sp, #0x40
   8322c:	d65f03c0 	ret

0000000000083230 <_ZN50_$LT$$RF$mut$u20$W$u20$as$u20$core..fmt..Write$GT$9write_str17hd9b114be9ba4c7bdE>:
   83230:	f9400000 	ldr	x0, [x0]
   83234:	17fffe6a 	b	82bdc <_ZN68_$LT$core..fmt..builders..PadAdapter$u20$as$u20$core..fmt..Write$GT$9write_str17h664f3ba9611891cdE>

0000000000083238 <_ZN50_$LT$$RF$mut$u20$W$u20$as$u20$core..fmt..Write$GT$10write_char17h795240efd0e635deE>:
   83238:	f81f0ffe 	str	x30, [sp, #-16]!
   8323c:	f9400000 	ldr	x0, [x0]
   83240:	7102003f 	cmp	w1, #0x80
   83244:	b9000fff 	str	wzr, [sp, #12]
   83248:	540000e2 	b.cs	83264 <_ZN50_$LT$$RF$mut$u20$W$u20$as$u20$core..fmt..Write$GT$10write_char17h795240efd0e635deE+0x2c>  // b.hs, b.nlast
   8324c:	390033e1 	strb	w1, [sp, #12]
   83250:	52800022 	mov	w2, #0x1                   	// #1
   83254:	910033e1 	add	x1, sp, #0xc
   83258:	97fffe61 	bl	82bdc <_ZN68_$LT$core..fmt..builders..PadAdapter$u20$as$u20$core..fmt..Write$GT$9write_str17h664f3ba9611891cdE>
   8325c:	f84107fe 	ldr	x30, [sp], #16
   83260:	d65f03c0 	ret
   83264:	7120003f 	cmp	w1, #0x800
   83268:	54000182 	b.cs	83298 <_ZN50_$LT$$RF$mut$u20$W$u20$as$u20$core..fmt..Write$GT$10write_char17h795240efd0e635deE+0x60>  // b.hs, b.nlast
   8326c:	53067c28 	lsr	w8, w1, #6
   83270:	52801009 	mov	w9, #0x80                  	// #128
   83274:	321a0508 	orr	w8, w8, #0xc0
   83278:	33001429 	bfxil	w9, w1, #0, #6
   8327c:	390033e8 	strb	w8, [sp, #12]
   83280:	390037e9 	strb	w9, [sp, #13]
   83284:	52800042 	mov	w2, #0x2                   	// #2
   83288:	910033e1 	add	x1, sp, #0xc
   8328c:	97fffe54 	bl	82bdc <_ZN68_$LT$core..fmt..builders..PadAdapter$u20$as$u20$core..fmt..Write$GT$9write_str17h664f3ba9611891cdE>
   83290:	f84107fe 	ldr	x30, [sp], #16
   83294:	d65f03c0 	ret
   83298:	7140403f 	cmp	w1, #0x10, lsl #12
   8329c:	540001e2 	b.cs	832d8 <_ZN50_$LT$$RF$mut$u20$W$u20$as$u20$core..fmt..Write$GT$10write_char17h795240efd0e635deE+0xa0>  // b.hs, b.nlast
   832a0:	530c7c28 	lsr	w8, w1, #12
   832a4:	52801009 	mov	w9, #0x80                  	// #128
   832a8:	5280100a 	mov	w10, #0x80                  	// #128
   832ac:	321b0908 	orr	w8, w8, #0xe0
   832b0:	33062c2a 	bfxil	w10, w1, #6, #6
   832b4:	33001429 	bfxil	w9, w1, #0, #6
   832b8:	390033e8 	strb	w8, [sp, #12]
   832bc:	390037ea 	strb	w10, [sp, #13]
   832c0:	39003be9 	strb	w9, [sp, #14]
   832c4:	52800062 	mov	w2, #0x3                   	// #3
   832c8:	910033e1 	add	x1, sp, #0xc
   832cc:	97fffe44 	bl	82bdc <_ZN68_$LT$core..fmt..builders..PadAdapter$u20$as$u20$core..fmt..Write$GT$9write_str17h664f3ba9611891cdE>
   832d0:	f84107fe 	ldr	x30, [sp], #16
   832d4:	d65f03c0 	ret
   832d8:	53127c28 	lsr	w8, w1, #18
   832dc:	52801009 	mov	w9, #0x80                  	// #128
   832e0:	5280100a 	mov	w10, #0x80                  	// #128
   832e4:	5280100b 	mov	w11, #0x80                  	// #128
   832e8:	321c0d08 	orr	w8, w8, #0xf0
   832ec:	330c442a 	bfxil	w10, w1, #12, #6
   832f0:	33062c2b 	bfxil	w11, w1, #6, #6
   832f4:	33001429 	bfxil	w9, w1, #0, #6
   832f8:	52800082 	mov	w2, #0x4                   	// #4
   832fc:	390033e8 	strb	w8, [sp, #12]
   83300:	390037ea 	strb	w10, [sp, #13]
   83304:	39003beb 	strb	w11, [sp, #14]
   83308:	39003fe9 	strb	w9, [sp, #15]
   8330c:	910033e1 	add	x1, sp, #0xc
   83310:	97fffe33 	bl	82bdc <_ZN68_$LT$core..fmt..builders..PadAdapter$u20$as$u20$core..fmt..Write$GT$9write_str17h664f3ba9611891cdE>
   83314:	f84107fe 	ldr	x30, [sp], #16
   83318:	d65f03c0 	ret

000000000008331c <_ZN50_$LT$$RF$mut$u20$W$u20$as$u20$core..fmt..Write$GT$9write_fmt17h05ca015b8f05917bE>:
   8331c:	d10103ff 	sub	sp, sp, #0x40
   83320:	f9400008 	ldr	x8, [x0]
   83324:	910003e0 	mov	x0, sp
   83328:	52800602 	mov	w2, #0x30                  	// #48
   8332c:	a90323fe 	stp	x30, x8, [sp, #48]
   83330:	9400072f 	bl	84fec <memcpy>
   83334:	d0000001 	adrp	x1, 85000 <memcpy+0x14>
   83338:	9126e021 	add	x1, x1, #0x9b8
   8333c:	9100e3e0 	add	x0, sp, #0x38
   83340:	910003e2 	mov	x2, sp
   83344:	940003cf 	bl	84280 <_ZN4core3fmt5write17hb5f6a3bd29bb9808E>
   83348:	f9401bfe 	ldr	x30, [sp, #48]
   8334c:	910103ff 	add	sp, sp, #0x40
   83350:	d65f03c0 	ret

0000000000083354 <_ZN4core3ptr28drop_in_place$LT$$RF$u64$GT$17hcaf5aae54ab66a47E.llvm.16120789242182459789>:
   83354:	d65f03c0 	ret

0000000000083358 <_ZN4core9panicking5panic17h44d2e7d60b187585E>:
   83358:	d10103ff 	sub	sp, sp, #0x40
   8335c:	d000000a 	adrp	x10, 85000 <memcpy+0x14>
   83360:	a90307e0 	stp	x0, x1, [sp, #48]
   83364:	9100c3e8 	add	x8, sp, #0x30
   83368:	52800029 	mov	w9, #0x1                   	// #1
   8336c:	9128414a 	add	x10, x10, #0xa10
   83370:	910003e0 	mov	x0, sp
   83374:	aa0203e1 	mov	x1, x2
   83378:	a9017fff 	stp	xzr, xzr, [sp, #16]
   8337c:	a90027e8 	stp	x8, x9, [sp]
   83380:	a9027fea 	stp	x10, xzr, [sp, #32]
   83384:	94000014 	bl	833d4 <_ZN4core9panicking9panic_fmt17h150231a4307abbaeE>
   83388:	d4200020 	brk	#0x1

000000000008338c <_ZN4core9panicking18panic_bounds_check17h9ccd95bf49c400c4E>:
   8338c:	a9ba07e0 	stp	x0, x1, [sp, #-96]!
   83390:	90000009 	adrp	x9, 83000 <_ZN4core3fmt8builders11DebugStruct5field17h9e0dae53a1c9bd69E+0x118>
   83394:	910023e8 	add	x8, sp, #0x8
   83398:	91328129 	add	x9, x9, #0xca0
   8339c:	d000000b 	adrp	x11, 85000 <memcpy+0x14>
   833a0:	910003ea 	mov	x10, sp
   833a4:	9129a16b 	add	x11, x11, #0xa68
   833a8:	5280004c 	mov	w12, #0x2                   	// #2
   833ac:	a90427e8 	stp	x8, x9, [sp, #64]
   833b0:	910103e8 	add	x8, sp, #0x40
   833b4:	910043e0 	add	x0, sp, #0x10
   833b8:	aa0203e1 	mov	x1, x2
   833bc:	a9027fff 	stp	xzr, xzr, [sp, #32]
   833c0:	a90527ea 	stp	x10, x9, [sp, #80]
   833c4:	a90133eb 	stp	x11, x12, [sp, #16]
   833c8:	a90333e8 	stp	x8, x12, [sp, #48]
   833cc:	94000002 	bl	833d4 <_ZN4core9panicking9panic_fmt17h150231a4307abbaeE>
   833d0:	d4200020 	brk	#0x1

00000000000833d4 <_ZN4core9panicking9panic_fmt17h150231a4307abbaeE>:
   833d4:	d0000008 	adrp	x8, 85000 <memcpy+0x14>
   833d8:	d0000009 	adrp	x9, 85000 <memcpy+0x14>
   833dc:	91284108 	add	x8, x8, #0xa10
   833e0:	91284129 	add	x9, x9, #0xa10
   833e4:	a9be27e8 	stp	x8, x9, [sp, #-32]!
   833e8:	a90107e0 	stp	x0, x1, [sp, #16]
   833ec:	910003e0 	mov	x0, sp
   833f0:	97fffbed 	bl	823a4 <rust_begin_unwind>
   833f4:	d4200020 	brk	#0x1

00000000000833f8 <_ZN4core5slice5index26slice_start_index_len_fail17h92d701fb2ff102e6E>:
   833f8:	a9ba07e0 	stp	x0, x1, [sp, #-96]!
   833fc:	90000009 	adrp	x9, 83000 <_ZN4core3fmt8builders11DebugStruct5field17h9e0dae53a1c9bd69E+0x118>
   83400:	910003e8 	mov	x8, sp
   83404:	91328129 	add	x9, x9, #0xca0
   83408:	d000000b 	adrp	x11, 85000 <memcpy+0x14>
   8340c:	910023ea 	add	x10, sp, #0x8
   83410:	912b016b 	add	x11, x11, #0xac0
   83414:	5280004c 	mov	w12, #0x2                   	// #2
   83418:	a90427e8 	stp	x8, x9, [sp, #64]
   8341c:	910103e8 	add	x8, sp, #0x40
   83420:	910043e0 	add	x0, sp, #0x10
   83424:	aa0203e1 	mov	x1, x2
   83428:	a9027fff 	stp	xzr, xzr, [sp, #32]
   8342c:	a90527ea 	stp	x10, x9, [sp, #80]
   83430:	a90133eb 	stp	x11, x12, [sp, #16]
   83434:	a90333e8 	stp	x8, x12, [sp, #48]
   83438:	97ffffe7 	bl	833d4 <_ZN4core9panicking9panic_fmt17h150231a4307abbaeE>
   8343c:	d4200020 	brk	#0x1

0000000000083440 <_ZN4core5slice5index24slice_end_index_len_fail17h6bcdd69b5c9d3928E>:
   83440:	a9ba07e0 	stp	x0, x1, [sp, #-96]!
   83444:	90000009 	adrp	x9, 83000 <_ZN4core3fmt8builders11DebugStruct5field17h9e0dae53a1c9bd69E+0x118>
   83448:	910003e8 	mov	x8, sp
   8344c:	91328129 	add	x9, x9, #0xca0
   83450:	d000000b 	adrp	x11, 85000 <memcpy+0x14>
   83454:	910023ea 	add	x10, sp, #0x8
   83458:	912b816b 	add	x11, x11, #0xae0
   8345c:	5280004c 	mov	w12, #0x2                   	// #2
   83460:	a90427e8 	stp	x8, x9, [sp, #64]
   83464:	910103e8 	add	x8, sp, #0x40
   83468:	910043e0 	add	x0, sp, #0x10
   8346c:	aa0203e1 	mov	x1, x2
   83470:	a9027fff 	stp	xzr, xzr, [sp, #32]
   83474:	a90527ea 	stp	x10, x9, [sp, #80]
   83478:	a90133eb 	stp	x11, x12, [sp, #16]
   8347c:	a90333e8 	stp	x8, x12, [sp, #48]
   83480:	97ffffd5 	bl	833d4 <_ZN4core9panicking9panic_fmt17h150231a4307abbaeE>
   83484:	d4200020 	brk	#0x1

0000000000083488 <_ZN4core5slice5index22slice_index_order_fail17hc93ff9a37ea46a06E>:
   83488:	a9ba07e0 	stp	x0, x1, [sp, #-96]!
   8348c:	90000009 	adrp	x9, 83000 <_ZN4core3fmt8builders11DebugStruct5field17h9e0dae53a1c9bd69E+0x118>
   83490:	910003e8 	mov	x8, sp
   83494:	91328129 	add	x9, x9, #0xca0
   83498:	d000000b 	adrp	x11, 85000 <memcpy+0x14>
   8349c:	910023ea 	add	x10, sp, #0x8
   834a0:	912ca16b 	add	x11, x11, #0xb28
   834a4:	5280004c 	mov	w12, #0x2                   	// #2
   834a8:	a90427e8 	stp	x8, x9, [sp, #64]
   834ac:	910103e8 	add	x8, sp, #0x40
   834b0:	910043e0 	add	x0, sp, #0x10
   834b4:	aa0203e1 	mov	x1, x2
   834b8:	a9027fff 	stp	xzr, xzr, [sp, #32]
   834bc:	a90527ea 	stp	x10, x9, [sp, #80]
   834c0:	a90133eb 	stp	x11, x12, [sp, #16]
   834c4:	a90333e8 	stp	x8, x12, [sp, #48]
   834c8:	97ffffc3 	bl	833d4 <_ZN4core9panicking9panic_fmt17h150231a4307abbaeE>
   834cc:	d4200020 	brk	#0x1

00000000000834d0 <_ZN36_$LT$T$u20$as$u20$core..any..Any$GT$7type_id17h9c39b1c58082bda1E>:
   834d0:	d292e7a0 	mov	x0, #0x973d                	// #38717
   834d4:	f2bb25e0 	movk	x0, #0xd92f, lsl #16
   834d8:	f2cf68e0 	movk	x0, #0x7b47, lsl #32
   834dc:	f2f5ba20 	movk	x0, #0xadd1, lsl #48
   834e0:	d65f03c0 	ret

00000000000834e4 <_ZN4core5panic9PanicInfo7message17ha3e34dc3062522eeE>:
   834e4:	f9400800 	ldr	x0, [x0, #16]
   834e8:	d65f03c0 	ret

00000000000834ec <_ZN4core5panic9PanicInfo8location17hf5c21144beeed54cE>:
   834ec:	f9400c00 	ldr	x0, [x0, #24]
   834f0:	d65f03c0 	ret

00000000000834f4 <_ZN4core5panic8Location4file17h237dd86184e47232E>:
   834f4:	a9400408 	ldp	x8, x1, [x0]
   834f8:	aa0803e0 	mov	x0, x8
   834fc:	d65f03c0 	ret

0000000000083500 <_ZN4core5panic8Location4line17h9bf8d130953fcd1cE>:
   83500:	b9401000 	ldr	w0, [x0, #16]
   83504:	d65f03c0 	ret

0000000000083508 <_ZN71_$LT$core..ops..range..Range$LT$Idx$GT$$u20$as$u20$core..fmt..Debug$GT$3fmt17h21dbeb23b1c535f0E>:
   83508:	d10283ff 	sub	sp, sp, #0xa0
   8350c:	b9403028 	ldr	w8, [x1, #48]
   83510:	a9094ff4 	stp	x20, x19, [sp, #144]
   83514:	aa0103f3 	mov	x19, x1
   83518:	aa0003f4 	mov	x20, x0
   8351c:	a90857fe 	stp	x30, x21, [sp, #128]
   83520:	372005c8 	tbnz	w8, #4, 835d8 <_ZN71_$LT$core..ops..range..Range$LT$Idx$GT$$u20$as$u20$core..fmt..Debug$GT$3fmt17h21dbeb23b1c535f0E+0xd0>
   83524:	372807a8 	tbnz	w8, #5, 83618 <_ZN71_$LT$core..ops..range..Range$LT$Idx$GT$$u20$as$u20$core..fmt..Debug$GT$3fmt17h21dbeb23b1c535f0E+0x110>
   83528:	f9400288 	ldr	x8, [x20]
   8352c:	d344fd09 	lsr	x9, x8, #4
   83530:	f109c53f 	cmp	x9, #0x271
   83534:	54000b03 	b.cc	83694 <_ZN71_$LT$core..ops..range..Range$LT$Idx$GT$$u20$as$u20$core..fmt..Debug$GT$3fmt17h21dbeb23b1c535f0E+0x18c>  // b.lo, b.ul, b.last
   83538:	d28b296b 	mov	x11, #0x594b                	// #22859
   8353c:	f2a710cb 	movk	x11, #0x3886, lsl #16
   83540:	529c1fea 	mov	w10, #0xe0ff                	// #57599
   83544:	f2d8bacb 	movk	x11, #0xc5d6, lsl #32
   83548:	5290a3ed 	mov	w13, #0x851f                	// #34079
   8354c:	d000000f 	adrp	x15, 85000 <memcpy+0x14>
   83550:	aa1f03e9 	mov	x9, xzr
   83554:	72a0beaa 	movk	w10, #0x5f5, lsl #16
   83558:	f2e68dab 	movk	x11, #0x346d, lsl #48
   8355c:	5284e20c 	mov	w12, #0x2710                	// #10000
   83560:	72aa3d6d 	movk	w13, #0x51eb, lsl #16
   83564:	52800c8e 	mov	w14, #0x64                  	// #100
   83568:	9120a9ef 	add	x15, x15, #0x82a
   8356c:	910003f0 	mov	x16, sp
   83570:	aa0803f1 	mov	x17, x8
   83574:	9bcb7d08 	umulh	x8, x8, x11
   83578:	d34bfd08 	lsr	x8, x8, #11
   8357c:	eb0a023f 	cmp	x17, x10
   83580:	1b0cc511 	msub	w17, w8, w12, w17
   83584:	12003e20 	and	w0, w17, #0xffff
   83588:	9bad7c00 	umull	x0, w0, w13
   8358c:	d365fc00 	lsr	x0, x0, #37
   83590:	1b0ec411 	msub	w17, w0, w14, w17
   83594:	8b0005e0 	add	x0, x15, x0, lsl #1
   83598:	8b3125f1 	add	x17, x15, w17, uxth #1
   8359c:	39400001 	ldrb	w1, [x0]
   835a0:	39400400 	ldrb	w0, [x0, #1]
   835a4:	39400622 	ldrb	w2, [x17, #1]
   835a8:	39400231 	ldrb	w17, [x17]
   835ac:	8b090212 	add	x18, x16, x9
   835b0:	d1001129 	sub	x9, x9, #0x4
   835b4:	39009240 	strb	w0, [x18, #36]
   835b8:	39008e41 	strb	w1, [x18, #35]
   835bc:	39009a42 	strb	w2, [x18, #38]
   835c0:	39009651 	strb	w17, [x18, #37]
   835c4:	54fffd68 	b.hi	83570 <_ZN71_$LT$core..ops..range..Range$LT$Idx$GT$$u20$as$u20$core..fmt..Debug$GT$3fmt17h21dbeb23b1c535f0E+0x68>  // b.pmore
   835c8:	91009d29 	add	x9, x9, #0x27
   835cc:	f1018d1f 	cmp	x8, #0x63
   835d0:	5400068c 	b.gt	836a0 <_ZN71_$LT$core..ops..range..Range$LT$Idx$GT$$u20$as$u20$core..fmt..Debug$GT$3fmt17h21dbeb23b1c535f0E+0x198>
   835d4:	14000045 	b	836e8 <_ZN71_$LT$core..ops..range..Range$LT$Idx$GT$$u20$as$u20$core..fmt..Debug$GT$3fmt17h21dbeb23b1c535f0E+0x1e0>
   835d8:	f940028a 	ldr	x10, [x20]
   835dc:	aa1f03e8 	mov	x8, xzr
   835e0:	910003e9 	mov	x9, sp
   835e4:	12000d4d 	and	w13, w10, #0xf
   835e8:	5280060e 	mov	w14, #0x30                  	// #48
   835ec:	d344fd4c 	lsr	x12, x10, #4
   835f0:	33000d4e 	bfxil	w14, w10, #0, #4
   835f4:	11015daa 	add	w10, w13, #0x57
   835f8:	710029bf 	cmp	w13, #0xa
   835fc:	8b08012b 	add	x11, x9, x8
   83600:	1a8a31ca 	csel	w10, w14, w10, cc  // cc = lo, ul, last
   83604:	3901fd6a 	strb	w10, [x11, #127]
   83608:	d1000508 	sub	x8, x8, #0x1
   8360c:	aa0c03ea 	mov	x10, x12
   83610:	b5fffeac 	cbnz	x12, 835e4 <_ZN71_$LT$core..ops..range..Range$LT$Idx$GT$$u20$as$u20$core..fmt..Debug$GT$3fmt17h21dbeb23b1c535f0E+0xdc>
   83614:	14000010 	b	83654 <_ZN71_$LT$core..ops..range..Range$LT$Idx$GT$$u20$as$u20$core..fmt..Debug$GT$3fmt17h21dbeb23b1c535f0E+0x14c>
   83618:	f940028a 	ldr	x10, [x20]
   8361c:	aa1f03e8 	mov	x8, xzr
   83620:	910003e9 	mov	x9, sp
   83624:	12000d4d 	and	w13, w10, #0xf
   83628:	5280060e 	mov	w14, #0x30                  	// #48
   8362c:	d344fd4c 	lsr	x12, x10, #4
   83630:	33000d4e 	bfxil	w14, w10, #0, #4
   83634:	1100ddaa 	add	w10, w13, #0x37
   83638:	710029bf 	cmp	w13, #0xa
   8363c:	8b08012b 	add	x11, x9, x8
   83640:	1a8a31ca 	csel	w10, w14, w10, cc  // cc = lo, ul, last
   83644:	3901fd6a 	strb	w10, [x11, #127]
   83648:	d1000508 	sub	x8, x8, #0x1
   8364c:	aa0c03ea 	mov	x10, x12
   83650:	b5fffeac 	cbnz	x12, 83624 <_ZN71_$LT$core..ops..range..Range$LT$Idx$GT$$u20$as$u20$core..fmt..Debug$GT$3fmt17h21dbeb23b1c535f0E+0x11c>
   83654:	91020100 	add	x0, x8, #0x80
   83658:	f102041f 	cmp	x0, #0x81
   8365c:	54001542 	b.cs	83904 <_ZN71_$LT$core..ops..range..Range$LT$Idx$GT$$u20$as$u20$core..fmt..Debug$GT$3fmt17h21dbeb23b1c535f0E+0x3fc>  // b.hs, b.nlast
   83660:	910003e9 	mov	x9, sp
   83664:	cb0803e5 	neg	x5, x8
   83668:	8b080128 	add	x8, x9, x8
   8366c:	d0000002 	adrp	x2, 85000 <memcpy+0x14>
   83670:	91020104 	add	x4, x8, #0x80
   83674:	9120a042 	add	x2, x2, #0x828
   83678:	52800021 	mov	w1, #0x1                   	// #1
   8367c:	52800043 	mov	w3, #0x2                   	// #2
   83680:	52800035 	mov	w21, #0x1                   	// #1
   83684:	aa1303e0 	mov	x0, x19
   83688:	9400037d 	bl	8447c <_ZN4core3fmt9Formatter12pad_integral17hd76664d265795836E>
   8368c:	36000680 	tbz	w0, #0, 8375c <_ZN71_$LT$core..ops..range..Range$LT$Idx$GT$$u20$as$u20$core..fmt..Debug$GT$3fmt17h21dbeb23b1c535f0E+0x254>
   83690:	140000d4 	b	839e0 <_ZN71_$LT$core..ops..range..Range$LT$Idx$GT$$u20$as$u20$core..fmt..Debug$GT$3fmt17h21dbeb23b1c535f0E+0x4d8>
   83694:	528004e9 	mov	w9, #0x27                  	// #39
   83698:	f1018d1f 	cmp	x8, #0x63
   8369c:	5400026d 	b.le	836e8 <_ZN71_$LT$core..ops..range..Range$LT$Idx$GT$$u20$as$u20$core..fmt..Debug$GT$3fmt17h21dbeb23b1c535f0E+0x1e0>
   836a0:	5290a3eb 	mov	w11, #0x851f                	// #34079
   836a4:	12003d0a 	and	w10, w8, #0xffff
   836a8:	72aa3d6b 	movk	w11, #0x51eb, lsl #16
   836ac:	9bab7d4a 	umull	x10, w10, w11
   836b0:	52800c8c 	mov	w12, #0x64                  	// #100
   836b4:	d000000b 	adrp	x11, 85000 <memcpy+0x14>
   836b8:	d365fd4a 	lsr	x10, x10, #37
   836bc:	9120a96b 	add	x11, x11, #0x82a
   836c0:	1b0ca148 	msub	w8, w10, w12, w8
   836c4:	8b282568 	add	x8, x11, w8, uxth #1
   836c8:	3940050b 	ldrb	w11, [x8, #1]
   836cc:	39400108 	ldrb	w8, [x8]
   836d0:	d1000929 	sub	x9, x9, #0x2
   836d4:	910003ec 	mov	x12, sp
   836d8:	8b09018c 	add	x12, x12, x9
   836dc:	39000188 	strb	w8, [x12]
   836e0:	aa0a03e8 	mov	x8, x10
   836e4:	3900058b 	strb	w11, [x12, #1]
   836e8:	f100291f 	cmp	x8, #0xa
   836ec:	540000ca 	b.ge	83704 <_ZN71_$LT$core..ops..range..Range$LT$Idx$GT$$u20$as$u20$core..fmt..Debug$GT$3fmt17h21dbeb23b1c535f0E+0x1fc>  // b.tcont
   836f0:	d1000529 	sub	x9, x9, #0x1
   836f4:	1100c108 	add	w8, w8, #0x30
   836f8:	910003ea 	mov	x10, sp
   836fc:	38296948 	strb	w8, [x10, x9]
   83700:	1400000b 	b	8372c <_ZN71_$LT$core..ops..range..Range$LT$Idx$GT$$u20$as$u20$core..fmt..Debug$GT$3fmt17h21dbeb23b1c535f0E+0x224>
   83704:	d000000a 	adrp	x10, 85000 <memcpy+0x14>
   83708:	9120a94a 	add	x10, x10, #0x82a
   8370c:	8b080548 	add	x8, x10, x8, lsl #1
   83710:	3940050a 	ldrb	w10, [x8, #1]
   83714:	39400108 	ldrb	w8, [x8]
   83718:	d1000929 	sub	x9, x9, #0x2
   8371c:	910003eb 	mov	x11, sp
   83720:	8b09016b 	add	x11, x11, x9
   83724:	3900056a 	strb	w10, [x11, #1]
   83728:	39000168 	strb	w8, [x11]
   8372c:	910003e8 	mov	x8, sp
   83730:	528004ea 	mov	w10, #0x27                  	// #39
   83734:	d0000002 	adrp	x2, 85000 <memcpy+0x14>
   83738:	8b090104 	add	x4, x8, x9
   8373c:	cb090145 	sub	x5, x10, x9
   83740:	912d8042 	add	x2, x2, #0xb60
   83744:	52800021 	mov	w1, #0x1                   	// #1
   83748:	52800035 	mov	w21, #0x1                   	// #1
   8374c:	aa1303e0 	mov	x0, x19
   83750:	aa1f03e3 	mov	x3, xzr
   83754:	9400034a 	bl	8447c <_ZN4core3fmt9Formatter12pad_integral17hd76664d265795836E>
   83758:	37001440 	tbnz	w0, #0, 839e0 <_ZN71_$LT$core..ops..range..Range$LT$Idx$GT$$u20$as$u20$core..fmt..Debug$GT$3fmt17h21dbeb23b1c535f0E+0x4d8>
   8375c:	a9420660 	ldp	x0, x1, [x19, #32]
   83760:	d0000008 	adrp	x8, 85000 <memcpy+0x14>
   83764:	912d4108 	add	x8, x8, #0xb50
   83768:	52800035 	mov	w21, #0x1                   	// #1
   8376c:	a90057e8 	stp	x8, x21, [sp]
   83770:	d0000008 	adrp	x8, 85000 <memcpy+0x14>
   83774:	912d8108 	add	x8, x8, #0xb60
   83778:	910003e2 	mov	x2, sp
   8377c:	a9017fff 	stp	xzr, xzr, [sp, #16]
   83780:	a9027fe8 	stp	x8, xzr, [sp, #32]
   83784:	940002bf 	bl	84280 <_ZN4core3fmt5write17hb5f6a3bd29bb9808E>
   83788:	350012c0 	cbnz	w0, 839e0 <_ZN71_$LT$core..ops..range..Range$LT$Idx$GT$$u20$as$u20$core..fmt..Debug$GT$3fmt17h21dbeb23b1c535f0E+0x4d8>
   8378c:	b9403268 	ldr	w8, [x19, #48]
   83790:	37200588 	tbnz	w8, #4, 83840 <_ZN71_$LT$core..ops..range..Range$LT$Idx$GT$$u20$as$u20$core..fmt..Debug$GT$3fmt17h21dbeb23b1c535f0E+0x338>
   83794:	37280948 	tbnz	w8, #5, 838bc <_ZN71_$LT$core..ops..range..Range$LT$Idx$GT$$u20$as$u20$core..fmt..Debug$GT$3fmt17h21dbeb23b1c535f0E+0x3b4>
   83798:	f9400688 	ldr	x8, [x20, #8]
   8379c:	d344fd09 	lsr	x9, x8, #4
   837a0:	f109c53f 	cmp	x9, #0x271
   837a4:	54000ba3 	b.cc	83918 <_ZN71_$LT$core..ops..range..Range$LT$Idx$GT$$u20$as$u20$core..fmt..Debug$GT$3fmt17h21dbeb23b1c535f0E+0x410>  // b.lo, b.ul, b.last
   837a8:	d28b296b 	mov	x11, #0x594b                	// #22859
   837ac:	f2a710cb 	movk	x11, #0x3886, lsl #16
   837b0:	529c1fea 	mov	w10, #0xe0ff                	// #57599
   837b4:	f2d8bacb 	movk	x11, #0xc5d6, lsl #32
   837b8:	5290a3ed 	mov	w13, #0x851f                	// #34079
   837bc:	d000000f 	adrp	x15, 85000 <memcpy+0x14>
   837c0:	aa1f03e9 	mov	x9, xzr
   837c4:	72a0beaa 	movk	w10, #0x5f5, lsl #16
   837c8:	f2e68dab 	movk	x11, #0x346d, lsl #48
   837cc:	5284e20c 	mov	w12, #0x2710                	// #10000
   837d0:	72aa3d6d 	movk	w13, #0x51eb, lsl #16
   837d4:	52800c8e 	mov	w14, #0x64                  	// #100
   837d8:	9120a9ef 	add	x15, x15, #0x82a
   837dc:	910003f0 	mov	x16, sp
   837e0:	aa0803f1 	mov	x17, x8
   837e4:	9bcb7d08 	umulh	x8, x8, x11
   837e8:	d34bfd08 	lsr	x8, x8, #11
   837ec:	eb0a023f 	cmp	x17, x10
   837f0:	1b0cc511 	msub	w17, w8, w12, w17
   837f4:	12003e20 	and	w0, w17, #0xffff
   837f8:	9bad7c00 	umull	x0, w0, w13
   837fc:	d365fc00 	lsr	x0, x0, #37
   83800:	1b0ec411 	msub	w17, w0, w14, w17
   83804:	8b0005e0 	add	x0, x15, x0, lsl #1
   83808:	8b3125f1 	add	x17, x15, w17, uxth #1
   8380c:	39400001 	ldrb	w1, [x0]
   83810:	39400400 	ldrb	w0, [x0, #1]
   83814:	39400622 	ldrb	w2, [x17, #1]
   83818:	39400231 	ldrb	w17, [x17]
   8381c:	8b090212 	add	x18, x16, x9
   83820:	d1001129 	sub	x9, x9, #0x4
   83824:	39009240 	strb	w0, [x18, #36]
   83828:	39008e41 	strb	w1, [x18, #35]
   8382c:	39009a42 	strb	w2, [x18, #38]
   83830:	39009651 	strb	w17, [x18, #37]
   83834:	54fffd68 	b.hi	837e0 <_ZN71_$LT$core..ops..range..Range$LT$Idx$GT$$u20$as$u20$core..fmt..Debug$GT$3fmt17h21dbeb23b1c535f0E+0x2d8>  // b.pmore
   83838:	91009d29 	add	x9, x9, #0x27
   8383c:	14000038 	b	8391c <_ZN71_$LT$core..ops..range..Range$LT$Idx$GT$$u20$as$u20$core..fmt..Debug$GT$3fmt17h21dbeb23b1c535f0E+0x414>
   83840:	f940068a 	ldr	x10, [x20, #8]
   83844:	aa1f03e8 	mov	x8, xzr
   83848:	910003e9 	mov	x9, sp
   8384c:	12000d4d 	and	w13, w10, #0xf
   83850:	5280060e 	mov	w14, #0x30                  	// #48
   83854:	d344fd4c 	lsr	x12, x10, #4
   83858:	33000d4e 	bfxil	w14, w10, #0, #4
   8385c:	11015daa 	add	w10, w13, #0x57
   83860:	710029bf 	cmp	w13, #0xa
   83864:	8b08012b 	add	x11, x9, x8
   83868:	1a8a31ca 	csel	w10, w14, w10, cc  // cc = lo, ul, last
   8386c:	3901fd6a 	strb	w10, [x11, #127]
   83870:	d1000508 	sub	x8, x8, #0x1
   83874:	aa0c03ea 	mov	x10, x12
   83878:	b5fffeac 	cbnz	x12, 8384c <_ZN71_$LT$core..ops..range..Range$LT$Idx$GT$$u20$as$u20$core..fmt..Debug$GT$3fmt17h21dbeb23b1c535f0E+0x344>
   8387c:	91020100 	add	x0, x8, #0x80
   83880:	f102041f 	cmp	x0, #0x81
   83884:	54000402 	b.cs	83904 <_ZN71_$LT$core..ops..range..Range$LT$Idx$GT$$u20$as$u20$core..fmt..Debug$GT$3fmt17h21dbeb23b1c535f0E+0x3fc>  // b.hs, b.nlast
   83888:	910003e9 	mov	x9, sp
   8388c:	cb0803e5 	neg	x5, x8
   83890:	8b080128 	add	x8, x9, x8
   83894:	d0000002 	adrp	x2, 85000 <memcpy+0x14>
   83898:	91020104 	add	x4, x8, #0x80
   8389c:	9120a042 	add	x2, x2, #0x828
   838a0:	52800021 	mov	w1, #0x1                   	// #1
   838a4:	52800043 	mov	w3, #0x2                   	// #2
   838a8:	aa1303e0 	mov	x0, x19
   838ac:	940002f4 	bl	8447c <_ZN4core3fmt9Formatter12pad_integral17hd76664d265795836E>
   838b0:	36000960 	tbz	w0, #0, 839dc <_ZN71_$LT$core..ops..range..Range$LT$Idx$GT$$u20$as$u20$core..fmt..Debug$GT$3fmt17h21dbeb23b1c535f0E+0x4d4>
   838b4:	52800035 	mov	w21, #0x1                   	// #1
   838b8:	1400004a 	b	839e0 <_ZN71_$LT$core..ops..range..Range$LT$Idx$GT$$u20$as$u20$core..fmt..Debug$GT$3fmt17h21dbeb23b1c535f0E+0x4d8>
   838bc:	f940068a 	ldr	x10, [x20, #8]
   838c0:	aa1f03e8 	mov	x8, xzr
   838c4:	910003e9 	mov	x9, sp
   838c8:	12000d4d 	and	w13, w10, #0xf
   838cc:	5280060e 	mov	w14, #0x30                  	// #48
   838d0:	d344fd4c 	lsr	x12, x10, #4
   838d4:	33000d4e 	bfxil	w14, w10, #0, #4
   838d8:	1100ddaa 	add	w10, w13, #0x37
   838dc:	710029bf 	cmp	w13, #0xa
   838e0:	8b08012b 	add	x11, x9, x8
   838e4:	1a8a31ca 	csel	w10, w14, w10, cc  // cc = lo, ul, last
   838e8:	3901fd6a 	strb	w10, [x11, #127]
   838ec:	d1000508 	sub	x8, x8, #0x1
   838f0:	aa0c03ea 	mov	x10, x12
   838f4:	b5fffeac 	cbnz	x12, 838c8 <_ZN71_$LT$core..ops..range..Range$LT$Idx$GT$$u20$as$u20$core..fmt..Debug$GT$3fmt17h21dbeb23b1c535f0E+0x3c0>
   838f8:	91020100 	add	x0, x8, #0x80
   838fc:	f102041f 	cmp	x0, #0x81
   83900:	54fffc43 	b.cc	83888 <_ZN71_$LT$core..ops..range..Range$LT$Idx$GT$$u20$as$u20$core..fmt..Debug$GT$3fmt17h21dbeb23b1c535f0E+0x380>  // b.lo, b.ul, b.last
   83904:	d0000002 	adrp	x2, 85000 <memcpy+0x14>
   83908:	91204042 	add	x2, x2, #0x810
   8390c:	52801001 	mov	w1, #0x80                  	// #128
   83910:	97fffeba 	bl	833f8 <_ZN4core5slice5index26slice_start_index_len_fail17h92d701fb2ff102e6E>
   83914:	d4200020 	brk	#0x1
   83918:	528004e9 	mov	w9, #0x27                  	// #39
   8391c:	f1018d1f 	cmp	x8, #0x63
   83920:	5400026d 	b.le	8396c <_ZN71_$LT$core..ops..range..Range$LT$Idx$GT$$u20$as$u20$core..fmt..Debug$GT$3fmt17h21dbeb23b1c535f0E+0x464>
   83924:	5290a3eb 	mov	w11, #0x851f                	// #34079
   83928:	12003d0a 	and	w10, w8, #0xffff
   8392c:	72aa3d6b 	movk	w11, #0x51eb, lsl #16
   83930:	9bab7d4a 	umull	x10, w10, w11
   83934:	52800c8c 	mov	w12, #0x64                  	// #100
   83938:	d000000b 	adrp	x11, 85000 <memcpy+0x14>
   8393c:	d365fd4a 	lsr	x10, x10, #37
   83940:	9120a96b 	add	x11, x11, #0x82a
   83944:	1b0ca148 	msub	w8, w10, w12, w8
   83948:	8b282568 	add	x8, x11, w8, uxth #1
   8394c:	3940050b 	ldrb	w11, [x8, #1]
   83950:	39400108 	ldrb	w8, [x8]
   83954:	d1000929 	sub	x9, x9, #0x2
   83958:	910003ec 	mov	x12, sp
   8395c:	8b09018c 	add	x12, x12, x9
   83960:	39000188 	strb	w8, [x12]
   83964:	aa0a03e8 	mov	x8, x10
   83968:	3900058b 	strb	w11, [x12, #1]
   8396c:	f100291f 	cmp	x8, #0xa
   83970:	540000ca 	b.ge	83988 <_ZN71_$LT$core..ops..range..Range$LT$Idx$GT$$u20$as$u20$core..fmt..Debug$GT$3fmt17h21dbeb23b1c535f0E+0x480>  // b.tcont
   83974:	d1000529 	sub	x9, x9, #0x1
   83978:	1100c108 	add	w8, w8, #0x30
   8397c:	910003ea 	mov	x10, sp
   83980:	38296948 	strb	w8, [x10, x9]
   83984:	1400000b 	b	839b0 <_ZN71_$LT$core..ops..range..Range$LT$Idx$GT$$u20$as$u20$core..fmt..Debug$GT$3fmt17h21dbeb23b1c535f0E+0x4a8>
   83988:	d000000a 	adrp	x10, 85000 <memcpy+0x14>
   8398c:	9120a94a 	add	x10, x10, #0x82a
   83990:	8b080548 	add	x8, x10, x8, lsl #1
   83994:	3940050a 	ldrb	w10, [x8, #1]
   83998:	39400108 	ldrb	w8, [x8]
   8399c:	d1000929 	sub	x9, x9, #0x2
   839a0:	910003eb 	mov	x11, sp
   839a4:	8b09016b 	add	x11, x11, x9
   839a8:	3900056a 	strb	w10, [x11, #1]
   839ac:	39000168 	strb	w8, [x11]
   839b0:	910003e8 	mov	x8, sp
   839b4:	528004ea 	mov	w10, #0x27                  	// #39
   839b8:	d0000002 	adrp	x2, 85000 <memcpy+0x14>
   839bc:	8b090104 	add	x4, x8, x9
   839c0:	cb090145 	sub	x5, x10, x9
   839c4:	912d8042 	add	x2, x2, #0xb60
   839c8:	52800021 	mov	w1, #0x1                   	// #1
   839cc:	aa1303e0 	mov	x0, x19
   839d0:	aa1f03e3 	mov	x3, xzr
   839d4:	940002aa 	bl	8447c <_ZN4core3fmt9Formatter12pad_integral17hd76664d265795836E>
   839d8:	35fff6e0 	cbnz	w0, 838b4 <_ZN71_$LT$core..ops..range..Range$LT$Idx$GT$$u20$as$u20$core..fmt..Debug$GT$3fmt17h21dbeb23b1c535f0E+0x3ac>
   839dc:	2a1f03f5 	mov	w21, wzr
   839e0:	2a1503e0 	mov	w0, w21
   839e4:	a9494ff4 	ldp	x20, x19, [sp, #144]
   839e8:	a94857fe 	ldp	x30, x21, [sp, #128]
   839ec:	910283ff 	add	sp, sp, #0xa0
   839f0:	d65f03c0 	ret

00000000000839f4 <_ZN4core7unicode9printable5check17h3df87d4e8e554ccdE.llvm.5445877691761700591>:
   839f4:	b4000322 	cbz	x2, 83a58 <_ZN4core7unicode9printable5check17h3df87d4e8e554ccdE.llvm.5445877691761700591+0x64>
   839f8:	aa1f03e9 	mov	x9, xzr
   839fc:	8b02042a 	add	x10, x1, x2, lsl #1
   83a00:	39400028 	ldrb	w8, [x1]
   83a04:	3940042b 	ldrb	w11, [x1, #1]
   83a08:	12181c0c 	and	w12, w0, #0xff00
   83a0c:	91000821 	add	x1, x1, #0x2
   83a10:	6b4c211f 	cmp	w8, w12, lsr #8
   83a14:	8b0b0128 	add	x8, x9, x11
   83a18:	54000181 	b.ne	83a48 <_ZN4core7unicode9printable5check17h3df87d4e8e554ccdE.llvm.5445877691761700591+0x54>  // b.any
   83a1c:	eb09011f 	cmp	x8, x9
   83a20:	540006c3 	b.cc	83af8 <_ZN4core7unicode9printable5check17h3df87d4e8e554ccdE.llvm.5445877691761700591+0x104>  // b.lo, b.ul, b.last
   83a24:	eb04011f 	cmp	x8, x4
   83a28:	54000748 	b.hi	83b10 <_ZN4core7unicode9printable5check17h3df87d4e8e554ccdE.llvm.5445877691761700591+0x11c>  // b.pmore
   83a2c:	8b090069 	add	x9, x3, x9
   83a30:	b40000eb 	cbz	x11, 83a4c <_ZN4core7unicode9printable5check17h3df87d4e8e554ccdE.llvm.5445877691761700591+0x58>
   83a34:	3840152c 	ldrb	w12, [x9], #1
   83a38:	d100056b 	sub	x11, x11, #0x1
   83a3c:	6b20019f 	cmp	w12, w0, uxtb
   83a40:	54ffff81 	b.ne	83a30 <_ZN4core7unicode9printable5check17h3df87d4e8e554ccdE.llvm.5445877691761700591+0x3c>  // b.any
   83a44:	14000020 	b	83ac4 <_ZN4core7unicode9printable5check17h3df87d4e8e554ccdE.llvm.5445877691761700591+0xd0>
   83a48:	54000088 	b.hi	83a58 <_ZN4core7unicode9printable5check17h3df87d4e8e554ccdE.llvm.5445877691761700591+0x64>  // b.pmore
   83a4c:	eb0a003f 	cmp	x1, x10
   83a50:	aa0803e9 	mov	x9, x8
   83a54:	54fffd61 	b.ne	83a00 <_ZN4core7unicode9printable5check17h3df87d4e8e554ccdE.llvm.5445877691761700591+0xc>  // b.any
   83a58:	b40003c6 	cbz	x6, 83ad0 <_ZN4core7unicode9printable5check17h3df87d4e8e554ccdE.llvm.5445877691761700591+0xdc>
   83a5c:	8b0600a9 	add	x9, x5, x6
   83a60:	910004aa 	add	x10, x5, #0x1
   83a64:	12003c0b 	and	w11, w0, #0xffff
   83a68:	52800028 	mov	w8, #0x1                   	// #1
   83a6c:	39c000ad 	ldrsb	w13, [x5]
   83a70:	12001dac 	and	w12, w13, #0xff
   83a74:	36f8010d 	tbz	w13, #31, 83a94 <_ZN4core7unicode9printable5check17h3df87d4e8e554ccdE.llvm.5445877691761700591+0xa0>
   83a78:	eb09015f 	cmp	x10, x9
   83a7c:	54000300 	b.eq	83adc <_ZN4core7unicode9printable5check17h3df87d4e8e554ccdE.llvm.5445877691761700591+0xe8>  // b.none
   83a80:	b40002ea 	cbz	x10, 83adc <_ZN4core7unicode9printable5check17h3df87d4e8e554ccdE.llvm.5445877691761700591+0xe8>
   83a84:	3840154d 	ldrb	w13, [x10], #1
   83a88:	1200198c 	and	w12, w12, #0x7f
   83a8c:	3318198d 	bfi	w13, w12, #8, #7
   83a90:	2a0d03ec 	mov	w12, w13
   83a94:	6b0c016b 	subs	w11, w11, w12
   83a98:	54000184 	b.mi	83ac8 <_ZN4core7unicode9printable5check17h3df87d4e8e554ccdE.llvm.5445877691761700591+0xd4>  // b.first
   83a9c:	eb09015f 	cmp	x10, x9
   83aa0:	9a8a03e5 	csel	x5, xzr, x10, eq  // eq = none
   83aa4:	52000108 	eor	w8, w8, #0x1
   83aa8:	b4000105 	cbz	x5, 83ac8 <_ZN4core7unicode9printable5check17h3df87d4e8e554ccdE.llvm.5445877691761700591+0xd4>
   83aac:	eb09015f 	cmp	x10, x9
   83ab0:	9a8a054a 	cinc	x10, x10, ne  // ne = any
   83ab4:	39c000ad 	ldrsb	w13, [x5]
   83ab8:	12001dac 	and	w12, w13, #0xff
   83abc:	36fffecd 	tbz	w13, #31, 83a94 <_ZN4core7unicode9printable5check17h3df87d4e8e554ccdE.llvm.5445877691761700591+0xa0>
   83ac0:	17ffffee 	b	83a78 <_ZN4core7unicode9printable5check17h3df87d4e8e554ccdE.llvm.5445877691761700591+0x84>
   83ac4:	2a1f03e8 	mov	w8, wzr
   83ac8:	12000100 	and	w0, w8, #0x1
   83acc:	d65f03c0 	ret
   83ad0:	52800028 	mov	w8, #0x1                   	// #1
   83ad4:	12000100 	and	w0, w8, #0x1
   83ad8:	d65f03c0 	ret
   83adc:	d0000000 	adrp	x0, 85000 <memcpy+0x14>
   83ae0:	d0000002 	adrp	x2, 85000 <memcpy+0x14>
   83ae4:	912d8000 	add	x0, x0, #0xb60
   83ae8:	9130a042 	add	x2, x2, #0xc28
   83aec:	52800561 	mov	w1, #0x2b                  	// #43
   83af0:	97fffe1a 	bl	83358 <_ZN4core9panicking5panic17h44d2e7d60b187585E>
   83af4:	d4200020 	brk	#0x1
   83af8:	d0000002 	adrp	x2, 85000 <memcpy+0x14>
   83afc:	91304042 	add	x2, x2, #0xc10
   83b00:	aa0903e0 	mov	x0, x9
   83b04:	aa0803e1 	mov	x1, x8
   83b08:	97fffe60 	bl	83488 <_ZN4core5slice5index22slice_index_order_fail17hc93ff9a37ea46a06E>
   83b0c:	d4200020 	brk	#0x1
   83b10:	d0000002 	adrp	x2, 85000 <memcpy+0x14>
   83b14:	91304042 	add	x2, x2, #0xc10
   83b18:	aa0803e0 	mov	x0, x8
   83b1c:	aa0403e1 	mov	x1, x4
   83b20:	97fffe48 	bl	83440 <_ZN4core5slice5index24slice_end_index_len_fail17h6bcdd69b5c9d3928E>
   83b24:	d4200020 	brk	#0x1

0000000000083b28 <_ZN4core3fmt3num3imp52_$LT$impl$u20$core..fmt..Display$u20$for$u20$u32$GT$3fmt17hec05b80591ab5f4eE>:
   83b28:	d10103ff 	sub	sp, sp, #0x40
   83b2c:	b940000a 	ldr	w10, [x0]
   83b30:	aa0103e8 	mov	x8, x1
   83b34:	f9001bfe 	str	x30, [sp, #48]
   83b38:	d3447d49 	ubfx	x9, x10, #4, #28
   83b3c:	7109c53f 	cmp	w9, #0x271
   83b40:	d0000009 	adrp	x9, 85000 <memcpy+0x14>
   83b44:	9120a929 	add	x9, x9, #0x82a
   83b48:	540004e3 	b.cc	83be4 <_ZN4core3fmt3num3imp52_$LT$impl$u20$core..fmt..Display$u20$for$u20$u32$GT$3fmt17hec05b80591ab5f4eE+0xbc>  // b.lo, b.ul, b.last
   83b4c:	d28b296c 	mov	x12, #0x594b                	// #22859
   83b50:	f2a710cc 	movk	x12, #0x3886, lsl #16
   83b54:	f2d8bacc 	movk	x12, #0xc5d6, lsl #32
   83b58:	5290a3ee 	mov	w14, #0x851f                	// #34079
   83b5c:	529c1ff1 	mov	w17, #0xe0ff                	// #57599
   83b60:	aa1f03eb 	mov	x11, xzr
   83b64:	f2e68dac 	movk	x12, #0x346d, lsl #48
   83b68:	5284e20d 	mov	w13, #0x2710                	// #10000
   83b6c:	72aa3d6e 	movk	w14, #0x51eb, lsl #16
   83b70:	52800c8f 	mov	w15, #0x64                  	// #100
   83b74:	910023f0 	add	x16, sp, #0x8
   83b78:	72a0beb1 	movk	w17, #0x5f5, lsl #16
   83b7c:	aa0a03f2 	mov	x18, x10
   83b80:	9bcc7d4a 	umulh	x10, x10, x12
   83b84:	d34bfd4a 	lsr	x10, x10, #11
   83b88:	eb11025f 	cmp	x18, x17
   83b8c:	1b0dc952 	msub	w18, w10, w13, w18
   83b90:	12003e41 	and	w1, w18, #0xffff
   83b94:	9bae7c21 	umull	x1, w1, w14
   83b98:	d365fc21 	lsr	x1, x1, #37
   83b9c:	1b0fc832 	msub	w18, w1, w15, w18
   83ba0:	8b010521 	add	x1, x9, x1, lsl #1
   83ba4:	8b322532 	add	x18, x9, w18, uxth #1
   83ba8:	39400022 	ldrb	w2, [x1]
   83bac:	39400421 	ldrb	w1, [x1, #1]
   83bb0:	39400643 	ldrb	w3, [x18, #1]
   83bb4:	39400252 	ldrb	w18, [x18]
   83bb8:	8b0b0200 	add	x0, x16, x11
   83bbc:	d100116b 	sub	x11, x11, #0x4
   83bc0:	39009001 	strb	w1, [x0, #36]
   83bc4:	39008c02 	strb	w2, [x0, #35]
   83bc8:	39009803 	strb	w3, [x0, #38]
   83bcc:	39009412 	strb	w18, [x0, #37]
   83bd0:	54fffd68 	b.hi	83b7c <_ZN4core3fmt3num3imp52_$LT$impl$u20$core..fmt..Display$u20$for$u20$u32$GT$3fmt17hec05b80591ab5f4eE+0x54>  // b.pmore
   83bd4:	91009d6b 	add	x11, x11, #0x27
   83bd8:	f1018d5f 	cmp	x10, #0x63
   83bdc:	540000a8 	b.hi	83bf0 <_ZN4core3fmt3num3imp52_$LT$impl$u20$core..fmt..Display$u20$for$u20$u32$GT$3fmt17hec05b80591ab5f4eE+0xc8>  // b.pmore
   83be0:	14000014 	b	83c30 <_ZN4core3fmt3num3imp52_$LT$impl$u20$core..fmt..Display$u20$for$u20$u32$GT$3fmt17hec05b80591ab5f4eE+0x108>
   83be4:	528004eb 	mov	w11, #0x27                  	// #39
   83be8:	f1018d5f 	cmp	x10, #0x63
   83bec:	54000229 	b.ls	83c30 <_ZN4core3fmt3num3imp52_$LT$impl$u20$core..fmt..Display$u20$for$u20$u32$GT$3fmt17hec05b80591ab5f4eE+0x108>  // b.plast
   83bf0:	5290a3ed 	mov	w13, #0x851f                	// #34079
   83bf4:	12003d4c 	and	w12, w10, #0xffff
   83bf8:	72aa3d6d 	movk	w13, #0x51eb, lsl #16
   83bfc:	9bad7d8c 	umull	x12, w12, w13
   83c00:	52800c8e 	mov	w14, #0x64                  	// #100
   83c04:	d365fd8c 	lsr	x12, x12, #37
   83c08:	1b0ea98a 	msub	w10, w12, w14, w10
   83c0c:	8b2a252a 	add	x10, x9, w10, uxth #1
   83c10:	3940054d 	ldrb	w13, [x10, #1]
   83c14:	3940014a 	ldrb	w10, [x10]
   83c18:	d100096b 	sub	x11, x11, #0x2
   83c1c:	910023ee 	add	x14, sp, #0x8
   83c20:	8b0b01ce 	add	x14, x14, x11
   83c24:	390001ca 	strb	w10, [x14]
   83c28:	aa0c03ea 	mov	x10, x12
   83c2c:	390005cd 	strb	w13, [x14, #1]
   83c30:	f100295f 	cmp	x10, #0xa
   83c34:	540000ca 	b.ge	83c4c <_ZN4core3fmt3num3imp52_$LT$impl$u20$core..fmt..Display$u20$for$u20$u32$GT$3fmt17hec05b80591ab5f4eE+0x124>  // b.tcont
   83c38:	d100056b 	sub	x11, x11, #0x1
   83c3c:	1100c149 	add	w9, w10, #0x30
   83c40:	910023ea 	add	x10, sp, #0x8
   83c44:	382b6949 	strb	w9, [x10, x11]
   83c48:	14000009 	b	83c6c <_ZN4core3fmt3num3imp52_$LT$impl$u20$core..fmt..Display$u20$for$u20$u32$GT$3fmt17hec05b80591ab5f4eE+0x144>
   83c4c:	8b0a0529 	add	x9, x9, x10, lsl #1
   83c50:	3940052a 	ldrb	w10, [x9, #1]
   83c54:	39400129 	ldrb	w9, [x9]
   83c58:	d100096b 	sub	x11, x11, #0x2
   83c5c:	910023ec 	add	x12, sp, #0x8
   83c60:	8b0b018c 	add	x12, x12, x11
   83c64:	3900058a 	strb	w10, [x12, #1]
   83c68:	39000189 	strb	w9, [x12]
   83c6c:	910023e9 	add	x9, sp, #0x8
   83c70:	528004ea 	mov	w10, #0x27                  	// #39
   83c74:	d0000002 	adrp	x2, 85000 <memcpy+0x14>
   83c78:	8b0b0124 	add	x4, x9, x11
   83c7c:	cb0b0145 	sub	x5, x10, x11
   83c80:	912d8042 	add	x2, x2, #0xb60
   83c84:	52800021 	mov	w1, #0x1                   	// #1
   83c88:	aa0803e0 	mov	x0, x8
   83c8c:	aa1f03e3 	mov	x3, xzr
   83c90:	940001fb 	bl	8447c <_ZN4core3fmt9Formatter12pad_integral17hd76664d265795836E>
   83c94:	f9401bfe 	ldr	x30, [sp, #48]
   83c98:	910103ff 	add	sp, sp, #0x40
   83c9c:	d65f03c0 	ret

0000000000083ca0 <_ZN4core3fmt3num3imp52_$LT$impl$u20$core..fmt..Display$u20$for$u20$u64$GT$3fmt17h8e7a718507ff4d5eE>:
   83ca0:	d10103ff 	sub	sp, sp, #0x40
   83ca4:	f940000a 	ldr	x10, [x0]
   83ca8:	aa0103e8 	mov	x8, x1
   83cac:	f9001bfe 	str	x30, [sp, #48]
   83cb0:	d344fd49 	lsr	x9, x10, #4
   83cb4:	f109c53f 	cmp	x9, #0x271
   83cb8:	d0000009 	adrp	x9, 85000 <memcpy+0x14>
   83cbc:	9120a929 	add	x9, x9, #0x82a
   83cc0:	540004e3 	b.cc	83d5c <_ZN4core3fmt3num3imp52_$LT$impl$u20$core..fmt..Display$u20$for$u20$u64$GT$3fmt17h8e7a718507ff4d5eE+0xbc>  // b.lo, b.ul, b.last
   83cc4:	d28b296c 	mov	x12, #0x594b                	// #22859
   83cc8:	f2a710cc 	movk	x12, #0x3886, lsl #16
   83ccc:	f2d8bacc 	movk	x12, #0xc5d6, lsl #32
   83cd0:	5290a3ee 	mov	w14, #0x851f                	// #34079
   83cd4:	529c1ff1 	mov	w17, #0xe0ff                	// #57599
   83cd8:	aa1f03eb 	mov	x11, xzr
   83cdc:	f2e68dac 	movk	x12, #0x346d, lsl #48
   83ce0:	5284e20d 	mov	w13, #0x2710                	// #10000
   83ce4:	72aa3d6e 	movk	w14, #0x51eb, lsl #16
   83ce8:	52800c8f 	mov	w15, #0x64                  	// #100
   83cec:	910023f0 	add	x16, sp, #0x8
   83cf0:	72a0beb1 	movk	w17, #0x5f5, lsl #16
   83cf4:	aa0a03f2 	mov	x18, x10
   83cf8:	9bcc7d4a 	umulh	x10, x10, x12
   83cfc:	d34bfd4a 	lsr	x10, x10, #11
   83d00:	eb11025f 	cmp	x18, x17
   83d04:	1b0dc952 	msub	w18, w10, w13, w18
   83d08:	12003e41 	and	w1, w18, #0xffff
   83d0c:	9bae7c21 	umull	x1, w1, w14
   83d10:	d365fc21 	lsr	x1, x1, #37
   83d14:	1b0fc832 	msub	w18, w1, w15, w18
   83d18:	8b010521 	add	x1, x9, x1, lsl #1
   83d1c:	8b322532 	add	x18, x9, w18, uxth #1
   83d20:	39400022 	ldrb	w2, [x1]
   83d24:	39400421 	ldrb	w1, [x1, #1]
   83d28:	39400643 	ldrb	w3, [x18, #1]
   83d2c:	39400252 	ldrb	w18, [x18]
   83d30:	8b0b0200 	add	x0, x16, x11
   83d34:	d100116b 	sub	x11, x11, #0x4
   83d38:	39009001 	strb	w1, [x0, #36]
   83d3c:	39008c02 	strb	w2, [x0, #35]
   83d40:	39009803 	strb	w3, [x0, #38]
   83d44:	39009412 	strb	w18, [x0, #37]
   83d48:	54fffd68 	b.hi	83cf4 <_ZN4core3fmt3num3imp52_$LT$impl$u20$core..fmt..Display$u20$for$u20$u64$GT$3fmt17h8e7a718507ff4d5eE+0x54>  // b.pmore
   83d4c:	91009d6b 	add	x11, x11, #0x27
   83d50:	f1018d5f 	cmp	x10, #0x63
   83d54:	540000ac 	b.gt	83d68 <_ZN4core3fmt3num3imp52_$LT$impl$u20$core..fmt..Display$u20$for$u20$u64$GT$3fmt17h8e7a718507ff4d5eE+0xc8>
   83d58:	14000014 	b	83da8 <_ZN4core3fmt3num3imp52_$LT$impl$u20$core..fmt..Display$u20$for$u20$u64$GT$3fmt17h8e7a718507ff4d5eE+0x108>
   83d5c:	528004eb 	mov	w11, #0x27                  	// #39
   83d60:	f1018d5f 	cmp	x10, #0x63
   83d64:	5400022d 	b.le	83da8 <_ZN4core3fmt3num3imp52_$LT$impl$u20$core..fmt..Display$u20$for$u20$u64$GT$3fmt17h8e7a718507ff4d5eE+0x108>
   83d68:	5290a3ed 	mov	w13, #0x851f                	// #34079
   83d6c:	12003d4c 	and	w12, w10, #0xffff
   83d70:	72aa3d6d 	movk	w13, #0x51eb, lsl #16
   83d74:	9bad7d8c 	umull	x12, w12, w13
   83d78:	52800c8e 	mov	w14, #0x64                  	// #100
   83d7c:	d365fd8c 	lsr	x12, x12, #37
   83d80:	1b0ea98a 	msub	w10, w12, w14, w10
   83d84:	8b2a252a 	add	x10, x9, w10, uxth #1
   83d88:	3940054d 	ldrb	w13, [x10, #1]
   83d8c:	3940014a 	ldrb	w10, [x10]
   83d90:	d100096b 	sub	x11, x11, #0x2
   83d94:	910023ee 	add	x14, sp, #0x8
   83d98:	8b0b01ce 	add	x14, x14, x11
   83d9c:	390001ca 	strb	w10, [x14]
   83da0:	aa0c03ea 	mov	x10, x12
   83da4:	390005cd 	strb	w13, [x14, #1]
   83da8:	f100295f 	cmp	x10, #0xa
   83dac:	540000ca 	b.ge	83dc4 <_ZN4core3fmt3num3imp52_$LT$impl$u20$core..fmt..Display$u20$for$u20$u64$GT$3fmt17h8e7a718507ff4d5eE+0x124>  // b.tcont
   83db0:	d100056b 	sub	x11, x11, #0x1
   83db4:	1100c149 	add	w9, w10, #0x30
   83db8:	910023ea 	add	x10, sp, #0x8
   83dbc:	382b6949 	strb	w9, [x10, x11]
   83dc0:	14000009 	b	83de4 <_ZN4core3fmt3num3imp52_$LT$impl$u20$core..fmt..Display$u20$for$u20$u64$GT$3fmt17h8e7a718507ff4d5eE+0x144>
   83dc4:	8b0a0529 	add	x9, x9, x10, lsl #1
   83dc8:	3940052a 	ldrb	w10, [x9, #1]
   83dcc:	39400129 	ldrb	w9, [x9]
   83dd0:	d100096b 	sub	x11, x11, #0x2
   83dd4:	910023ec 	add	x12, sp, #0x8
   83dd8:	8b0b018c 	add	x12, x12, x11
   83ddc:	3900058a 	strb	w10, [x12, #1]
   83de0:	39000189 	strb	w9, [x12]
   83de4:	910023e9 	add	x9, sp, #0x8
   83de8:	528004ea 	mov	w10, #0x27                  	// #39
   83dec:	d0000002 	adrp	x2, 85000 <memcpy+0x14>
   83df0:	8b0b0124 	add	x4, x9, x11
   83df4:	cb0b0145 	sub	x5, x10, x11
   83df8:	912d8042 	add	x2, x2, #0xb60
   83dfc:	52800021 	mov	w1, #0x1                   	// #1
   83e00:	aa0803e0 	mov	x0, x8
   83e04:	aa1f03e3 	mov	x3, xzr
   83e08:	9400019d 	bl	8447c <_ZN4core3fmt9Formatter12pad_integral17hd76664d265795836E>
   83e0c:	f9401bfe 	ldr	x30, [sp, #48]
   83e10:	910103ff 	add	sp, sp, #0x40
   83e14:	d65f03c0 	ret

0000000000083e18 <_ZN4core3str16slice_error_fail17h0a884f572164fefcE>:
   83e18:	a9b30fe2 	stp	x2, x3, [sp, #-208]!
   83e1c:	f104043f 	cmp	x1, #0x101
   83e20:	54000122 	b.cs	83e44 <_ZN4core3str16slice_error_fail17h0a884f572164fefcE+0x2c>  // b.hs, b.nlast
   83e24:	f0000009 	adrp	x9, 86000 <anon.57ef2e3c02ffeaf529e6c598bd0b036c.20.llvm.5445877691761700591+0x1c>
   83e28:	910a6129 	add	x9, x9, #0x298
   83e2c:	aa1f03e8 	mov	x8, xzr
   83e30:	a90107e0 	stp	x0, x1, [sp, #16]
   83e34:	a90223e9 	stp	x9, x8, [sp, #32]
   83e38:	eb01005f 	cmp	x2, x1
   83e3c:	540002a9 	b.ls	83e90 <_ZN4core3str16slice_error_fail17h0a884f572164fefcE+0x78>  // b.plast
   83e40:	1400002b 	b	83eec <_ZN4core3str16slice_error_fail17h0a884f572164fefcE+0xd4>
   83e44:	52802008 	mov	w8, #0x100                 	// #256
   83e48:	14000006 	b	83e60 <_ZN4core3str16slice_error_fail17h0a884f572164fefcE+0x48>
   83e4c:	38e86809 	ldrsb	w9, [x0, x8]
   83e50:	3101053f 	cmn	w9, #0x41
   83e54:	5400010c 	b.gt	83e74 <_ZN4core3str16slice_error_fail17h0a884f572164fefcE+0x5c>
   83e58:	f1000508 	subs	x8, x8, #0x1
   83e5c:	540000c0 	b.eq	83e74 <_ZN4core3str16slice_error_fail17h0a884f572164fefcE+0x5c>  // b.none
   83e60:	eb01011f 	cmp	x8, x1
   83e64:	54ffff43 	b.cc	83e4c <_ZN4core3str16slice_error_fail17h0a884f572164fefcE+0x34>  // b.lo, b.ul, b.last
   83e68:	eb08003f 	cmp	x1, x8
   83e6c:	54ffff61 	b.ne	83e58 <_ZN4core3str16slice_error_fail17h0a884f572164fefcE+0x40>  // b.any
   83e70:	aa0103e8 	mov	x8, x1
   83e74:	a90123e0 	stp	x0, x8, [sp, #16]
   83e78:	f0000008 	adrp	x8, 86000 <anon.57ef2e3c02ffeaf529e6c598bd0b036c.20.llvm.5445877691761700591+0x1c>
   83e7c:	910a4d09 	add	x9, x8, #0x293
   83e80:	528000a8 	mov	w8, #0x5                   	// #5
   83e84:	eb01005f 	cmp	x2, x1
   83e88:	a90223e9 	stp	x9, x8, [sp, #32]
   83e8c:	54000308 	b.hi	83eec <_ZN4core3str16slice_error_fail17h0a884f572164fefcE+0xd4>  // b.pmore
   83e90:	eb01007f 	cmp	x3, x1
   83e94:	540002c8 	b.hi	83eec <_ZN4core3str16slice_error_fail17h0a884f572164fefcE+0xd4>  // b.pmore
   83e98:	eb03005f 	cmp	x2, x3
   83e9c:	54000589 	b.ls	83f4c <_ZN4core3str16slice_error_fail17h0a884f572164fefcE+0x134>  // b.plast
   83ea0:	90000009 	adrp	x9, 83000 <_ZN4core3fmt8builders11DebugStruct5field17h9e0dae53a1c9bd69E+0x118>
   83ea4:	910003e8 	mov	x8, sp
   83ea8:	91328129 	add	x9, x9, #0xca0
   83eac:	b000000c 	adrp	x12, 84000 <_ZN4core3str16slice_error_fail17h0a884f572164fefcE+0x1e8>
   83eb0:	f000000e 	adrp	x14, 86000 <anon.57ef2e3c02ffeaf529e6c598bd0b036c.20.llvm.5445877691761700591+0x1c>
   83eb4:	910023ea 	add	x10, sp, #0x8
   83eb8:	910043eb 	add	x11, sp, #0x10
   83ebc:	913f718c 	add	x12, x12, #0xfdc
   83ec0:	910083ed 	add	x13, sp, #0x20
   83ec4:	910c21ce 	add	x14, x14, #0x308
   83ec8:	a90827e8 	stp	x8, x9, [sp, #128]
   83ecc:	52800088 	mov	w8, #0x4                   	// #4
   83ed0:	a90927ea 	stp	x10, x9, [sp, #144]
   83ed4:	a9067fff 	stp	xzr, xzr, [sp, #96]
   83ed8:	a90a33eb 	stp	x11, x12, [sp, #160]
   83edc:	a90b33ed 	stp	x13, x12, [sp, #176]
   83ee0:	910203e9 	add	x9, sp, #0x80
   83ee4:	a90523ee 	stp	x14, x8, [sp, #80]
   83ee8:	14000014 	b	83f38 <_ZN4core3str16slice_error_fail17h0a884f572164fefcE+0x120>
   83eec:	90000009 	adrp	x9, 83000 <_ZN4core3fmt8builders11DebugStruct5field17h9e0dae53a1c9bd69E+0x118>
   83ef0:	eb01005f 	cmp	x2, x1
   83ef4:	910103e8 	add	x8, sp, #0x40
   83ef8:	91328129 	add	x9, x9, #0xca0
   83efc:	b000000b 	adrp	x11, 84000 <_ZN4core3str16slice_error_fail17h0a884f572164fefcE+0x1e8>
   83f00:	f000000e 	adrp	x14, 86000 <anon.57ef2e3c02ffeaf529e6c598bd0b036c.20.llvm.5445877691761700591+0x1c>
   83f04:	910043ea 	add	x10, sp, #0x10
   83f08:	913f716b 	add	x11, x11, #0xfdc
   83f0c:	910083ec 	add	x12, sp, #0x20
   83f10:	9a83804d 	csel	x13, x2, x3, hi  // hi = pmore
   83f14:	910b01ce 	add	x14, x14, #0x2c0
   83f18:	a90827e8 	stp	x8, x9, [sp, #128]
   83f1c:	52800068 	mov	w8, #0x3                   	// #3
   83f20:	910203e9 	add	x9, sp, #0x80
   83f24:	a9067fff 	stp	xzr, xzr, [sp, #96]
   83f28:	a9092fea 	stp	x10, x11, [sp, #144]
   83f2c:	a90a2fec 	stp	x12, x11, [sp, #160]
   83f30:	a90523ee 	stp	x14, x8, [sp, #80]
   83f34:	f90023ed 	str	x13, [sp, #64]
   83f38:	a90723e9 	stp	x9, x8, [sp, #112]
   83f3c:	910143e0 	add	x0, sp, #0x50
   83f40:	aa0403e1 	mov	x1, x4
   83f44:	97fffd24 	bl	833d4 <_ZN4core9panicking9panic_fmt17h150231a4307abbaeE>
   83f48:	d4200020 	brk	#0x1
   83f4c:	b5000182 	cbnz	x2, 83f7c <_ZN4core3str16slice_error_fail17h0a884f572164fefcE+0x164>
   83f50:	f9001be3 	str	x3, [sp, #48]
   83f54:	b5000423 	cbnz	x3, 83fd8 <_ZN4core3str16slice_error_fail17h0a884f572164fefcE+0x1c0>
   83f58:	aa1f03e3 	mov	x3, xzr
   83f5c:	eb01007f 	cmp	x3, x1
   83f60:	540001a1 	b.ne	83f94 <_ZN4core3str16slice_error_fail17h0a884f572164fefcE+0x17c>  // b.any
   83f64:	f0000000 	adrp	x0, 86000 <anon.57ef2e3c02ffeaf529e6c598bd0b036c.20.llvm.5445877691761700591+0x1c>
   83f68:	9109a000 	add	x0, x0, #0x268
   83f6c:	52800561 	mov	w1, #0x2b                  	// #43
   83f70:	aa0403e2 	mov	x2, x4
   83f74:	97fffcf9 	bl	83358 <_ZN4core9panicking5panic17h44d2e7d60b187585E>
   83f78:	d4200020 	brk	#0x1
   83f7c:	eb01005f 	cmp	x2, x1
   83f80:	540001a2 	b.cs	83fb4 <_ZN4core3str16slice_error_fail17h0a884f572164fefcE+0x19c>  // b.hs, b.nlast
   83f84:	38e26808 	ldrsb	w8, [x0, x2]
   83f88:	3101051f 	cmn	w8, #0x41
   83f8c:	54fffe2c 	b.gt	83f50 <_ZN4core3str16slice_error_fail17h0a884f572164fefcE+0x138>
   83f90:	1400000b 	b	83fbc <_ZN4core3str16slice_error_fail17h0a884f572164fefcE+0x1a4>
   83f94:	8b030008 	add	x8, x0, x3
   83f98:	aa0803eb 	mov	x11, x8
   83f9c:	38c0156a 	ldrsb	w10, [x11], #1
   83fa0:	12001d49 	and	w9, w10, #0xff
   83fa4:	37f8026a 	tbnz	w10, #31, 83ff0 <_ZN4core3str16slice_error_fail17h0a884f572164fefcE+0x1d8>
   83fa8:	b9003fe9 	str	w9, [sp, #60]
   83fac:	52800028 	mov	w8, #0x1                   	// #1
   83fb0:	14000044 	b	840c0 <_ZN4core3str16slice_error_fail17h0a884f572164fefcE+0x2a8>
   83fb4:	eb02003f 	cmp	x1, x2
   83fb8:	54fffcc0 	b.eq	83f50 <_ZN4core3str16slice_error_fail17h0a884f572164fefcE+0x138>  // b.none
   83fbc:	aa0203e3 	mov	x3, x2
   83fc0:	f9001be2 	str	x2, [sp, #48]
   83fc4:	14000005 	b	83fd8 <_ZN4core3str16slice_error_fail17h0a884f572164fefcE+0x1c0>
   83fc8:	eb03003f 	cmp	x1, x3
   83fcc:	54fffcc0 	b.eq	83f64 <_ZN4core3str16slice_error_fail17h0a884f572164fefcE+0x14c>  // b.none
   83fd0:	f1000463 	subs	x3, x3, #0x1
   83fd4:	54fffc20 	b.eq	83f58 <_ZN4core3str16slice_error_fail17h0a884f572164fefcE+0x140>  // b.none
   83fd8:	eb01007f 	cmp	x3, x1
   83fdc:	54ffff62 	b.cs	83fc8 <_ZN4core3str16slice_error_fail17h0a884f572164fefcE+0x1b0>  // b.hs, b.nlast
   83fe0:	38e36808 	ldrsb	w8, [x0, x3]
   83fe4:	3101011f 	cmn	w8, #0x40
   83fe8:	54ffff4b 	b.lt	83fd0 <_ZN4core3str16slice_error_fail17h0a884f572164fefcE+0x1b8>  // b.tstop
   83fec:	17ffffdc 	b	83f5c <_ZN4core3str16slice_error_fail17h0a884f572164fefcE+0x144>
   83ff0:	8b01000a 	add	x10, x0, x1
   83ff4:	eb0a017f 	cmp	x11, x10
   83ff8:	54000101 	b.ne	84018 <_ZN4core3str16slice_error_fail17h0a884f572164fefcE+0x200>  // b.any
   83ffc:	2a1f03e8 	mov	w8, wzr
   84000:	aa0a03ec 	mov	x12, x10
   84004:	71037d3f 	cmp	w9, #0xdf
   84008:	1200112b 	and	w11, w9, #0x1f
   8400c:	54000128 	b.hi	84030 <_ZN4core3str16slice_error_fail17h0a884f572164fefcE+0x218>  // b.pmore
   84010:	331a1168 	bfi	w8, w11, #6, #5
   84014:	1400001f 	b	84090 <_ZN4core3str16slice_error_fail17h0a884f572164fefcE+0x278>
   84018:	3940050b 	ldrb	w11, [x8, #1]
   8401c:	9100090c 	add	x12, x8, #0x2
   84020:	12001568 	and	w8, w11, #0x3f
   84024:	71037d3f 	cmp	w9, #0xdf
   84028:	1200112b 	and	w11, w9, #0x1f
   8402c:	54ffff29 	b.ls	84010 <_ZN4core3str16slice_error_fail17h0a884f572164fefcE+0x1f8>  // b.plast
   84030:	eb0a019f 	cmp	x12, x10
   84034:	54000081 	b.ne	84044 <_ZN4core3str16slice_error_fail17h0a884f572164fefcE+0x22c>  // b.any
   84038:	2a1f03ed 	mov	w13, wzr
   8403c:	aa0a03ec 	mov	x12, x10
   84040:	14000003 	b	8404c <_ZN4core3str16slice_error_fail17h0a884f572164fefcE+0x234>
   84044:	3840158d 	ldrb	w13, [x12], #1
   84048:	120015ad 	and	w13, w13, #0x3f
   8404c:	7103c13f 	cmp	w9, #0xf0
   84050:	331a150d 	bfi	w13, w8, #6, #6
   84054:	540000a3 	b.cc	84068 <_ZN4core3str16slice_error_fail17h0a884f572164fefcE+0x250>  // b.lo, b.ul, b.last
   84058:	eb0a019f 	cmp	x12, x10
   8405c:	540000c1 	b.ne	84074 <_ZN4core3str16slice_error_fail17h0a884f572164fefcE+0x25c>  // b.any
   84060:	2a1f03e8 	mov	w8, wzr
   84064:	14000006 	b	8407c <_ZN4core3str16slice_error_fail17h0a884f572164fefcE+0x264>
   84068:	3314116d 	bfi	w13, w11, #12, #5
   8406c:	2a0d03e8 	mov	w8, w13
   84070:	14000008 	b	84090 <_ZN4core3str16slice_error_fail17h0a884f572164fefcE+0x278>
   84074:	39400188 	ldrb	w8, [x12]
   84078:	12001508 	and	w8, w8, #0x3f
   8407c:	530e0969 	ubfiz	w9, w11, #18, #3
   84080:	331a2da9 	bfi	w9, w13, #6, #12
   84084:	2a080128 	orr	w8, w9, w8
   84088:	7144411f 	cmp	w8, #0x110, lsl #12
   8408c:	54fff6c0 	b.eq	83f64 <_ZN4core3str16slice_error_fail17h0a884f572164fefcE+0x14c>  // b.none
   84090:	7102011f 	cmp	w8, #0x80
   84094:	b9003fe8 	str	w8, [sp, #60]
   84098:	54000062 	b.cs	840a4 <_ZN4core3str16slice_error_fail17h0a884f572164fefcE+0x28c>  // b.hs, b.nlast
   8409c:	52800028 	mov	w8, #0x1                   	// #1
   840a0:	14000008 	b	840c0 <_ZN4core3str16slice_error_fail17h0a884f572164fefcE+0x2a8>
   840a4:	7120011f 	cmp	w8, #0x800
   840a8:	54000062 	b.cs	840b4 <_ZN4core3str16slice_error_fail17h0a884f572164fefcE+0x29c>  // b.hs, b.nlast
   840ac:	52800048 	mov	w8, #0x2                   	// #2
   840b0:	14000004 	b	840c0 <_ZN4core3str16slice_error_fail17h0a884f572164fefcE+0x2a8>
   840b4:	7140411f 	cmp	w8, #0x10, lsl #12
   840b8:	52800068 	mov	w8, #0x3                   	// #3
   840bc:	9a883508 	cinc	x8, x8, cs  // cs = hs, nlast
   840c0:	8b030108 	add	x8, x8, x3
   840c4:	f0ffffea 	adrp	x10, 83000 <_ZN4core3fmt8builders11DebugStruct5field17h9e0dae53a1c9bd69E+0x118>
   840c8:	9100c3e9 	add	x9, sp, #0x30
   840cc:	9132814a 	add	x10, x10, #0xca0
   840d0:	9000000c 	adrp	x12, 84000 <_ZN4core3str16slice_error_fail17h0a884f572164fefcE+0x1e8>
   840d4:	a90423e3 	stp	x3, x8, [sp, #64]
   840d8:	90000008 	adrp	x8, 84000 <_ZN4core3str16slice_error_fail17h0a884f572164fefcE+0x1e8>
   840dc:	9100f3eb 	add	x11, sp, #0x3c
   840e0:	9133318c 	add	x12, x12, #0xccc
   840e4:	f0ffffee 	adrp	x14, 83000 <_ZN4core3fmt8builders11DebugStruct5field17h9e0dae53a1c9bd69E+0x118>
   840e8:	910043ef 	add	x15, sp, #0x10
   840ec:	913f7108 	add	x8, x8, #0xfdc
   840f0:	a9082be9 	stp	x9, x10, [sp, #128]
   840f4:	910083e9 	add	x9, sp, #0x20
   840f8:	d000000a 	adrp	x10, 86000 <anon.57ef2e3c02ffeaf529e6c598bd0b036c.20.llvm.5445877691761700591+0x1c>
   840fc:	910103ed 	add	x13, sp, #0x40
   84100:	911421ce 	add	x14, x14, #0x508
   84104:	a90933eb 	stp	x11, x12, [sp, #144]
   84108:	910de14a 	add	x10, x10, #0x378
   8410c:	528000ab 	mov	w11, #0x5                   	// #5
   84110:	a90b23ef 	stp	x15, x8, [sp, #176]
   84114:	a90c23e9 	stp	x9, x8, [sp, #192]
   84118:	910203e8 	add	x8, sp, #0x80
   8411c:	a90a3bed 	stp	x13, x14, [sp, #160]
   84120:	a9067fff 	stp	xzr, xzr, [sp, #96]
   84124:	a9052fea 	stp	x10, x11, [sp, #80]
   84128:	a9072fe8 	stp	x8, x11, [sp, #112]
   8412c:	910143e0 	add	x0, sp, #0x50
   84130:	aa0403e1 	mov	x1, x4
   84134:	97fffca8 	bl	833d4 <_ZN4core9panicking9panic_fmt17h150231a4307abbaeE>
   84138:	d4200020 	brk	#0x1

000000000008413c <_ZN4core7unicode12unicode_data15grapheme_extend6lookup17h9125850df650cd1dE>:
   8413c:	d000000a 	adrp	x10, 86000 <anon.57ef2e3c02ffeaf529e6c598bd0b036c.20.llvm.5445877691761700591+0x1c>
   84140:	aa1f03e8 	mov	x8, xzr
   84144:	53155009 	lsl	w9, w0, #11
   84148:	528003ec 	mov	w12, #0x1f                  	// #31
   8414c:	9112614a 	add	x10, x10, #0x498
   84150:	528003eb 	mov	w11, #0x1f                  	// #31
   84154:	14000004 	b	84164 <_ZN4core7unicode12unicode_data15grapheme_extend6lookup17h9125850df650cd1dE+0x28>
   84158:	91000588 	add	x8, x12, #0x1
   8415c:	eb08016c 	subs	x12, x11, x8
   84160:	54000129 	b.ls	84184 <_ZN4core7unicode12unicode_data15grapheme_extend6lookup17h9125850df650cd1dE+0x48>  // b.plast
   84164:	8b4c050c 	add	x12, x8, x12, lsr #1
   84168:	b86c794d 	ldr	w13, [x10, x12, lsl #2]
   8416c:	531551ad 	lsl	w13, w13, #11
   84170:	6b0901bf 	cmp	w13, w9
   84174:	54ffff23 	b.cc	84158 <_ZN4core7unicode12unicode_data15grapheme_extend6lookup17h9125850df650cd1dE+0x1c>  // b.lo, b.ul, b.last
   84178:	aa0c03eb 	mov	x11, x12
   8417c:	54ffff01 	b.ne	8415c <_ZN4core7unicode12unicode_data15grapheme_extend6lookup17h9125850df650cd1dE+0x20>  // b.any
   84180:	91000588 	add	x8, x12, #0x1
   84184:	f100791f 	cmp	x8, #0x1e
   84188:	540005e8 	b.hi	84244 <_ZN4core7unicode12unicode_data15grapheme_extend6lookup17h9125850df650cd1dE+0x108>  // b.pmore
   8418c:	f100791f 	cmp	x8, #0x1e
   84190:	54000121 	b.ne	841b4 <_ZN4core7unicode12unicode_data15grapheme_extend6lookup17h9125850df650cd1dE+0x78>  // b.any
   84194:	5280562b 	mov	w11, #0x2b1                 	// #689
   84198:	f1000509 	subs	x9, x8, #0x1
   8419c:	54000163 	b.cc	841c8 <_ZN4core7unicode12unicode_data15grapheme_extend6lookup17h9125850df650cd1dE+0x8c>  // b.lo, b.ul, b.last
   841a0:	f1007d3f 	cmp	x9, #0x1f
   841a4:	540005c2 	b.cs	8425c <_ZN4core7unicode12unicode_data15grapheme_extend6lookup17h9125850df650cd1dE+0x120>  // b.hs, b.nlast
   841a8:	b8697949 	ldr	w9, [x10, x9, lsl #2]
   841ac:	1200512c 	and	w12, w9, #0x1fffff
   841b0:	14000007 	b	841cc <_ZN4core7unicode12unicode_data15grapheme_extend6lookup17h9125850df650cd1dE+0x90>
   841b4:	8b080949 	add	x9, x10, x8, lsl #2
   841b8:	b9400529 	ldr	w9, [x9, #4]
   841bc:	d355fd2b 	lsr	x11, x9, #21
   841c0:	f1000509 	subs	x9, x8, #0x1
   841c4:	54fffee2 	b.cs	841a0 <_ZN4core7unicode12unicode_data15grapheme_extend6lookup17h9125850df650cd1dE+0x64>  // b.hs, b.nlast
   841c8:	2a1f03ec 	mov	w12, wzr
   841cc:	b8687948 	ldr	w8, [x10, x8, lsl #2]
   841d0:	d355fd08 	lsr	x8, x8, #21
   841d4:	aa2803e9 	mvn	x9, x8
   841d8:	ab09017f 	cmn	x11, x9
   841dc:	54000260 	b.eq	84228 <_ZN4core7unicode12unicode_data15grapheme_extend6lookup17h9125850df650cd1dE+0xec>  // b.none
   841e0:	4b0c000a 	sub	w10, w0, w12
   841e4:	f10ac51f 	cmp	x8, #0x2b1
   841e8:	5280562c 	mov	w12, #0x2b1                 	// #689
   841ec:	9a8c8100 	csel	x0, x8, x12, hi  // hi = pmore
   841f0:	d000000c 	adrp	x12, 86000 <anon.57ef2e3c02ffeaf529e6c598bd0b036c.20.llvm.5445877691761700591+0x1c>
   841f4:	2a1f03e9 	mov	w9, wzr
   841f8:	d100056b 	sub	x11, x11, #0x1
   841fc:	9114518c 	add	x12, x12, #0x514
   84200:	eb08001f 	cmp	x0, x8
   84204:	54000160 	b.eq	84230 <_ZN4core7unicode12unicode_data15grapheme_extend6lookup17h9125850df650cd1dE+0xf4>  // b.none
   84208:	3868698d 	ldrb	w13, [x12, x8]
   8420c:	0b0d0129 	add	w9, w9, w13
   84210:	6b0a013f 	cmp	w9, w10
   84214:	540000a8 	b.hi	84228 <_ZN4core7unicode12unicode_data15grapheme_extend6lookup17h9125850df650cd1dE+0xec>  // b.pmore
   84218:	91000508 	add	x8, x8, #0x1
   8421c:	eb08017f 	cmp	x11, x8
   84220:	54ffff01 	b.ne	84200 <_ZN4core7unicode12unicode_data15grapheme_extend6lookup17h9125850df650cd1dE+0xc4>  // b.any
   84224:	aa0b03e8 	mov	x8, x11
   84228:	12000100 	and	w0, w8, #0x1
   8422c:	d65f03c0 	ret
   84230:	d0000002 	adrp	x2, 86000 <anon.57ef2e3c02ffeaf529e6c598bd0b036c.20.llvm.5445877691761700591+0x1c>
   84234:	9111a042 	add	x2, x2, #0x468
   84238:	52805621 	mov	w1, #0x2b1                 	// #689
   8423c:	97fffc54 	bl	8338c <_ZN4core9panicking18panic_bounds_check17h9ccd95bf49c400c4E>
   84240:	d4200020 	brk	#0x1
   84244:	d0000002 	adrp	x2, 86000 <anon.57ef2e3c02ffeaf529e6c598bd0b036c.20.llvm.5445877691761700591+0x1c>
   84248:	91114042 	add	x2, x2, #0x450
   8424c:	528003e1 	mov	w1, #0x1f                  	// #31
   84250:	aa0803e0 	mov	x0, x8
   84254:	97fffc4e 	bl	8338c <_ZN4core9panicking18panic_bounds_check17h9ccd95bf49c400c4E>
   84258:	d4200020 	brk	#0x1
   8425c:	d0000002 	adrp	x2, 86000 <anon.57ef2e3c02ffeaf529e6c598bd0b036c.20.llvm.5445877691761700591+0x1c>
   84260:	91120042 	add	x2, x2, #0x480
   84264:	528003e1 	mov	w1, #0x1f                  	// #31
   84268:	aa0903e0 	mov	x0, x9
   8426c:	97fffc48 	bl	8338c <_ZN4core9panicking18panic_bounds_check17h9ccd95bf49c400c4E>
   84270:	d4200020 	brk	#0x1

0000000000084274 <_ZN4core3ops8function6FnOnce9call_once17hbbce8d644dbcdb61E.llvm.7516477757011690699>:
   84274:	f940001f 	ldr	xzr, [x0]
   84278:	14000000 	b	84278 <_ZN4core3ops8function6FnOnce9call_once17hbbce8d644dbcdb61E.llvm.7516477757011690699+0x4>

000000000008427c <_ZN4core3ptr52drop_in_place$LT$core..fmt..builders..PadAdapter$GT$17h76a0df7be9e8b955E.llvm.7516477757011690699>:
   8427c:	d65f03c0 	ret

0000000000084280 <_ZN4core3fmt5write17hb5f6a3bd29bb9808E>:
   84280:	d10243ff 	sub	sp, sp, #0x90
   84284:	d0000008 	adrp	x8, 86000 <anon.57ef2e3c02ffeaf529e6c598bd0b036c.20.llvm.5445877691761700591+0x1c>
   84288:	fd43e500 	ldr	d0, [x8, #1992]
   8428c:	f9400848 	ldr	x8, [x2, #16]
   84290:	a9084ff4 	stp	x20, x19, [sp, #128]
   84294:	aa0203f3 	mov	x19, x2
   84298:	52800069 	mov	w9, #0x3                   	// #3
   8429c:	f90023fe 	str	x30, [sp, #64]
   842a0:	a90567fa 	stp	x26, x25, [sp, #80]
   842a4:	a9065ff8 	stp	x24, x23, [sp, #96]
   842a8:	a90757f6 	stp	x22, x21, [sp, #112]
   842ac:	f90003ff 	str	xzr, [sp]
   842b0:	f9000bff 	str	xzr, [sp, #16]
   842b4:	3900e3e9 	strb	w9, [sp, #56]
   842b8:	fd001be0 	str	d0, [sp, #48]
   842bc:	a90207e0 	stp	x0, x1, [sp, #32]
   842c0:	b40008a8 	cbz	x8, 843d4 <_ZN4core3fmt5write17hb5f6a3bd29bb9808E+0x154>
   842c4:	f9400e69 	ldr	x9, [x19, #24]
   842c8:	a9405674 	ldp	x20, x21, [x19]
   842cc:	eb15013f 	cmp	x9, x21
   842d0:	9a8982b6 	csel	x22, x21, x9, hi  // hi = pmore
   842d4:	b4000b16 	cbz	x22, 84434 <_ZN4core3fmt5write17hb5f6a3bd29bb9808E+0x1b4>
   842d8:	90000019 	adrp	x25, 84000 <_ZN4core3str16slice_error_fail17h0a884f572164fefcE+0x1e8>
   842dc:	aa1f03f7 	mov	x23, xzr
   842e0:	91006118 	add	x24, x8, #0x18
   842e4:	9109d339 	add	x25, x25, #0x274
   842e8:	aa1603fa 	mov	x26, x22
   842ec:	8b170288 	add	x8, x20, x23
   842f0:	f9400502 	ldr	x2, [x8, #8]
   842f4:	b40000c2 	cbz	x2, 8430c <_ZN4core3fmt5write17hb5f6a3bd29bb9808E+0x8c>
   842f8:	a94223e0 	ldp	x0, x8, [sp, #32]
   842fc:	f8776a81 	ldr	x1, [x20, x23]
   84300:	f9400d08 	ldr	x8, [x8, #24]
   84304:	d63f0100 	blr	x8
   84308:	37000a60 	tbnz	w0, #0, 84454 <_ZN4core3fmt5write17hb5f6a3bd29bb9808E+0x1d4>
   8430c:	39406308 	ldrb	w8, [x24, #24]
   84310:	3900e3e8 	strb	w8, [sp, #56]
   84314:	fd400b00 	ldr	d0, [x24, #16]
   84318:	f9401268 	ldr	x8, [x19, #32]
   8431c:	0ea00800 	rev64	v0.2s, v0.2s
   84320:	fd001be0 	str	d0, [sp, #48]
   84324:	a940270a 	ldp	x10, x9, [x24]
   84328:	b40001ea 	cbz	x10, 84364 <_ZN4core3fmt5write17hb5f6a3bd29bb9808E+0xe4>
   8432c:	f100055f 	cmp	x10, #0x1
   84330:	540000a1 	b.ne	84344 <_ZN4core3fmt5write17hb5f6a3bd29bb9808E+0xc4>  // b.any
   84334:	8b09110a 	add	x10, x8, x9, lsl #4
   84338:	f940054a 	ldr	x10, [x10, #8]
   8433c:	eb19015f 	cmp	x10, x25
   84340:	540000c0 	b.eq	84358 <_ZN4core3fmt5write17hb5f6a3bd29bb9808E+0xd8>  // b.none
   84344:	aa1f03ea 	mov	x10, xzr
   84348:	a90027ea 	stp	x10, x9, [sp]
   8434c:	a97f270a 	ldp	x10, x9, [x24, #-16]
   84350:	b500012a 	cbnz	x10, 84374 <_ZN4core3fmt5write17hb5f6a3bd29bb9808E+0xf4>
   84354:	14000013 	b	843a0 <_ZN4core3fmt5write17hb5f6a3bd29bb9808E+0x120>
   84358:	d37ced29 	lsl	x9, x9, #4
   8435c:	f8696909 	ldr	x9, [x8, x9]
   84360:	f9400129 	ldr	x9, [x9]
   84364:	5280002a 	mov	w10, #0x1                   	// #1
   84368:	a90027ea 	stp	x10, x9, [sp]
   8436c:	a97f270a 	ldp	x10, x9, [x24, #-16]
   84370:	b400018a 	cbz	x10, 843a0 <_ZN4core3fmt5write17hb5f6a3bd29bb9808E+0x120>
   84374:	f100055f 	cmp	x10, #0x1
   84378:	540000a1 	b.ne	8438c <_ZN4core3fmt5write17hb5f6a3bd29bb9808E+0x10c>  // b.any
   8437c:	8b09110a 	add	x10, x8, x9, lsl #4
   84380:	f940054a 	ldr	x10, [x10, #8]
   84384:	eb19015f 	cmp	x10, x25
   84388:	54000060 	b.eq	84394 <_ZN4core3fmt5write17hb5f6a3bd29bb9808E+0x114>  // b.none
   8438c:	aa1f03ea 	mov	x10, xzr
   84390:	14000005 	b	843a4 <_ZN4core3fmt5write17hb5f6a3bd29bb9808E+0x124>
   84394:	d37ced29 	lsl	x9, x9, #4
   84398:	f8696909 	ldr	x9, [x8, x9]
   8439c:	f9400129 	ldr	x9, [x9]
   843a0:	5280002a 	mov	w10, #0x1                   	// #1
   843a4:	a90127ea 	stp	x10, x9, [sp, #16]
   843a8:	f85e8309 	ldur	x9, [x24, #-24]
   843ac:	910003e1 	mov	x1, sp
   843b0:	8b091108 	add	x8, x8, x9, lsl #4
   843b4:	a9402500 	ldp	x0, x9, [x8]
   843b8:	d63f0120 	blr	x9
   843bc:	370004c0 	tbnz	w0, #0, 84454 <_ZN4core3fmt5write17hb5f6a3bd29bb9808E+0x1d4>
   843c0:	f100075a 	subs	x26, x26, #0x1
   843c4:	910042f7 	add	x23, x23, #0x10
   843c8:	9100e318 	add	x24, x24, #0x38
   843cc:	54fff901 	b.ne	842ec <_ZN4core3fmt5write17hb5f6a3bd29bb9808E+0x6c>  // b.any
   843d0:	14000019 	b	84434 <_ZN4core3fmt5write17hb5f6a3bd29bb9808E+0x1b4>
   843d4:	f9401668 	ldr	x8, [x19, #40]
   843d8:	a9405674 	ldp	x20, x21, [x19]
   843dc:	eb15011f 	cmp	x8, x21
   843e0:	9a8882b6 	csel	x22, x21, x8, hi  // hi = pmore
   843e4:	b4000296 	cbz	x22, 84434 <_ZN4core3fmt5write17hb5f6a3bd29bb9808E+0x1b4>
   843e8:	f9401273 	ldr	x19, [x19, #32]
   843ec:	aa1f03f7 	mov	x23, xzr
   843f0:	aa1603f8 	mov	x24, x22
   843f4:	8b170288 	add	x8, x20, x23
   843f8:	f9400502 	ldr	x2, [x8, #8]
   843fc:	b40000c2 	cbz	x2, 84414 <_ZN4core3fmt5write17hb5f6a3bd29bb9808E+0x194>
   84400:	a94223e0 	ldp	x0, x8, [sp, #32]
   84404:	f8776a81 	ldr	x1, [x20, x23]
   84408:	f9400d08 	ldr	x8, [x8, #24]
   8440c:	d63f0100 	blr	x8
   84410:	37000220 	tbnz	w0, #0, 84454 <_ZN4core3fmt5write17hb5f6a3bd29bb9808E+0x1d4>
   84414:	8b170268 	add	x8, x19, x23
   84418:	a9402500 	ldp	x0, x9, [x8]
   8441c:	910003e1 	mov	x1, sp
   84420:	d63f0120 	blr	x9
   84424:	37000180 	tbnz	w0, #0, 84454 <_ZN4core3fmt5write17hb5f6a3bd29bb9808E+0x1d4>
   84428:	f1000718 	subs	x24, x24, #0x1
   8442c:	910042f7 	add	x23, x23, #0x10
   84430:	54fffe21 	b.ne	843f4 <_ZN4core3fmt5write17hb5f6a3bd29bb9808E+0x174>  // b.any
   84434:	eb1502df 	cmp	x22, x21
   84438:	54000122 	b.cs	8445c <_ZN4core3fmt5write17hb5f6a3bd29bb9808E+0x1dc>  // b.hs, b.nlast
   8443c:	a94223e0 	ldp	x0, x8, [sp, #32]
   84440:	8b161289 	add	x9, x20, x22, lsl #4
   84444:	a9400921 	ldp	x1, x2, [x9]
   84448:	f9400d08 	ldr	x8, [x8, #24]
   8444c:	d63f0100 	blr	x8
   84450:	36000060 	tbz	w0, #0, 8445c <_ZN4core3fmt5write17hb5f6a3bd29bb9808E+0x1dc>
   84454:	52800020 	mov	w0, #0x1                   	// #1
   84458:	14000002 	b	84460 <_ZN4core3fmt5write17hb5f6a3bd29bb9808E+0x1e0>
   8445c:	2a1f03e0 	mov	w0, wzr
   84460:	a9484ff4 	ldp	x20, x19, [sp, #128]
   84464:	a94757f6 	ldp	x22, x21, [sp, #112]
   84468:	a9465ff8 	ldp	x24, x23, [sp, #96]
   8446c:	a94567fa 	ldp	x26, x25, [sp, #80]
   84470:	f94023fe 	ldr	x30, [sp, #64]
   84474:	910243ff 	add	sp, sp, #0x90
   84478:	d65f03c0 	ret

000000000008447c <_ZN4core3fmt9Formatter12pad_integral17hd76664d265795836E>:
   8447c:	a9ba7bfd 	stp	x29, x30, [sp, #-96]!
   84480:	a9035ff8 	stp	x24, x23, [sp, #48]
   84484:	a90457f6 	stp	x22, x21, [sp, #64]
   84488:	a9054ff4 	stp	x20, x19, [sp, #80]
   8448c:	aa0503f4 	mov	x20, x5
   84490:	aa0403f5 	mov	x21, x4
   84494:	aa0303f6 	mov	x22, x3
   84498:	aa0203f7 	mov	x23, x2
   8449c:	aa0003f3 	mov	x19, x0
   844a0:	a9016ffc 	stp	x28, x27, [sp, #16]
   844a4:	a90267fa 	stp	x26, x25, [sp, #32]
   844a8:	34000201 	cbz	w1, 844e8 <_ZN4core3fmt9Formatter12pad_integral17hd76664d265795836E+0x6c>
   844ac:	b9403268 	ldr	w8, [x19, #48]
   844b0:	52800569 	mov	w9, #0x2b                  	// #43
   844b4:	52a0022a 	mov	w10, #0x110000              	// #1114112
   844b8:	9240010b 	and	x11, x8, #0x1
   844bc:	7100017f 	cmp	w11, #0x0
   844c0:	1a890158 	csel	w24, w10, w9, eq  // eq = none
   844c4:	8b140169 	add	x9, x11, x20
   844c8:	36100188 	tbz	w8, #2, 844f8 <_ZN4core3fmt9Formatter12pad_integral17hd76664d265795836E+0x7c>
   844cc:	aa1603eb 	mov	x11, x22
   844d0:	b4000556 	cbz	x22, 84578 <_ZN4core3fmt9Formatter12pad_integral17hd76664d265795836E+0xfc>
   844d4:	f10006df 	cmp	x22, #0x1
   844d8:	540001c1 	b.ne	84510 <_ZN4core3fmt9Formatter12pad_integral17hd76664d265795836E+0x94>  // b.any
   844dc:	aa1f03eb 	mov	x11, xzr
   844e0:	aa1703ea 	mov	x10, x23
   844e4:	1400001e 	b	8455c <_ZN4core3fmt9Formatter12pad_integral17hd76664d265795836E+0xe0>
   844e8:	b9403268 	ldr	w8, [x19, #48]
   844ec:	91000689 	add	x9, x20, #0x1
   844f0:	528005b8 	mov	w24, #0x2d                  	// #45
   844f4:	3717fec8 	tbnz	w8, #2, 844cc <_ZN4core3fmt9Formatter12pad_integral17hd76664d265795836E+0x50>
   844f8:	aa1f03f7 	mov	x23, xzr
   844fc:	aa1f03f6 	mov	x22, xzr
   84500:	f940026a 	ldr	x10, [x19]
   84504:	f100055f 	cmp	x10, #0x1
   84508:	54000400 	b.eq	84588 <_ZN4core3fmt9Formatter12pad_integral17hd76664d265795836E+0x10c>  // b.none
   8450c:	1400002c 	b	845bc <_ZN4core3fmt9Formatter12pad_integral17hd76664d265795836E+0x140>
   84510:	927ffacd 	and	x13, x22, #0xfffffffffffffffe
   84514:	aa1f03eb 	mov	x11, xzr
   84518:	aa1f03ec 	mov	x12, xzr
   8451c:	8b0d02ea 	add	x10, x23, x13
   84520:	910006ee 	add	x14, x23, #0x1
   84524:	aa0d03ef 	mov	x15, x13
   84528:	385ff1d0 	ldurb	w16, [x14, #-1]
   8452c:	384025d1 	ldrb	w17, [x14], #2
   84530:	121a0610 	and	w16, w16, #0xc0
   84534:	121a0631 	and	w17, w17, #0xc0
   84538:	7102021f 	cmp	w16, #0x80
   8453c:	9a8b056b 	cinc	x11, x11, ne  // ne = any
   84540:	7102023f 	cmp	w17, #0x80
   84544:	9a8c058c 	cinc	x12, x12, ne  // ne = any
   84548:	f10009ef 	subs	x15, x15, #0x2
   8454c:	54fffee1 	b.ne	84528 <_ZN4core3fmt9Formatter12pad_integral17hd76664d265795836E+0xac>  // b.any
   84550:	eb1601bf 	cmp	x13, x22
   84554:	8b0b018b 	add	x11, x12, x11
   84558:	54000100 	b.eq	84578 <_ZN4core3fmt9Formatter12pad_integral17hd76664d265795836E+0xfc>  // b.none
   8455c:	8b1602ec 	add	x12, x23, x22
   84560:	3840154d 	ldrb	w13, [x10], #1
   84564:	121a05ad 	and	w13, w13, #0xc0
   84568:	710201bf 	cmp	w13, #0x80
   8456c:	9a8b056b 	cinc	x11, x11, ne  // ne = any
   84570:	eb0a019f 	cmp	x12, x10
   84574:	54ffff61 	b.ne	84560 <_ZN4core3fmt9Formatter12pad_integral17hd76664d265795836E+0xe4>  // b.any
   84578:	8b090169 	add	x9, x11, x9
   8457c:	f940026a 	ldr	x10, [x19]
   84580:	f100055f 	cmp	x10, #0x1
   84584:	540001c1 	b.ne	845bc <_ZN4core3fmt9Formatter12pad_integral17hd76664d265795836E+0x140>  // b.any
   84588:	f940066a 	ldr	x10, [x19, #8]
   8458c:	eb09015c 	subs	x28, x10, x9
   84590:	54000169 	b.ls	845bc <_ZN4core3fmt9Formatter12pad_integral17hd76664d265795836E+0x140>  // b.plast
   84594:	37180488 	tbnz	w8, #3, 84624 <_ZN4core3fmt9Formatter12pad_integral17hd76664d265795836E+0x1a8>
   84598:	3940e268 	ldrb	w8, [x19, #56]
   8459c:	71000d1f 	cmp	w8, #0x3
   845a0:	1a9f1508 	csinc	w8, w8, wzr, ne  // ne = any
   845a4:	72000508 	ands	w8, w8, #0x3
   845a8:	54000680 	b.eq	84678 <_ZN4core3fmt9Formatter12pad_integral17hd76664d265795836E+0x1fc>  // b.none
   845ac:	7100051f 	cmp	w8, #0x1
   845b0:	540006a1 	b.ne	84684 <_ZN4core3fmt9Formatter12pad_integral17hd76664d265795836E+0x208>  // b.any
   845b4:	aa1f03fb 	mov	x27, xzr
   845b8:	14000036 	b	84690 <_ZN4core3fmt9Formatter12pad_integral17hd76664d265795836E+0x214>
   845bc:	aa1303e0 	mov	x0, x19
   845c0:	2a1803e1 	mov	w1, w24
   845c4:	aa1703e2 	mov	x2, x23
   845c8:	aa1603e3 	mov	x3, x22
   845cc:	94000086 	bl	847e4 <_ZN4core3fmt9Formatter12pad_integral12write_prefix17h4cec181bc4f6d72aE>
   845d0:	36000140 	tbz	w0, #0, 845f8 <_ZN4core3fmt9Formatter12pad_integral17hd76664d265795836E+0x17c>
   845d4:	52800039 	mov	w25, #0x1                   	// #1
   845d8:	2a1903e0 	mov	w0, w25
   845dc:	a9454ff4 	ldp	x20, x19, [sp, #80]
   845e0:	a94457f6 	ldp	x22, x21, [sp, #64]
   845e4:	a9435ff8 	ldp	x24, x23, [sp, #48]
   845e8:	a94267fa 	ldp	x26, x25, [sp, #32]
   845ec:	a9416ffc 	ldp	x28, x27, [sp, #16]
   845f0:	a8c67bfd 	ldp	x29, x30, [sp], #96
   845f4:	d65f03c0 	ret
   845f8:	a9422260 	ldp	x0, x8, [x19, #32]
   845fc:	aa1503e1 	mov	x1, x21
   84600:	aa1403e2 	mov	x2, x20
   84604:	a9454ff4 	ldp	x20, x19, [sp, #80]
   84608:	f9400d03 	ldr	x3, [x8, #24]
   8460c:	a94457f6 	ldp	x22, x21, [sp, #64]
   84610:	a9435ff8 	ldp	x24, x23, [sp, #48]
   84614:	a94267fa 	ldp	x26, x25, [sp, #32]
   84618:	a9416ffc 	ldp	x28, x27, [sp, #16]
   8461c:	a8c67bfd 	ldp	x29, x30, [sp], #96
   84620:	d61f0060 	br	x3
   84624:	b940367a 	ldr	w26, [x19, #52]
   84628:	3940e27b 	ldrb	w27, [x19, #56]
   8462c:	52800608 	mov	w8, #0x30                  	// #48
   84630:	52800039 	mov	w25, #0x1                   	// #1
   84634:	aa1303e0 	mov	x0, x19
   84638:	2a1803e1 	mov	w1, w24
   8463c:	aa1703e2 	mov	x2, x23
   84640:	aa1603e3 	mov	x3, x22
   84644:	b9003668 	str	w8, [x19, #52]
   84648:	3900e279 	strb	w25, [x19, #56]
   8464c:	94000066 	bl	847e4 <_ZN4core3fmt9Formatter12pad_integral12write_prefix17h4cec181bc4f6d72aE>
   84650:	3707fc40 	tbnz	w0, #0, 845d8 <_ZN4core3fmt9Formatter12pad_integral17hd76664d265795836E+0x15c>
   84654:	3940e268 	ldrb	w8, [x19, #56]
   84658:	71000d1f 	cmp	w8, #0x3
   8465c:	1a9f1508 	csinc	w8, w8, wzr, ne  // ne = any
   84660:	72000508 	ands	w8, w8, #0x3
   84664:	54000620 	b.eq	84728 <_ZN4core3fmt9Formatter12pad_integral17hd76664d265795836E+0x2ac>  // b.none
   84668:	7100051f 	cmp	w8, #0x1
   8466c:	54000641 	b.ne	84734 <_ZN4core3fmt9Formatter12pad_integral17hd76664d265795836E+0x2b8>  // b.any
   84670:	aa1f03f8 	mov	x24, xzr
   84674:	14000033 	b	84740 <_ZN4core3fmt9Formatter12pad_integral17hd76664d265795836E+0x2c4>
   84678:	aa1c03fb 	mov	x27, x28
   8467c:	aa1f03fc 	mov	x28, xzr
   84680:	14000004 	b	84690 <_ZN4core3fmt9Formatter12pad_integral17hd76664d265795836E+0x214>
   84684:	91000788 	add	x8, x28, #0x1
   84688:	d341ff9c 	lsr	x28, x28, #1
   8468c:	d341fd1b 	lsr	x27, x8, #1
   84690:	a942767a 	ldp	x26, x29, [x19, #32]
   84694:	b9403679 	ldr	w25, [x19, #52]
   84698:	9100079c 	add	x28, x28, #0x1
   8469c:	f100079c 	subs	x28, x28, #0x1
   846a0:	540000e0 	b.eq	846bc <_ZN4core3fmt9Formatter12pad_integral17hd76664d265795836E+0x240>  // b.none
   846a4:	f94013a8 	ldr	x8, [x29, #32]
   846a8:	aa1a03e0 	mov	x0, x26
   846ac:	2a1903e1 	mov	w1, w25
   846b0:	d63f0100 	blr	x8
   846b4:	3607ff40 	tbz	w0, #0, 8469c <_ZN4core3fmt9Formatter12pad_integral17hd76664d265795836E+0x220>
   846b8:	17ffffc7 	b	845d4 <_ZN4core3fmt9Formatter12pad_integral17hd76664d265795836E+0x158>
   846bc:	7144433f 	cmp	w25, #0x110, lsl #12
   846c0:	9a9b03fa 	csel	x26, xzr, x27, eq  // eq = none
   846c4:	54fff880 	b.eq	845d4 <_ZN4core3fmt9Formatter12pad_integral17hd76664d265795836E+0x158>  // b.none
   846c8:	aa1303e0 	mov	x0, x19
   846cc:	2a1803e1 	mov	w1, w24
   846d0:	aa1703e2 	mov	x2, x23
   846d4:	aa1603e3 	mov	x3, x22
   846d8:	94000043 	bl	847e4 <_ZN4core3fmt9Formatter12pad_integral12write_prefix17h4cec181bc4f6d72aE>
   846dc:	3707f7c0 	tbnz	w0, #0, 845d4 <_ZN4core3fmt9Formatter12pad_integral17hd76664d265795836E+0x158>
   846e0:	a9422260 	ldp	x0, x8, [x19, #32]
   846e4:	aa1503e1 	mov	x1, x21
   846e8:	aa1403e2 	mov	x2, x20
   846ec:	f9400d08 	ldr	x8, [x8, #24]
   846f0:	d63f0100 	blr	x8
   846f4:	3707f700 	tbnz	w0, #0, 845d4 <_ZN4core3fmt9Formatter12pad_integral17hd76664d265795836E+0x158>
   846f8:	a9424e74 	ldp	x20, x19, [x19, #32]
   846fc:	aa1f03f5 	mov	x21, xzr
   84700:	eb15035f 	cmp	x26, x21
   84704:	54000680 	b.eq	847d4 <_ZN4core3fmt9Formatter12pad_integral17hd76664d265795836E+0x358>  // b.none
   84708:	f9401268 	ldr	x8, [x19, #32]
   8470c:	aa1403e0 	mov	x0, x20
   84710:	2a1903e1 	mov	w1, w25
   84714:	910006b5 	add	x21, x21, #0x1
   84718:	d63f0100 	blr	x8
   8471c:	34ffff20 	cbz	w0, 84700 <_ZN4core3fmt9Formatter12pad_integral17hd76664d265795836E+0x284>
   84720:	d10006a8 	sub	x8, x21, #0x1
   84724:	1400002d 	b	847d8 <_ZN4core3fmt9Formatter12pad_integral17hd76664d265795836E+0x35c>
   84728:	aa1c03f8 	mov	x24, x28
   8472c:	aa1f03fc 	mov	x28, xzr
   84730:	14000004 	b	84740 <_ZN4core3fmt9Formatter12pad_integral17hd76664d265795836E+0x2c4>
   84734:	91000788 	add	x8, x28, #0x1
   84738:	d341ff9c 	lsr	x28, x28, #1
   8473c:	d341fd18 	lsr	x24, x8, #1
   84740:	a9426677 	ldp	x23, x25, [x19, #32]
   84744:	b9403676 	ldr	w22, [x19, #52]
   84748:	9100079c 	add	x28, x28, #0x1
   8474c:	f100079c 	subs	x28, x28, #0x1
   84750:	540000e0 	b.eq	8476c <_ZN4core3fmt9Formatter12pad_integral17hd76664d265795836E+0x2f0>  // b.none
   84754:	f9401328 	ldr	x8, [x25, #32]
   84758:	aa1703e0 	mov	x0, x23
   8475c:	2a1603e1 	mov	w1, w22
   84760:	d63f0100 	blr	x8
   84764:	3607ff40 	tbz	w0, #0, 8474c <_ZN4core3fmt9Formatter12pad_integral17hd76664d265795836E+0x2d0>
   84768:	17ffff9b 	b	845d4 <_ZN4core3fmt9Formatter12pad_integral17hd76664d265795836E+0x158>
   8476c:	714442df 	cmp	w22, #0x110, lsl #12
   84770:	9a9803f7 	csel	x23, xzr, x24, eq  // eq = none
   84774:	54fff300 	b.eq	845d4 <_ZN4core3fmt9Formatter12pad_integral17hd76664d265795836E+0x158>  // b.none
   84778:	a9422260 	ldp	x0, x8, [x19, #32]
   8477c:	aa1503e1 	mov	x1, x21
   84780:	aa1403e2 	mov	x2, x20
   84784:	f9400d08 	ldr	x8, [x8, #24]
   84788:	d63f0100 	blr	x8
   8478c:	3707f240 	tbnz	w0, #0, 845d4 <_ZN4core3fmt9Formatter12pad_integral17hd76664d265795836E+0x158>
   84790:	a9425674 	ldp	x20, x21, [x19, #32]
   84794:	aa1f03f8 	mov	x24, xzr
   84798:	eb1802ff 	cmp	x23, x24
   8479c:	54000140 	b.eq	847c4 <_ZN4core3fmt9Formatter12pad_integral17hd76664d265795836E+0x348>  // b.none
   847a0:	f94012a8 	ldr	x8, [x21, #32]
   847a4:	aa1403e0 	mov	x0, x20
   847a8:	2a1603e1 	mov	w1, w22
   847ac:	91000718 	add	x24, x24, #0x1
   847b0:	d63f0100 	blr	x8
   847b4:	34ffff20 	cbz	w0, 84798 <_ZN4core3fmt9Formatter12pad_integral17hd76664d265795836E+0x31c>
   847b8:	d1000708 	sub	x8, x24, #0x1
   847bc:	eb17011f 	cmp	x8, x23
   847c0:	54fff0a3 	b.cc	845d4 <_ZN4core3fmt9Formatter12pad_integral17hd76664d265795836E+0x158>  // b.lo, b.ul, b.last
   847c4:	2a1f03f9 	mov	w25, wzr
   847c8:	b900367a 	str	w26, [x19, #52]
   847cc:	3900e27b 	strb	w27, [x19, #56]
   847d0:	17ffff82 	b	845d8 <_ZN4core3fmt9Formatter12pad_integral17hd76664d265795836E+0x15c>
   847d4:	aa1a03e8 	mov	x8, x26
   847d8:	eb1a011f 	cmp	x8, x26
   847dc:	1a9f27f9 	cset	w25, cc  // cc = lo, ul, last
   847e0:	17ffff7e 	b	845d8 <_ZN4core3fmt9Formatter12pad_integral17hd76664d265795836E+0x15c>

00000000000847e4 <_ZN4core3fmt9Formatter12pad_integral12write_prefix17h4cec181bc4f6d72aE>:
   847e4:	a9be57fe 	stp	x30, x21, [sp, #-32]!
   847e8:	a9014ff4 	stp	x20, x19, [sp, #16]
   847ec:	aa0303f3 	mov	x19, x3
   847f0:	aa0203f4 	mov	x20, x2
   847f4:	7144403f 	cmp	w1, #0x110, lsl #12
   847f8:	aa0003f5 	mov	x21, x0
   847fc:	54000120 	b.eq	84820 <_ZN4core3fmt9Formatter12pad_integral12write_prefix17h4cec181bc4f6d72aE+0x3c>  // b.none
   84800:	a94222a0 	ldp	x0, x8, [x21, #32]
   84804:	f9401108 	ldr	x8, [x8, #32]
   84808:	d63f0100 	blr	x8
   8480c:	360000a0 	tbz	w0, #0, 84820 <_ZN4core3fmt9Formatter12pad_integral12write_prefix17h4cec181bc4f6d72aE+0x3c>
   84810:	52800020 	mov	w0, #0x1                   	// #1
   84814:	a9414ff4 	ldp	x20, x19, [sp, #16]
   84818:	a8c257fe 	ldp	x30, x21, [sp], #32
   8481c:	d65f03c0 	ret
   84820:	b4000114 	cbz	x20, 84840 <_ZN4core3fmt9Formatter12pad_integral12write_prefix17h4cec181bc4f6d72aE+0x5c>
   84824:	a94222a0 	ldp	x0, x8, [x21, #32]
   84828:	aa1403e1 	mov	x1, x20
   8482c:	aa1303e2 	mov	x2, x19
   84830:	a9414ff4 	ldp	x20, x19, [sp, #16]
   84834:	f9400d03 	ldr	x3, [x8, #24]
   84838:	a8c257fe 	ldp	x30, x21, [sp], #32
   8483c:	d61f0060 	br	x3
   84840:	2a1f03e0 	mov	w0, wzr
   84844:	a9414ff4 	ldp	x20, x19, [sp, #16]
   84848:	a8c257fe 	ldp	x30, x21, [sp], #32
   8484c:	d65f03c0 	ret

0000000000084850 <_ZN4core3fmt9Formatter3pad17h59d95a2e2006fc28E>:
   84850:	a9bc67fe 	stp	x30, x25, [sp, #-64]!
   84854:	f9400008 	ldr	x8, [x0]
   84858:	f9400809 	ldr	x9, [x0, #16]
   8485c:	a9034ff4 	stp	x20, x19, [sp, #48]
   84860:	aa0203f3 	mov	x19, x2
   84864:	f100051f 	cmp	x8, #0x1
   84868:	aa0103f4 	mov	x20, x1
   8486c:	a9015ff8 	stp	x24, x23, [sp, #16]
   84870:	a90257f6 	stp	x22, x21, [sp, #32]
   84874:	54000081 	b.ne	84884 <_ZN4core3fmt9Formatter3pad17h59d95a2e2006fc28E+0x34>  // b.any
   84878:	f100053f 	cmp	x9, #0x1
   8487c:	54000080 	b.eq	8488c <_ZN4core3fmt9Formatter3pad17h59d95a2e2006fc28E+0x3c>  // b.none
   84880:	1400005a 	b	849e8 <_ZN4core3fmt9Formatter3pad17h59d95a2e2006fc28E+0x198>
   84884:	f100053f 	cmp	x9, #0x1
   84888:	54001081 	b.ne	84a98 <_ZN4core3fmt9Formatter3pad17h59d95a2e2006fc28E+0x248>  // b.any
   8488c:	f9400c0b 	ldr	x11, [x0, #24]
   84890:	8b13028a 	add	x10, x20, x19
   84894:	aa1f03e9 	mov	x9, xzr
   84898:	b400066b 	cbz	x11, 84964 <_ZN4core3fmt9Formatter3pad17h59d95a2e2006fc28E+0x114>
   8489c:	aa1403ed 	mov	x13, x20
   848a0:	1400000e 	b	848d8 <_ZN4core3fmt9Formatter3pad17h59d95a2e2006fc28E+0x88>
   848a4:	38401591 	ldrb	w17, [x12], #1
   848a8:	12001631 	and	w17, w17, #0x3f
   848ac:	530e09ef 	ubfiz	w15, w15, #18, #3
   848b0:	331415cf 	bfi	w15, w14, #12, #6
   848b4:	331a160f 	bfi	w15, w16, #6, #6
   848b8:	2a1101ee 	orr	w14, w15, w17
   848bc:	714441df 	cmp	w14, #0x110, lsl #12
   848c0:	54000900 	b.eq	849e0 <_ZN4core3fmt9Formatter3pad17h59d95a2e2006fc28E+0x190>  // b.none
   848c4:	cb0d0129 	sub	x9, x9, x13
   848c8:	f100056b 	subs	x11, x11, #0x1
   848cc:	8b0c0129 	add	x9, x9, x12
   848d0:	aa0c03ed 	mov	x13, x12
   848d4:	540004a0 	b.eq	84968 <_ZN4core3fmt9Formatter3pad17h59d95a2e2006fc28E+0x118>  // b.none
   848d8:	eb0a01bf 	cmp	x13, x10
   848dc:	54000820 	b.eq	849e0 <_ZN4core3fmt9Formatter3pad17h59d95a2e2006fc28E+0x190>  // b.none
   848e0:	aa0d03ec 	mov	x12, x13
   848e4:	38c0158f 	ldrsb	w15, [x12], #1
   848e8:	36fffeef 	tbz	w15, #31, 848c4 <_ZN4core3fmt9Formatter3pad17h59d95a2e2006fc28E+0x74>
   848ec:	eb0a019f 	cmp	x12, x10
   848f0:	54000100 	b.eq	84910 <_ZN4core3fmt9Formatter3pad17h59d95a2e2006fc28E+0xc0>  // b.none
   848f4:	394005ae 	ldrb	w14, [x13, #1]
   848f8:	910009ac 	add	x12, x13, #0x2
   848fc:	120015ce 	and	w14, w14, #0x3f
   84900:	12001def 	and	w15, w15, #0xff
   84904:	710381ff 	cmp	w15, #0xe0
   84908:	54fffde3 	b.cc	848c4 <_ZN4core3fmt9Formatter3pad17h59d95a2e2006fc28E+0x74>  // b.lo, b.ul, b.last
   8490c:	14000006 	b	84924 <_ZN4core3fmt9Formatter3pad17h59d95a2e2006fc28E+0xd4>
   84910:	2a1f03ee 	mov	w14, wzr
   84914:	aa0a03ec 	mov	x12, x10
   84918:	12001def 	and	w15, w15, #0xff
   8491c:	710381ff 	cmp	w15, #0xe0
   84920:	54fffd23 	b.cc	848c4 <_ZN4core3fmt9Formatter3pad17h59d95a2e2006fc28E+0x74>  // b.lo, b.ul, b.last
   84924:	eb0a019f 	cmp	x12, x10
   84928:	540000c0 	b.eq	84940 <_ZN4core3fmt9Formatter3pad17h59d95a2e2006fc28E+0xf0>  // b.none
   8492c:	38401590 	ldrb	w16, [x12], #1
   84930:	12001610 	and	w16, w16, #0x3f
   84934:	7103c1ff 	cmp	w15, #0xf0
   84938:	54fffc63 	b.cc	848c4 <_ZN4core3fmt9Formatter3pad17h59d95a2e2006fc28E+0x74>  // b.lo, b.ul, b.last
   8493c:	14000005 	b	84950 <_ZN4core3fmt9Formatter3pad17h59d95a2e2006fc28E+0x100>
   84940:	2a1f03f0 	mov	w16, wzr
   84944:	aa0a03ec 	mov	x12, x10
   84948:	7103c1ff 	cmp	w15, #0xf0
   8494c:	54fffbc3 	b.cc	848c4 <_ZN4core3fmt9Formatter3pad17h59d95a2e2006fc28E+0x74>  // b.lo, b.ul, b.last
   84950:	eb0a019f 	cmp	x12, x10
   84954:	54fffa81 	b.ne	848a4 <_ZN4core3fmt9Formatter3pad17h59d95a2e2006fc28E+0x54>  // b.any
   84958:	2a1f03f1 	mov	w17, wzr
   8495c:	aa0a03ec 	mov	x12, x10
   84960:	17ffffd3 	b	848ac <_ZN4core3fmt9Formatter3pad17h59d95a2e2006fc28E+0x5c>
   84964:	aa1403ec 	mov	x12, x20
   84968:	eb0a019f 	cmp	x12, x10
   8496c:	540003a0 	b.eq	849e0 <_ZN4core3fmt9Formatter3pad17h59d95a2e2006fc28E+0x190>  // b.none
   84970:	aa0c03eb 	mov	x11, x12
   84974:	38c0156d 	ldrsb	w13, [x11], #1
   84978:	37f8014d 	tbnz	w13, #31, 849a0 <_ZN4core3fmt9Formatter3pad17h59d95a2e2006fc28E+0x150>
   8497c:	b40002a9 	cbz	x9, 849d0 <_ZN4core3fmt9Formatter3pad17h59d95a2e2006fc28E+0x180>
   84980:	eb13013f 	cmp	x9, x19
   84984:	54000222 	b.cs	849c8 <_ZN4core3fmt9Formatter3pad17h59d95a2e2006fc28E+0x178>  // b.hs, b.nlast
   84988:	38e96a8a 	ldrsb	w10, [x20, x9]
   8498c:	3101015f 	cmn	w10, #0x40
   84990:	5400020a 	b.ge	849d0 <_ZN4core3fmt9Formatter3pad17h59d95a2e2006fc28E+0x180>  // b.tcont
   84994:	aa1f03ea 	mov	x10, xzr
   84998:	aa1f03e9 	mov	x9, xzr
   8499c:	1400000e 	b	849d4 <_ZN4core3fmt9Formatter3pad17h59d95a2e2006fc28E+0x184>
   849a0:	eb0a017f 	cmp	x11, x10
   849a4:	12001dab 	and	w11, w13, #0xff
   849a8:	54001280 	b.eq	84bf8 <_ZN4core3fmt9Formatter3pad17h59d95a2e2006fc28E+0x3a8>  // b.none
   849ac:	3940058e 	ldrb	w14, [x12, #1]
   849b0:	9100098d 	add	x13, x12, #0x2
   849b4:	120015cc 	and	w12, w14, #0x3f
   849b8:	531a658c 	lsl	w12, w12, #6
   849bc:	7103817f 	cmp	w11, #0xe0
   849c0:	54001242 	b.cs	84c08 <_ZN4core3fmt9Formatter3pad17h59d95a2e2006fc28E+0x3b8>  // b.hs, b.nlast
   849c4:	17ffffee 	b	8497c <_ZN4core3fmt9Formatter3pad17h59d95a2e2006fc28E+0x12c>
   849c8:	eb13013f 	cmp	x9, x19
   849cc:	54fffe41 	b.ne	84994 <_ZN4core3fmt9Formatter3pad17h59d95a2e2006fc28E+0x144>  // b.any
   849d0:	aa1403ea 	mov	x10, x20
   849d4:	f100015f 	cmp	x10, #0x0
   849d8:	9a8a0294 	csel	x20, x20, x10, eq  // eq = none
   849dc:	9a890273 	csel	x19, x19, x9, eq  // eq = none
   849e0:	f100051f 	cmp	x8, #0x1
   849e4:	540005a1 	b.ne	84a98 <_ZN4core3fmt9Formatter3pad17h59d95a2e2006fc28E+0x248>  // b.any
   849e8:	b40000d3 	cbz	x19, 84a00 <_ZN4core3fmt9Formatter3pad17h59d95a2e2006fc28E+0x1b0>
   849ec:	f100067f 	cmp	x19, #0x1
   849f0:	54000101 	b.ne	84a10 <_ZN4core3fmt9Formatter3pad17h59d95a2e2006fc28E+0x1c0>  // b.any
   849f4:	aa1f03e9 	mov	x9, xzr
   849f8:	aa1403e8 	mov	x8, x20
   849fc:	14000018 	b	84a5c <_ZN4core3fmt9Formatter3pad17h59d95a2e2006fc28E+0x20c>
   84a00:	f9400408 	ldr	x8, [x0, #8]
   84a04:	b40004a8 	cbz	x8, 84a98 <_ZN4core3fmt9Formatter3pad17h59d95a2e2006fc28E+0x248>
   84a08:	aa1f03ea 	mov	x10, xzr
   84a0c:	14000046 	b	84b24 <_ZN4core3fmt9Formatter3pad17h59d95a2e2006fc28E+0x2d4>
   84a10:	927ffa6b 	and	x11, x19, #0xfffffffffffffffe
   84a14:	aa1f03e9 	mov	x9, xzr
   84a18:	aa1f03ea 	mov	x10, xzr
   84a1c:	8b0b0288 	add	x8, x20, x11
   84a20:	9100068c 	add	x12, x20, #0x1
   84a24:	aa0b03ed 	mov	x13, x11
   84a28:	385ff18e 	ldurb	w14, [x12, #-1]
   84a2c:	3840258f 	ldrb	w15, [x12], #2
   84a30:	121a05ce 	and	w14, w14, #0xc0
   84a34:	121a05ef 	and	w15, w15, #0xc0
   84a38:	710201df 	cmp	w14, #0x80
   84a3c:	9a890529 	cinc	x9, x9, ne  // ne = any
   84a40:	710201ff 	cmp	w15, #0x80
   84a44:	9a8a054a 	cinc	x10, x10, ne  // ne = any
   84a48:	f10009ad 	subs	x13, x13, #0x2
   84a4c:	54fffee1 	b.ne	84a28 <_ZN4core3fmt9Formatter3pad17h59d95a2e2006fc28E+0x1d8>  // b.any
   84a50:	eb0b027f 	cmp	x19, x11
   84a54:	8b090149 	add	x9, x10, x9
   84a58:	54000100 	b.eq	84a78 <_ZN4core3fmt9Formatter3pad17h59d95a2e2006fc28E+0x228>  // b.none
   84a5c:	8b13028a 	add	x10, x20, x19
   84a60:	3840150b 	ldrb	w11, [x8], #1
   84a64:	121a056b 	and	w11, w11, #0xc0
   84a68:	7102017f 	cmp	w11, #0x80
   84a6c:	9a890529 	cinc	x9, x9, ne  // ne = any
   84a70:	eb08015f 	cmp	x10, x8
   84a74:	54ffff61 	b.ne	84a60 <_ZN4core3fmt9Formatter3pad17h59d95a2e2006fc28E+0x210>  // b.any
   84a78:	f9400408 	ldr	x8, [x0, #8]
   84a7c:	eb08013f 	cmp	x9, x8
   84a80:	540000c2 	b.cs	84a98 <_ZN4core3fmt9Formatter3pad17h59d95a2e2006fc28E+0x248>  // b.hs, b.nlast
   84a84:	f1000a7f 	cmp	x19, #0x2
   84a88:	540001a2 	b.cs	84abc <_ZN4core3fmt9Formatter3pad17h59d95a2e2006fc28E+0x26c>  // b.hs, b.nlast
   84a8c:	aa1f03ea 	mov	x10, xzr
   84a90:	aa1403e9 	mov	x9, x20
   84a94:	1400001d 	b	84b08 <_ZN4core3fmt9Formatter3pad17h59d95a2e2006fc28E+0x2b8>
   84a98:	a9422000 	ldp	x0, x8, [x0, #32]
   84a9c:	aa1403e1 	mov	x1, x20
   84aa0:	aa1303e2 	mov	x2, x19
   84aa4:	a9434ff4 	ldp	x20, x19, [sp, #48]
   84aa8:	f9400d03 	ldr	x3, [x8, #24]
   84aac:	a94257f6 	ldp	x22, x21, [sp, #32]
   84ab0:	a9415ff8 	ldp	x24, x23, [sp, #16]
   84ab4:	a8c467fe 	ldp	x30, x25, [sp], #64
   84ab8:	d61f0060 	br	x3
   84abc:	927ffa6c 	and	x12, x19, #0xfffffffffffffffe
   84ac0:	aa1f03ea 	mov	x10, xzr
   84ac4:	aa1f03eb 	mov	x11, xzr
   84ac8:	8b0c0289 	add	x9, x20, x12
   84acc:	9100068d 	add	x13, x20, #0x1
   84ad0:	aa0c03ee 	mov	x14, x12
   84ad4:	385ff1af 	ldurb	w15, [x13, #-1]
   84ad8:	384025b0 	ldrb	w16, [x13], #2
   84adc:	121a05ef 	and	w15, w15, #0xc0
   84ae0:	121a0610 	and	w16, w16, #0xc0
   84ae4:	710201ff 	cmp	w15, #0x80
   84ae8:	9a8a054a 	cinc	x10, x10, ne  // ne = any
   84aec:	7102021f 	cmp	w16, #0x80
   84af0:	9a8b056b 	cinc	x11, x11, ne  // ne = any
   84af4:	f10009ce 	subs	x14, x14, #0x2
   84af8:	54fffee1 	b.ne	84ad4 <_ZN4core3fmt9Formatter3pad17h59d95a2e2006fc28E+0x284>  // b.any
   84afc:	eb0c027f 	cmp	x19, x12
   84b00:	8b0a016a 	add	x10, x11, x10
   84b04:	54000100 	b.eq	84b24 <_ZN4core3fmt9Formatter3pad17h59d95a2e2006fc28E+0x2d4>  // b.none
   84b08:	8b13028b 	add	x11, x20, x19
   84b0c:	3840152c 	ldrb	w12, [x9], #1
   84b10:	121a058c 	and	w12, w12, #0xc0
   84b14:	7102019f 	cmp	w12, #0x80
   84b18:	9a8a054a 	cinc	x10, x10, ne  // ne = any
   84b1c:	eb09017f 	cmp	x11, x9
   84b20:	54ffff61 	b.ne	84b0c <_ZN4core3fmt9Formatter3pad17h59d95a2e2006fc28E+0x2bc>  // b.any
   84b24:	3940e009 	ldrb	w9, [x0, #56]
   84b28:	cb0a0108 	sub	x8, x8, x10
   84b2c:	71000d3f 	cmp	w9, #0x3
   84b30:	1a8903e9 	csel	w9, wzr, w9, eq  // eq = none
   84b34:	72000529 	ands	w9, w9, #0x3
   84b38:	540000a0 	b.eq	84b4c <_ZN4core3fmt9Formatter3pad17h59d95a2e2006fc28E+0x2fc>  // b.none
   84b3c:	7100053f 	cmp	w9, #0x1
   84b40:	540000c1 	b.ne	84b58 <_ZN4core3fmt9Formatter3pad17h59d95a2e2006fc28E+0x308>  // b.any
   84b44:	aa1f03f8 	mov	x24, xzr
   84b48:	14000007 	b	84b64 <_ZN4core3fmt9Formatter3pad17h59d95a2e2006fc28E+0x314>
   84b4c:	aa0803f8 	mov	x24, x8
   84b50:	aa1f03e8 	mov	x8, xzr
   84b54:	14000004 	b	84b64 <_ZN4core3fmt9Formatter3pad17h59d95a2e2006fc28E+0x314>
   84b58:	91000509 	add	x9, x8, #0x1
   84b5c:	d341fd08 	lsr	x8, x8, #1
   84b60:	d341fd38 	lsr	x24, x9, #1
   84b64:	a9425c15 	ldp	x21, x23, [x0, #32]
   84b68:	b9403416 	ldr	w22, [x0, #52]
   84b6c:	91000519 	add	x25, x8, #0x1
   84b70:	f1000739 	subs	x25, x25, #0x1
   84b74:	540000e0 	b.eq	84b90 <_ZN4core3fmt9Formatter3pad17h59d95a2e2006fc28E+0x340>  // b.none
   84b78:	f94012e8 	ldr	x8, [x23, #32]
   84b7c:	aa1503e0 	mov	x0, x21
   84b80:	2a1603e1 	mov	w1, w22
   84b84:	d63f0100 	blr	x8
   84b88:	3607ff40 	tbz	w0, #0, 84b70 <_ZN4core3fmt9Formatter3pad17h59d95a2e2006fc28E+0x320>
   84b8c:	1400000a 	b	84bb4 <_ZN4core3fmt9Formatter3pad17h59d95a2e2006fc28E+0x364>
   84b90:	714442df 	cmp	w22, #0x110, lsl #12
   84b94:	9a9803f8 	csel	x24, xzr, x24, eq  // eq = none
   84b98:	540000e0 	b.eq	84bb4 <_ZN4core3fmt9Formatter3pad17h59d95a2e2006fc28E+0x364>  // b.none
   84b9c:	f9400ee8 	ldr	x8, [x23, #24]
   84ba0:	aa1503e0 	mov	x0, x21
   84ba4:	aa1403e1 	mov	x1, x20
   84ba8:	aa1303e2 	mov	x2, x19
   84bac:	d63f0100 	blr	x8
   84bb0:	360000e0 	tbz	w0, #0, 84bcc <_ZN4core3fmt9Formatter3pad17h59d95a2e2006fc28E+0x37c>
   84bb4:	52800020 	mov	w0, #0x1                   	// #1
   84bb8:	a9434ff4 	ldp	x20, x19, [sp, #48]
   84bbc:	a94257f6 	ldp	x22, x21, [sp, #32]
   84bc0:	a9415ff8 	ldp	x24, x23, [sp, #16]
   84bc4:	a8c467fe 	ldp	x30, x25, [sp], #64
   84bc8:	d65f03c0 	ret
   84bcc:	aa1f03f3 	mov	x19, xzr
   84bd0:	eb13031f 	cmp	x24, x19
   84bd4:	54000280 	b.eq	84c24 <_ZN4core3fmt9Formatter3pad17h59d95a2e2006fc28E+0x3d4>  // b.none
   84bd8:	f94012e8 	ldr	x8, [x23, #32]
   84bdc:	aa1503e0 	mov	x0, x21
   84be0:	2a1603e1 	mov	w1, w22
   84be4:	91000673 	add	x19, x19, #0x1
   84be8:	d63f0100 	blr	x8
   84bec:	34ffff20 	cbz	w0, 84bd0 <_ZN4core3fmt9Formatter3pad17h59d95a2e2006fc28E+0x380>
   84bf0:	d1000668 	sub	x8, x19, #0x1
   84bf4:	1400000d 	b	84c28 <_ZN4core3fmt9Formatter3pad17h59d95a2e2006fc28E+0x3d8>
   84bf8:	2a1f03ec 	mov	w12, wzr
   84bfc:	aa0a03ed 	mov	x13, x10
   84c00:	7103817f 	cmp	w11, #0xe0
   84c04:	54ffebc3 	b.cc	8497c <_ZN4core3fmt9Formatter3pad17h59d95a2e2006fc28E+0x12c>  // b.lo, b.ul, b.last
   84c08:	eb0a01bf 	cmp	x13, x10
   84c0c:	54000140 	b.eq	84c34 <_ZN4core3fmt9Formatter3pad17h59d95a2e2006fc28E+0x3e4>  // b.none
   84c10:	384015ae 	ldrb	w14, [x13], #1
   84c14:	120015ce 	and	w14, w14, #0x3f
   84c18:	7103c17f 	cmp	w11, #0xf0
   84c1c:	54000142 	b.cs	84c44 <_ZN4core3fmt9Formatter3pad17h59d95a2e2006fc28E+0x3f4>  // b.hs, b.nlast
   84c20:	17ffff57 	b	8497c <_ZN4core3fmt9Formatter3pad17h59d95a2e2006fc28E+0x12c>
   84c24:	aa1803e8 	mov	x8, x24
   84c28:	eb18011f 	cmp	x8, x24
   84c2c:	1a9f27e0 	cset	w0, cc  // cc = lo, ul, last
   84c30:	17ffffe2 	b	84bb8 <_ZN4core3fmt9Formatter3pad17h59d95a2e2006fc28E+0x368>
   84c34:	2a1f03ee 	mov	w14, wzr
   84c38:	aa0a03ed 	mov	x13, x10
   84c3c:	7103c17f 	cmp	w11, #0xf0
   84c40:	54ffe9e3 	b.cc	8497c <_ZN4core3fmt9Formatter3pad17h59d95a2e2006fc28E+0x12c>  // b.lo, b.ul, b.last
   84c44:	eb0a01bf 	cmp	x13, x10
   84c48:	2a0c01ca 	orr	w10, w14, w12
   84c4c:	54000080 	b.eq	84c5c <_ZN4core3fmt9Formatter3pad17h59d95a2e2006fc28E+0x40c>  // b.none
   84c50:	394001ac 	ldrb	w12, [x13]
   84c54:	1200158c 	and	w12, w12, #0x3f
   84c58:	14000002 	b	84c60 <_ZN4core3fmt9Formatter3pad17h59d95a2e2006fc28E+0x410>
   84c5c:	2a1f03ec 	mov	w12, wzr
   84c60:	530e096b 	ubfiz	w11, w11, #18, #3
   84c64:	331a2d4b 	bfi	w11, w10, #6, #12
   84c68:	2a0c016a 	orr	w10, w11, w12
   84c6c:	7144415f 	cmp	w10, #0x110, lsl #12
   84c70:	54ffeb80 	b.eq	849e0 <_ZN4core3fmt9Formatter3pad17h59d95a2e2006fc28E+0x190>  // b.none
   84c74:	17ffff42 	b	8497c <_ZN4core3fmt9Formatter3pad17h59d95a2e2006fc28E+0x12c>

0000000000084c78 <_ZN4core3fmt9Formatter15debug_lower_hex17he895c92ce3e1e3eeE>:
   84c78:	3940c008 	ldrb	w8, [x0, #48]
   84c7c:	53041100 	ubfx	w0, w8, #4, #1
   84c80:	d65f03c0 	ret

0000000000084c84 <_ZN4core3fmt9Formatter15debug_upper_hex17h9a3cde1d80970c0eE>:
   84c84:	3940c008 	ldrb	w8, [x0, #48]
   84c88:	53051500 	ubfx	w0, w8, #5, #1
   84c8c:	d65f03c0 	ret

0000000000084c90 <_ZN4core3fmt9Formatter12debug_struct17ha099bc2c3542888fE>:
   84c90:	a9bf4ffe 	stp	x30, x19, [sp, #-16]!
   84c94:	aa0003f3 	mov	x19, x0
   84c98:	a9422000 	ldp	x0, x8, [x0, #32]
   84c9c:	f9400d08 	ldr	x8, [x8, #24]
   84ca0:	d63f0100 	blr	x8
   84ca4:	7100001f 	cmp	w0, #0x0
   84ca8:	9a9f07e1 	cset	x1, ne  // ne = any
   84cac:	aa1303e0 	mov	x0, x19
   84cb0:	a8c14ffe 	ldp	x30, x19, [sp], #16
   84cb4:	d65f03c0 	ret

0000000000084cb8 <_ZN42_$LT$str$u20$as$u20$core..fmt..Display$GT$3fmt17h5f2a536c1cace94aE>:
   84cb8:	aa0103e8 	mov	x8, x1
   84cbc:	aa0003e1 	mov	x1, x0
   84cc0:	aa0203e0 	mov	x0, x2
   84cc4:	aa0803e2 	mov	x2, x8
   84cc8:	17fffee2 	b	84850 <_ZN4core3fmt9Formatter3pad17h59d95a2e2006fc28E>

0000000000084ccc <_ZN41_$LT$char$u20$as$u20$core..fmt..Debug$GT$3fmt17haddc4d8efb0bbfd5E>:
   84ccc:	d10183ff 	sub	sp, sp, #0x60
   84cd0:	a9054ff4 	stp	x20, x19, [sp, #80]
   84cd4:	a9422033 	ldp	x19, x8, [x1, #32]
   84cd8:	aa0003f4 	mov	x20, x0
   84cdc:	528004e1 	mov	w1, #0x27                  	// #39
   84ce0:	a9016ffe 	stp	x30, x27, [sp, #16]
   84ce4:	f9401102 	ldr	x2, [x8, #32]
   84ce8:	aa1303e0 	mov	x0, x19
   84cec:	a90267fa 	stp	x26, x25, [sp, #32]
   84cf0:	a9035ff8 	stp	x24, x23, [sp, #48]
   84cf4:	a90457f6 	stp	x22, x21, [sp, #64]
   84cf8:	f90007e2 	str	x2, [sp, #8]
   84cfc:	d63f0040 	blr	x2
   84d00:	36000120 	tbz	w0, #0, 84d24 <_ZN41_$LT$char$u20$as$u20$core..fmt..Debug$GT$3fmt17haddc4d8efb0bbfd5E+0x58>
   84d04:	a9454ff4 	ldp	x20, x19, [sp, #80]
   84d08:	a94457f6 	ldp	x22, x21, [sp, #64]
   84d0c:	a9435ff8 	ldp	x24, x23, [sp, #48]
   84d10:	a94267fa 	ldp	x26, x25, [sp, #32]
   84d14:	a9416ffe 	ldp	x30, x27, [sp, #16]
   84d18:	52800020 	mov	w0, #0x1                   	// #1
   84d1c:	910183ff 	add	sp, sp, #0x60
   84d20:	d65f03c0 	ret
   84d24:	b9400294 	ldr	w20, [x20]
   84d28:	51002688 	sub	w8, w20, #0x9
   84d2c:	7100791f 	cmp	w8, #0x1e
   84d30:	54000188 	b.hi	84d60 <_ZN41_$LT$char$u20$as$u20$core..fmt..Debug$GT$3fmt17haddc4d8efb0bbfd5E+0x94>  // b.pmore
   84d34:	d0000009 	adrp	x9, 86000 <anon.57ef2e3c02ffeaf529e6c598bd0b036c.20.llvm.5445877691761700591+0x1c>
   84d38:	911f4129 	add	x9, x9, #0x7d0
   84d3c:	100000ca 	adr	x10, 84d54 <_ZN41_$LT$char$u20$as$u20$core..fmt..Debug$GT$3fmt17haddc4d8efb0bbfd5E+0x88>
   84d40:	3868692b 	ldrb	w11, [x9, x8]
   84d44:	8b0b094a 	add	x10, x10, x11, lsl #2
   84d48:	52800e95 	mov	w21, #0x74                  	// #116
   84d4c:	52800057 	mov	w23, #0x2                   	// #2
   84d50:	d61f0140 	br	x10
   84d54:	52800dd5 	mov	w21, #0x6e                  	// #110
   84d58:	52800057 	mov	w23, #0x2                   	// #2
   84d5c:	1400005c 	b	84ecc <_ZN41_$LT$char$u20$as$u20$core..fmt..Debug$GT$3fmt17haddc4d8efb0bbfd5E+0x200>
   84d60:	7101729f 	cmp	w20, #0x5c
   84d64:	54000081 	b.ne	84d74 <_ZN41_$LT$char$u20$as$u20$core..fmt..Debug$GT$3fmt17haddc4d8efb0bbfd5E+0xa8>  // b.any
   84d68:	52800057 	mov	w23, #0x2                   	// #2
   84d6c:	2a1403f5 	mov	w21, w20
   84d70:	14000057 	b	84ecc <_ZN41_$LT$char$u20$as$u20$core..fmt..Debug$GT$3fmt17haddc4d8efb0bbfd5E+0x200>
   84d74:	2a1403e0 	mov	w0, w20
   84d78:	97fffcf1 	bl	8413c <_ZN4core7unicode12unicode_data15grapheme_extend6lookup17h9125850df650cd1dE>
   84d7c:	37000980 	tbnz	w0, #0, 84eac <_ZN41_$LT$char$u20$as$u20$core..fmt..Debug$GT$3fmt17haddc4d8efb0bbfd5E+0x1e0>
   84d80:	7140429f 	cmp	w20, #0x10, lsl #12
   84d84:	54000222 	b.cs	84dc8 <_ZN41_$LT$char$u20$as$u20$core..fmt..Debug$GT$3fmt17haddc4d8efb0bbfd5E+0xfc>  // b.hs, b.nlast
   84d88:	b0000001 	adrp	x1, 85000 <memcpy+0x14>
   84d8c:	b0000003 	adrp	x3, 85000 <memcpy+0x14>
   84d90:	b0000005 	adrp	x5, 85000 <memcpy+0x14>
   84d94:	91310021 	add	x1, x1, #0xc40
   84d98:	91324863 	add	x3, x3, #0xc92
   84d9c:	9136d0a5 	add	x5, x5, #0xdb4
   84da0:	52800522 	mov	w2, #0x29                  	// #41
   84da4:	52802444 	mov	w4, #0x122                 	// #290
   84da8:	528026a6 	mov	w6, #0x135                 	// #309
   84dac:	2a1403e0 	mov	w0, w20
   84db0:	97fffb11 	bl	839f4 <_ZN4core7unicode9printable5check17h3df87d4e8e554ccdE.llvm.5445877691761700591>
   84db4:	37000760 	tbnz	w0, #0, 84ea0 <_ZN41_$LT$char$u20$as$u20$core..fmt..Debug$GT$3fmt17haddc4d8efb0bbfd5E+0x1d4>
   84db8:	1400003d 	b	84eac <_ZN41_$LT$char$u20$as$u20$core..fmt..Debug$GT$3fmt17haddc4d8efb0bbfd5E+0x1e0>
   84dbc:	52800e55 	mov	w21, #0x72                  	// #114
   84dc0:	52800057 	mov	w23, #0x2                   	// #2
   84dc4:	14000042 	b	84ecc <_ZN41_$LT$char$u20$as$u20$core..fmt..Debug$GT$3fmt17haddc4d8efb0bbfd5E+0x200>
   84dc8:	7140829f 	cmp	w20, #0x20, lsl #12
   84dcc:	540001c2 	b.cs	84e04 <_ZN41_$LT$char$u20$as$u20$core..fmt..Debug$GT$3fmt17haddc4d8efb0bbfd5E+0x138>  // b.hs, b.nlast
   84dd0:	b0000001 	adrp	x1, 85000 <memcpy+0x14>
   84dd4:	b0000003 	adrp	x3, 85000 <memcpy+0x14>
   84dd8:	b0000005 	adrp	x5, 85000 <memcpy+0x14>
   84ddc:	913ba421 	add	x1, x1, #0xee9
   84de0:	913cd463 	add	x3, x3, #0xf35
   84de4:	913f90a5 	add	x5, x5, #0xfe4
   84de8:	528004c2 	mov	w2, #0x26                  	// #38
   84dec:	528015e4 	mov	w4, #0xaf                  	// #175
   84df0:	52803466 	mov	w6, #0x1a3                 	// #419
   84df4:	2a1403e0 	mov	w0, w20
   84df8:	97fffaff 	bl	839f4 <_ZN4core7unicode9printable5check17h3df87d4e8e554ccdE.llvm.5445877691761700591>
   84dfc:	37000520 	tbnz	w0, #0, 84ea0 <_ZN41_$LT$char$u20$as$u20$core..fmt..Debug$GT$3fmt17haddc4d8efb0bbfd5E+0x1d4>
   84e00:	1400002b 	b	84eac <_ZN41_$LT$char$u20$as$u20$core..fmt..Debug$GT$3fmt17haddc4d8efb0bbfd5E+0x1e0>
   84e04:	52803de8 	mov	w8, #0x1ef                 	// #495
   84e08:	72a001c8 	movk	w8, #0xe, lsl #16
   84e0c:	6b08029f 	cmp	w20, w8
   84e10:	540004e8 	b.hi	84eac <_ZN41_$LT$char$u20$as$u20$core..fmt..Debug$GT$3fmt17haddc4d8efb0bbfd5E+0x1e0>  // b.pmore
   84e14:	529d96a8 	mov	w8, #0xecb5                	// #60597
   84e18:	72bfff88 	movk	w8, #0xfffc, lsl #16
   84e1c:	529db6a9 	mov	w9, #0xedb5                	// #60853
   84e20:	0b080288 	add	w8, w20, w8
   84e24:	72a00149 	movk	w9, #0xa, lsl #16
   84e28:	6b09011f 	cmp	w8, w9
   84e2c:	54000403 	b.cc	84eac <_ZN41_$LT$char$u20$as$u20$core..fmt..Debug$GT$3fmt17haddc4d8efb0bbfd5E+0x1e0>  // b.lo, b.ul, b.last
   84e30:	5280bc48 	mov	w8, #0x5e2                 	// #1506
   84e34:	72bfffa8 	movk	w8, #0xfffd, lsl #16
   84e38:	0b080288 	add	w8, w20, w8
   84e3c:	7117891f 	cmp	w8, #0x5e2
   84e40:	54000363 	b.cc	84eac <_ZN41_$LT$char$u20$as$u20$core..fmt..Debug$GT$3fmt17haddc4d8efb0bbfd5E+0x1e0>  // b.lo, b.ul, b.last
   84e44:	1138f508 	add	w8, w8, #0xe3d
   84e48:	71307d1f 	cmp	w8, #0xc1f
   84e4c:	54000303 	b.cc	84eac <_ZN41_$LT$char$u20$as$u20$core..fmt..Debug$GT$3fmt17haddc4d8efb0bbfd5E+0x1e0>  // b.lo, b.ul, b.last
   84e50:	52862bc8 	mov	w8, #0x315e                	// #12638
   84e54:	72bfffa8 	movk	w8, #0xfffd, lsl #16
   84e58:	0b080288 	add	w8, w20, w8
   84e5c:	7100391f 	cmp	w8, #0xe
   84e60:	54000263 	b.cc	84eac <_ZN41_$LT$char$u20$as$u20$core..fmt..Debug$GT$3fmt17haddc4d8efb0bbfd5E+0x1e0>  // b.lo, b.ul, b.last
   84e64:	529703c9 	mov	w9, #0xb81e                	// #47134
   84e68:	121f4e88 	and	w8, w20, #0x1ffffe
   84e6c:	72a00049 	movk	w9, #0x2, lsl #16
   84e70:	6b09011f 	cmp	w8, w9
   84e74:	540001c0 	b.eq	84eac <_ZN41_$LT$char$u20$as$u20$core..fmt..Debug$GT$3fmt17haddc4d8efb0bbfd5E+0x1e0>  // b.none
   84e78:	528b2448 	mov	w8, #0x5922                	// #22818
   84e7c:	72bfffa8 	movk	w8, #0xfffd, lsl #16
   84e80:	0b080288 	add	w8, w20, w8
   84e84:	7100891f 	cmp	w8, #0x22
   84e88:	54000123 	b.cc	84eac <_ZN41_$LT$char$u20$as$u20$core..fmt..Debug$GT$3fmt17haddc4d8efb0bbfd5E+0x1e0>  // b.lo, b.ul, b.last
   84e8c:	52891968 	mov	w8, #0x48cb                	// #18635
   84e90:	72bfffa8 	movk	w8, #0xfffd, lsl #16
   84e94:	0b080288 	add	w8, w20, w8
   84e98:	71002d1f 	cmp	w8, #0xb
   84e9c:	54000083 	b.cc	84eac <_ZN41_$LT$char$u20$as$u20$core..fmt..Debug$GT$3fmt17haddc4d8efb0bbfd5E+0x1e0>  // b.lo, b.ul, b.last
   84ea0:	52800037 	mov	w23, #0x1                   	// #1
   84ea4:	2a1403f5 	mov	w21, w20
   84ea8:	14000009 	b	84ecc <_ZN41_$LT$char$u20$as$u20$core..fmt..Debug$GT$3fmt17haddc4d8efb0bbfd5E+0x200>
   84eac:	32000288 	orr	w8, w20, #0x1
   84eb0:	5ac01108 	clz	w8, w8
   84eb4:	2a1403e9 	mov	w9, w20
   84eb8:	d2c000aa 	mov	x10, #0x500000000           	// #21474836480
   84ebc:	53027d08 	lsr	w8, w8, #2
   84ec0:	aa0a0138 	orr	x24, x9, x10
   84ec4:	52000916 	eor	w22, w8, #0x7
   84ec8:	52800077 	mov	w23, #0x3                   	// #3
   84ecc:	d0000014 	adrp	x20, 86000 <anon.57ef2e3c02ffeaf529e6c598bd0b036c.20.llvm.5445877691761700591+0x1c>
   84ed0:	d0000019 	adrp	x25, 86000 <anon.57ef2e3c02ffeaf529e6c598bd0b036c.20.llvm.5445877691761700591+0x1c>
   84ed4:	911fbe94 	add	x20, x20, #0x7ef
   84ed8:	911fcf39 	add	x25, x25, #0x7f3
   84edc:	52800afa 	mov	w26, #0x57                  	// #87
   84ee0:	5280061b 	mov	w27, #0x30                  	// #48
   84ee4:	14000007 	b	84f00 <_ZN41_$LT$char$u20$as$u20$core..fmt..Debug$GT$3fmt17haddc4d8efb0bbfd5E+0x234>
   84ee8:	2a1f03f7 	mov	w23, wzr
   84eec:	2a1503e1 	mov	w1, w21
   84ef0:	f94007e2 	ldr	x2, [sp, #8]
   84ef4:	aa1303e0 	mov	x0, x19
   84ef8:	d63f0040 	blr	x2
   84efc:	3707f040 	tbnz	w0, #0, 84d04 <_ZN41_$LT$char$u20$as$u20$core..fmt..Debug$GT$3fmt17haddc4d8efb0bbfd5E+0x38>
   84f00:	2a1703e8 	mov	w8, w23
   84f04:	10ffff29 	adr	x9, 84ee8 <_ZN41_$LT$char$u20$as$u20$core..fmt..Debug$GT$3fmt17haddc4d8efb0bbfd5E+0x21c>
   84f08:	38686a8a 	ldrb	w10, [x20, x8]
   84f0c:	8b0a0929 	add	x9, x9, x10, lsl #2
   84f10:	52800037 	mov	w23, #0x1                   	// #1
   84f14:	52800b81 	mov	w1, #0x5c                  	// #92
   84f18:	d61f0120 	br	x9
   84f1c:	d3609f08 	ubfx	x8, x24, #32, #8
   84f20:	10000089 	adr	x9, 84f30 <_ZN41_$LT$char$u20$as$u20$core..fmt..Debug$GT$3fmt17haddc4d8efb0bbfd5E+0x264>
   84f24:	38686b2a 	ldrb	w10, [x25, x8]
   84f28:	8b0a0929 	add	x9, x9, x10, lsl #2
   84f2c:	d61f0120 	br	x9
   84f30:	9258df18 	and	x24, x24, #0xffffff00ffffffff
   84f34:	52800077 	mov	w23, #0x3                   	// #3
   84f38:	52800fa1 	mov	w1, #0x7d                  	// #125
   84f3c:	17ffffed 	b	84ef0 <_ZN41_$LT$char$u20$as$u20$core..fmt..Debug$GT$3fmt17haddc4d8efb0bbfd5E+0x224>
   84f40:	531e0ac8 	ubfiz	w8, w22, #2, #3
   84f44:	1ac82708 	lsr	w8, w24, w8
   84f48:	12000d08 	and	w8, w8, #0xf
   84f4c:	7100291f 	cmp	w8, #0xa
   84f50:	1a9a3369 	csel	w9, w27, w26, cc  // cc = lo, ul, last
   84f54:	0b080121 	add	w1, w9, w8
   84f58:	b4000276 	cbz	x22, 84fa4 <_ZN41_$LT$char$u20$as$u20$core..fmt..Debug$GT$3fmt17haddc4d8efb0bbfd5E+0x2d8>
   84f5c:	d10006d6 	sub	x22, x22, #0x1
   84f60:	52800077 	mov	w23, #0x3                   	// #3
   84f64:	17ffffe3 	b	84ef0 <_ZN41_$LT$char$u20$as$u20$core..fmt..Debug$GT$3fmt17haddc4d8efb0bbfd5E+0x224>
   84f68:	9258df08 	and	x8, x24, #0xffffff00ffffffff
   84f6c:	52800077 	mov	w23, #0x3                   	// #3
   84f70:	b25f0118 	orr	x24, x8, #0x200000000
   84f74:	52800f61 	mov	w1, #0x7b                  	// #123
   84f78:	17ffffde 	b	84ef0 <_ZN41_$LT$char$u20$as$u20$core..fmt..Debug$GT$3fmt17haddc4d8efb0bbfd5E+0x224>
   84f7c:	9258df08 	and	x8, x24, #0xffffff00ffffffff
   84f80:	52800077 	mov	w23, #0x3                   	// #3
   84f84:	b2600518 	orr	x24, x8, #0x300000000
   84f88:	52800ea1 	mov	w1, #0x75                  	// #117
   84f8c:	17ffffd9 	b	84ef0 <_ZN41_$LT$char$u20$as$u20$core..fmt..Debug$GT$3fmt17haddc4d8efb0bbfd5E+0x224>
   84f90:	9258df08 	and	x8, x24, #0xffffff00ffffffff
   84f94:	52800077 	mov	w23, #0x3                   	// #3
   84f98:	b25e0118 	orr	x24, x8, #0x400000000
   84f9c:	52800b81 	mov	w1, #0x5c                  	// #92
   84fa0:	17ffffd4 	b	84ef0 <_ZN41_$LT$char$u20$as$u20$core..fmt..Debug$GT$3fmt17haddc4d8efb0bbfd5E+0x224>
   84fa4:	9258df08 	and	x8, x24, #0xffffff00ffffffff
   84fa8:	b2600118 	orr	x24, x8, #0x100000000
   84fac:	52800077 	mov	w23, #0x3                   	// #3
   84fb0:	17ffffd0 	b	84ef0 <_ZN41_$LT$char$u20$as$u20$core..fmt..Debug$GT$3fmt17haddc4d8efb0bbfd5E+0x224>
   84fb4:	aa1303e0 	mov	x0, x19
   84fb8:	f94007e2 	ldr	x2, [sp, #8]
   84fbc:	a9454ff4 	ldp	x20, x19, [sp, #80]
   84fc0:	a94457f6 	ldp	x22, x21, [sp, #64]
   84fc4:	a9435ff8 	ldp	x24, x23, [sp, #48]
   84fc8:	a94267fa 	ldp	x26, x25, [sp, #32]
   84fcc:	a9416ffe 	ldp	x30, x27, [sp, #16]
   84fd0:	528004e1 	mov	w1, #0x27                  	// #39
   84fd4:	910183ff 	add	sp, sp, #0x60
   84fd8:	d61f0040 	br	x2

0000000000084fdc <_ZN44_$LT$$RF$T$u20$as$u20$core..fmt..Display$GT$3fmt17hea010d7adc6701a8E>:
   84fdc:	a9400808 	ldp	x8, x2, [x0]
   84fe0:	aa0103e0 	mov	x0, x1
   84fe4:	aa0803e1 	mov	x1, x8
   84fe8:	17fffe1a 	b	84850 <_ZN4core3fmt9Formatter3pad17h59d95a2e2006fc28E>

0000000000084fec <memcpy>:
   84fec:	d10103ff 	sub	sp, sp, #0x40
   84ff0:	b4000222 	cbz	x2, 85034 <memcpy+0x48>
   84ff4:	f100205f 	cmp	x2, #0x8
   84ff8:	540000e3 	b.cc	85014 <memcpy+0x28>  // b.lo, b.ul, b.last
   84ffc:	8b020028 	add	x8, x1, x2
   85000:	eb00011f 	cmp	x8, x0
   85004:	540001c9 	b.ls	8503c <memcpy+0x50>  // b.plast
   85008:	8b020008 	add	x8, x0, x2
   8500c:	eb01011f 	cmp	x8, x1
   85010:	54000169 	b.ls	8503c <memcpy+0x50>  // b.plast
   85014:	aa1f03e8 	mov	x8, xzr
   85018:	cb080049 	sub	x9, x2, x8
   8501c:	8b08000a 	add	x10, x0, x8
   85020:	8b080028 	add	x8, x1, x8
   85024:	3840150b 	ldrb	w11, [x8], #1
   85028:	f1000529 	subs	x9, x9, #0x1
   8502c:	3800154b 	strb	w11, [x10], #1
   85030:	54ffffa1 	b.ne	85024 <memcpy+0x38>  // b.any
   85034:	910103ff 	add	sp, sp, #0x40
   85038:	d65f03c0 	ret
   8503c:	f100805f 	cmp	x2, #0x20
   85040:	54000062 	b.cs	8504c <memcpy+0x60>  // b.hs, b.nlast
   85044:	aa1f03e8 	mov	x8, xzr
   85048:	1400009a 	b	852b0 <memcpy+0x2c4>
   8504c:	927be848 	and	x8, x2, #0xffffffffffffffe0
   85050:	91004029 	add	x9, x1, #0x10
   85054:	9100400b 	add	x11, x0, #0x10
   85058:	aa0803ea 	mov	x10, x8
   8505c:	aa0903ed 	mov	x13, x9
   85060:	385f112c 	ldurb	w12, [x9, #-15]
   85064:	385f0dae 	ldrb	w14, [x13, #-16]!
   85068:	f100814a 	subs	x10, x10, #0x20
   8506c:	aa0d03f1 	mov	x17, x13
   85070:	39400daf 	ldrb	w15, [x13, #3]
   85074:	394009b0 	ldrb	w16, [x13, #2]
   85078:	38404e32 	ldrb	w18, [x17, #4]!
   8507c:	385f5123 	ldurb	w3, [x9, #-11]
   85080:	b3781d8e 	bfi	x14, x12, #8, #8
   85084:	b3781df0 	bfi	x16, x15, #8, #8
   85088:	39400e24 	ldrb	w4, [x17, #3]
   8508c:	39400a31 	ldrb	w17, [x17, #2]
   85090:	33181c72 	bfi	w18, w3, #8, #8
   85094:	b3703e0e 	bfi	x14, x16, #16, #16
   85098:	aa0d03ec 	mov	x12, x13
   8509c:	33181c91 	bfi	w17, w4, #8, #8
   850a0:	33103e32 	bfi	w18, w17, #16, #16
   850a4:	b3607e4e 	bfi	x14, x18, #32, #32
   850a8:	f9000bee 	str	x14, [sp, #16]
   850ac:	394025ae 	ldrb	w14, [x13, #9]
   850b0:	38408d8f 	ldrb	w15, [x12, #8]!
   850b4:	39400d90 	ldrb	w16, [x12, #3]
   850b8:	39400991 	ldrb	w17, [x12, #2]
   850bc:	38404d92 	ldrb	w18, [x12, #4]!
   850c0:	394035ad 	ldrb	w13, [x13, #13]
   850c4:	b3781dcf 	bfi	x15, x14, #8, #8
   850c8:	b3781e11 	bfi	x17, x16, #8, #8
   850cc:	39400d83 	ldrb	w3, [x12, #3]
   850d0:	3940098c 	ldrb	w12, [x12, #2]
   850d4:	33181db2 	bfi	w18, w13, #8, #8
   850d8:	b3703e2f 	bfi	x15, x17, #16, #16
   850dc:	aa0903ee 	mov	x14, x9
   850e0:	33181c6c 	bfi	w12, w3, #8, #8
   850e4:	33103d92 	bfi	w18, w12, #16, #16
   850e8:	b3607e4f 	bfi	x15, x18, #32, #32
   850ec:	f9000fef 	str	x15, [sp, #24]
   850f0:	3dc007e0 	ldr	q0, [sp, #16]
   850f4:	39400d2c 	ldrb	w12, [x9, #3]
   850f8:	3940092d 	ldrb	w13, [x9, #2]
   850fc:	3940052f 	ldrb	w15, [x9, #1]
   85100:	39400130 	ldrb	w16, [x9]
   85104:	38404dd1 	ldrb	w17, [x14, #4]!
   85108:	39401532 	ldrb	w18, [x9, #5]
   8510c:	b3781d8d 	bfi	x13, x12, #8, #8
   85110:	b3781df0 	bfi	x16, x15, #8, #8
   85114:	39400dc3 	ldrb	w3, [x14, #3]
   85118:	394009ce 	ldrb	w14, [x14, #2]
   8511c:	33181e51 	bfi	w17, w18, #8, #8
   85120:	b3703db0 	bfi	x16, x13, #16, #16
   85124:	aa0903ec 	mov	x12, x9
   85128:	33181c6e 	bfi	w14, w3, #8, #8
   8512c:	33103dd1 	bfi	w17, w14, #16, #16
   85130:	b3607e30 	bfi	x16, x17, #32, #32
   85134:	f90003f0 	str	x16, [sp]
   85138:	3940252d 	ldrb	w13, [x9, #9]
   8513c:	38408d8e 	ldrb	w14, [x12, #8]!
   85140:	39400d8f 	ldrb	w15, [x12, #3]
   85144:	39400990 	ldrb	w16, [x12, #2]
   85148:	38404d91 	ldrb	w17, [x12, #4]!
   8514c:	39403532 	ldrb	w18, [x9, #13]
   85150:	b3781dae 	bfi	x14, x13, #8, #8
   85154:	b3781df0 	bfi	x16, x15, #8, #8
   85158:	39400d83 	ldrb	w3, [x12, #3]
   8515c:	3940098c 	ldrb	w12, [x12, #2]
   85160:	33181e51 	bfi	w17, w18, #8, #8
   85164:	3d800fe0 	str	q0, [sp, #48]
   85168:	b3703e0e 	bfi	x14, x16, #16, #16
   8516c:	33181c6c 	bfi	w12, w3, #8, #8
   85170:	33103d91 	bfi	w17, w12, #16, #16
   85174:	f9401bec 	ldr	x12, [sp, #48]
   85178:	b3607e2e 	bfi	x14, x17, #32, #32
   8517c:	f90007ee 	str	x14, [sp, #8]
   85180:	aa0b03ed 	mov	x13, x11
   85184:	3dc003e1 	ldr	q1, [sp]
   85188:	381f0dac 	strb	w12, [x13, #-16]!
   8518c:	f9401ff0 	ldr	x16, [sp, #56]
   85190:	d358fd8f 	lsr	x15, x12, #24
   85194:	d368fd8e 	lsr	x14, x12, #40
   85198:	39000daf 	strb	w15, [x13, #3]
   8519c:	d348fd8f 	lsr	x15, x12, #8
   851a0:	381f516e 	sturb	w14, [x11, #-11]
   851a4:	d350fd8e 	lsr	x14, x12, #16
   851a8:	381f116f 	sturb	w15, [x11, #-15]
   851ac:	d368fe0f 	lsr	x15, x16, #40
   851b0:	390009ae 	strb	w14, [x13, #2]
   851b4:	aa0d03ee 	mov	x14, x13
   851b8:	390035af 	strb	w15, [x13, #13]
   851bc:	d348fe0f 	lsr	x15, x16, #8
   851c0:	38008dd0 	strb	w16, [x14, #8]!
   851c4:	390025af 	strb	w15, [x13, #9]
   851c8:	d358fe0f 	lsr	x15, x16, #24
   851cc:	39000dcf 	strb	w15, [x14, #3]
   851d0:	d350fe0f 	lsr	x15, x16, #16
   851d4:	390009cf 	strb	w15, [x14, #2]
   851d8:	d360fd8f 	lsr	x15, x12, #32
   851dc:	38004daf 	strb	w15, [x13, #4]!
   851e0:	d360fe0f 	lsr	x15, x16, #32
   851e4:	38004dcf 	strb	w15, [x14, #4]!
   851e8:	d378fd8f 	lsr	x15, x12, #56
   851ec:	d370fd8c 	lsr	x12, x12, #48
   851f0:	39000daf 	strb	w15, [x13, #3]
   851f4:	d378fe0f 	lsr	x15, x16, #56
   851f8:	d370fe10 	lsr	x16, x16, #48
   851fc:	390009ac 	strb	w12, [x13, #2]
   85200:	39000dcf 	strb	w15, [x14, #3]
   85204:	390009d0 	strb	w16, [x14, #2]
   85208:	3d800be1 	str	q1, [sp, #32]
   8520c:	f94013ec 	ldr	x12, [sp, #32]
   85210:	aa0b03ed 	mov	x13, x11
   85214:	9100816e 	add	x14, x11, #0x20
   85218:	91008129 	add	x9, x9, #0x20
   8521c:	3900016c 	strb	w12, [x11]
   85220:	d368fd8f 	lsr	x15, x12, #40
   85224:	f94017f0 	ldr	x16, [sp, #40]
   85228:	3900156f 	strb	w15, [x11, #5]
   8522c:	d358fd8f 	lsr	x15, x12, #24
   85230:	39000d6f 	strb	w15, [x11, #3]
   85234:	d350fd8f 	lsr	x15, x12, #16
   85238:	3900096f 	strb	w15, [x11, #2]
   8523c:	d348fd8f 	lsr	x15, x12, #8
   85240:	3900056f 	strb	w15, [x11, #1]
   85244:	d368fe0f 	lsr	x15, x16, #40
   85248:	38008db0 	strb	w16, [x13, #8]!
   8524c:	3900356f 	strb	w15, [x11, #13]
   85250:	d358fe0f 	lsr	x15, x16, #24
   85254:	39000daf 	strb	w15, [x13, #3]
   85258:	d350fe0f 	lsr	x15, x16, #16
   8525c:	390009af 	strb	w15, [x13, #2]
   85260:	d348fe0f 	lsr	x15, x16, #8
   85264:	3900256f 	strb	w15, [x11, #9]
   85268:	d360fe0f 	lsr	x15, x16, #32
   8526c:	38004daf 	strb	w15, [x13, #4]!
   85270:	d360fd8f 	lsr	x15, x12, #32
   85274:	38004d6f 	strb	w15, [x11, #4]!
   85278:	d378fe0f 	lsr	x15, x16, #56
   8527c:	39000daf 	strb	w15, [x13, #3]
   85280:	d378fd8f 	lsr	x15, x12, #56
   85284:	d370fd8c 	lsr	x12, x12, #48
   85288:	d370fe10 	lsr	x16, x16, #48
   8528c:	39000d6f 	strb	w15, [x11, #3]
   85290:	3900096c 	strb	w12, [x11, #2]
   85294:	aa0e03eb 	mov	x11, x14
   85298:	390009b0 	strb	w16, [x13, #2]
   8529c:	54ffee01 	b.ne	8505c <memcpy+0x70>  // b.any
   852a0:	eb02011f 	cmp	x8, x2
   852a4:	54ffec80 	b.eq	85034 <memcpy+0x48>  // b.none
   852a8:	f27d045f 	tst	x2, #0x18
   852ac:	54ffeb60 	b.eq	85018 <memcpy+0x2c>  // b.none
   852b0:	aa0803ea 	mov	x10, x8
   852b4:	927df048 	and	x8, x2, #0xfffffffffffffff8
   852b8:	8b0a0029 	add	x9, x1, x10
   852bc:	8b0a000b 	add	x11, x0, x10
   852c0:	cb08014a 	sub	x10, x10, x8
   852c4:	aa0903ed 	mov	x13, x9
   852c8:	3940152c 	ldrb	w12, [x9, #5]
   852cc:	38404dae 	ldrb	w14, [x13, #4]!
   852d0:	3940052f 	ldrb	w15, [x9, #1]
   852d4:	39400130 	ldrb	w16, [x9]
   852d8:	39400d31 	ldrb	w17, [x9, #3]
   852dc:	39400da3 	ldrb	w3, [x13, #3]
   852e0:	394009ad 	ldrb	w13, [x13, #2]
   852e4:	39400932 	ldrb	w18, [x9, #2]
   852e8:	33181d8e 	bfi	w14, w12, #8, #8
   852ec:	3900056f 	strb	w15, [x11, #1]
   852f0:	2a0d03ef 	mov	w15, w13
   852f4:	33181c6f 	bfi	w15, w3, #8, #8
   852f8:	33103dee 	bfi	w14, w15, #16, #16
   852fc:	3900156c 	strb	w12, [x11, #5]
   85300:	9100216c 	add	x12, x11, #0x8
   85304:	39000972 	strb	w18, [x11, #2]
   85308:	39000d71 	strb	w17, [x11, #3]
   8530c:	39000170 	strb	w16, [x11]
   85310:	38004d6e 	strb	w14, [x11, #4]!
   85314:	b100214a 	adds	x10, x10, #0x8
   85318:	3900096d 	strb	w13, [x11, #2]
   8531c:	39000d63 	strb	w3, [x11, #3]
   85320:	91002129 	add	x9, x9, #0x8
   85324:	aa0c03eb 	mov	x11, x12
   85328:	54fffce1 	b.ne	852c4 <memcpy+0x2d8>  // b.any
   8532c:	eb02011f 	cmp	x8, x2
   85330:	54ffe820 	b.eq	85034 <memcpy+0x48>  // b.none
   85334:	17ffff39 	b	85018 <memcpy+0x2c>

Disassembly of section .rodata:

0000000000085340 <anon.123060ffb20f39db5a38bca970626f44.0.llvm.7750987414679672498-0x195>:
   85340:	3f000000 	.inst	0x3f000000 ; undefined
   85344:	00000000 	udf	#0
   85348:	00ffffff 	.inst	0x00ffffff ; undefined
   8534c:	00000000 	udf	#0
   85350:	74696e49 	.inst	0x74696e49 ; undefined
   85354:	696c6169 	ldpsw	x9, x24, [x11, #-160]
   85358:	676e697a 	.inst	0x676e697a ; undefined
   8535c:	55504720 	.inst	0x55504720 ; undefined
   85360:	54524155 	.inst	0x54524155 ; undefined
   85364:	6e6f4320 	raddhn2	v0.8h, v25.4s, v15.4s
   85368:	7463656e 	.inst	0x7463656e ; undefined
   8536c:	206e6f69 	.inst	0x206e6f69 ; undefined
   85370:	74696e49 	.inst	0x74696e49 ; undefined
   85374:	696c6169 	ldpsw	x9, x24, [x11, #-160]
   85378:	4964657a 	.inst	0x4964657a ; undefined
   8537c:	6974696e 	ldpsw	x14, x26, [x11, #-96]
   85380:	7a696c61 	.inst	0x7a696c61 ; undefined
   85384:	20676e69 	.inst	0x20676e69 ; undefined
   85388:	70616548 	adr	x8, 148033 <HEAP_START+0xc1753>
   8538c:	6c6c4120 	ldnp	d0, d16, [x9, #-320]
   85390:	7461636f 	.inst	0x7461636f ; undefined
   85394:	6548726f 	fcmeq	p15.h, p4/z, z19.h, z8.h
   85398:	41207061 	.inst	0x41207061 ; undefined
   8539c:	636f6c6c 	.inst	0x636f6c6c ; undefined
   853a0:	726f7461 	.inst	0x726f7461 ; undefined
   853a4:	696e6920 	ldpsw	x0, x26, [x9, #-144]
   853a8:	6c616974 	ldnp	d20, d26, [x11, #-496]
   853ac:	64657a69 	.inst	0x64657a69 ; undefined
   853b0:	20746120 	.inst	0x20746120 ; undefined
   853b4:	74697720 	.inst	0x74697720 ; undefined
   853b8:	69732068 	.inst	0x69732068 ; undefined
   853bc:	0020657a 	.inst	0x0020657a ; NYI
   853c0:	00085396 	.inst	0x00085396 ; undefined
   853c4:	00000000 	udf	#0
   853c8:	0000001e 	udf	#30
   853cc:	00000000 	udf	#0
   853d0:	000853b4 	.inst	0x000853b4 ; undefined
   853d4:	00000000 	udf	#0
   853d8:	0000000b 	udf	#11
	...
   853e8:	00000002 	udf	#2
	...
   853f8:	00000002 	udf	#2
	...
   85408:	00000020 	udf	#32
   8540c:	00000004 	udf	#4
   85410:	00000003 	udf	#3
   85414:	00000000 	udf	#0
   85418:	00000001 	udf	#1
   8541c:	00000000 	udf	#0
   85420:	00000002 	udf	#2
	...
   85430:	00000002 	udf	#2
	...
   85440:	00000020 	udf	#32
   85444:	00000000 	udf	#0
   85448:	00000003 	udf	#3
   8544c:	00000000 	udf	#0
   85450:	74696e49 	.inst	0x74696e49 ; undefined
   85454:	696c6169 	ldpsw	x9, x24, [x11, #-160]
   85458:	676e697a 	.inst	0x676e697a ; undefined
   8545c:	61745320 	.inst	0x61745320 ; undefined
   85460:	20737574 	.inst	0x20737574 ; undefined
   85464:	6867694c 	.inst	0x6867694c ; undefined
   85468:	61745374 	.inst	0x61745374 ; undefined
   8546c:	20737574 	.inst	0x20737574 ; undefined
   85470:	6867694c 	.inst	0x6867694c ; undefined
   85474:	6e492074 	.inst	0x6e492074 ; undefined
   85478:	61697469 	.inst	0x61697469 ; undefined
   8547c:	657a696c 	fnmls	z12.h, p2/m, z11.h, z26.h
   85480:	55504764 	.inst	0x55504764 ; undefined
   85484:	696e4920 	ldpsw	x0, x18, [x9, #-144]
   85488:	6c616974 	ldnp	d20, d26, [x11, #-496]
   8548c:	64657a69 	.inst	0x64657a69 ; undefined
   85490:	74697720 	.inst	0x74697720 ; undefined
   85494:	6f432068 	umlal2	v8.4s, v3.8h, v3.h[0]
   85498:	6769666e 	.inst	0x6769666e ; undefined
   8549c:	0000003a 	udf	#58
   854a0:	0008549d 	.inst	0x0008549d ; undefined
	...
   854b0:	74696e49 	.inst	0x74696e49 ; undefined
   854b4:	696c6169 	ldpsw	x9, x24, [x11, #-160]
   854b8:	676e697a 	.inst	0x676e697a ; undefined
   854bc:	6e614320 	raddhn2	v0.8h, v25.4s, v1.4s
   854c0:	43736176 	.inst	0x43736176 ; undefined
   854c4:	61766e61 	.inst	0x61766e61 ; undefined
   854c8:	6e492073 	.inst	0x6e492073 ; undefined
   854cc:	61697469 	.inst	0x61697469 ; undefined
   854d0:	657a696c 	fnmls	z12.h, p2/m, z11.h, z26.h
   854d4:	 	.inst	0x63727364 ; undefined

00000000000854d5 <anon.123060ffb20f39db5a38bca970626f44.0.llvm.7750987414679672498>:
   854d5:	5c637273 	ldr	d19, 14c321 <HEAP_START+0xc5a41>
   854d9:	74616c70 	.inst	0x74616c70 ; undefined
   854dd:	6d726f66 	ldp	d6, d27, [x27, #-224]
   854e1:	7361725c 	.inst	0x7361725c ; undefined
   854e5:	5c336970 	ldr	d16, ec211 <HEAP_START+0x65931>
   854e9:	2e757067 	uabdl	v7.4s, v3.4h, v21.4h
   854ed:	 	msr	s0_0_c7_c3_3, x18

00000000000854f0 <anon.123060ffb20f39db5a38bca970626f44.1.llvm.7750987414679672498>:
   854f0:	000854d5 	.inst	0x000854d5 ; undefined
   854f4:	00000000 	udf	#0
   854f8:	0000001a 	udf	#26
   854fc:	00000000 	udf	#0
   85500:	00000046 	udf	#70
   85504:	00000009 	udf	#9
   85508:	6f434246 	mls	v6.8h, v18.8h, v3.h[0]
   8550c:	6769666e 	.inst	0x6769666e ; undefined
   85510:	5f796870 	.inst	0x5f796870 ; undefined
   85514:	74646977 	.inst	0x74646977 ; undefined
   85518:	00000068 	udf	#104
   8551c:	00000000 	udf	#0
   85520:	00080e88 	.inst	0x00080e88 ; undefined
   85524:	00000000 	udf	#0
   85528:	00000008 	udf	#8
   8552c:	00000000 	udf	#0
   85530:	00000008 	udf	#8
   85534:	00000000 	udf	#0
   85538:	0008298c 	.inst	0x0008298c ; undefined
   8553c:	00000000 	udf	#0
   85540:	5f796870 	.inst	0x5f796870 ; undefined
   85544:	67696568 	.inst	0x67696568 ; undefined
   85548:	69767468 	ldpsw	x8, x29, [x3, #-80]
   8554c:	69775f72 	ldpsw	x18, x23, [x27, #-72]
   85550:	76687464 	.inst	0x76687464 ; undefined
   85554:	685f7269 	.inst	0x685f7269 ; undefined
   85558:	68676965 	.inst	0x68676965 ; undefined
   8555c:	64697774 	.inst	0x64697774 ; undefined
   85560:	6f5f6874 	umlsl2	v20.4s, v3.8h, v15.h[5]
   85564:	65686666 	fnmls	z6.h, p1/m, z19.h, z8.h
   85568:	74686769 	.inst	0x74686769 ; undefined
   8556c:	66666f5f 	.inst	0x66666f5f ; undefined
   85570:	74706564 	.inst	0x74706564 ; undefined
   85574:	6c787068 	ldnp	d8, d28, [x3, #-128]
   85578:	64726f5f 	.inst	0x64726f5f ; undefined
   8557c:	69707265 	ldpsw	x5, x28, [x19, #-128]
   85580:	 	.inst	0x54686374 ; undefined

0000000000085583 <anon.ae51496511855a43ce64e5c785c6e595.0.llvm.16293340654148941731>:
   85583:	65697254 	fnmls	z20.h, p4/m, z18.h, z9.h
   85587:	6f742064 	umlal2	v4.4s, v3.8h, v4.h[3]
   8558b:	69727720 	ldpsw	x0, x29, [x25, #-112]
   8558f:	74206574 	.inst	0x74206574 ; undefined
   85593:	6d6d206f 	ldp	d15, d8, [x3, #-304]
   85597:	6f206f69 	.inst	0x6f206f69 ; undefined
   8559b:	6f207475 	uqshl	v21.4s, v3.4s, #0
   8559f:	6f622066 	umlal2	v6.4s, v3.8h, v2.h[2]
   855a3:	73646e75 	.inst	0x73646e75 ; undefined

00000000000855a7 <anon.ae51496511855a43ce64e5c785c6e595.1.llvm.16293340654148941731>:
   855a7:	5c637273 	ldr	d19, 14c3f3 <HEAP_START+0xc5b13>
   855ab:	74616c70 	.inst	0x74616c70 ; undefined
   855af:	6d726f66 	ldp	d6, d27, [x27, #-224]
   855b3:	7361725c 	.inst	0x7361725c ; undefined
   855b7:	5c336970 	ldr	d16, ec2e3 <HEAP_START+0x65a03>
   855bb:	6f696d6d 	.inst	0x6f696d6d ; undefined
   855bf:	0073722e 	.inst	0x0073722e ; undefined
   855c3:	00000000 	udf	#0
	...

00000000000855c8 <anon.ae51496511855a43ce64e5c785c6e595.2.llvm.16293340654148941731>:
   855c8:	000855a7 	.inst	0x000855a7 ; undefined
   855cc:	00000000 	udf	#0
   855d0:	0000001b 	udf	#27
   855d4:	00000000 	udf	#0
   855d8:	00000020 	udf	#32
   855dc:	00000011 	udf	#17

00000000000855e0 <anon.ae51496511855a43ce64e5c785c6e595.3.llvm.16293340654148941731>:
   855e0:	65697254 	fnmls	z20.h, p4/m, z18.h, z9.h
   855e4:	6f742064 	umlal2	v4.4s, v3.8h, v4.h[3]
   855e8:	61657220 	.inst	0x61657220 ; undefined
   855ec:	72662064 	.inst	0x72662064 ; undefined
   855f0:	6d206d6f 	stp	d15, d27, [x11, #-512]
   855f4:	206f696d 	.inst	0x206f696d ; undefined
   855f8:	2074756f 	.inst	0x2074756f ; undefined
   855fc:	6220666f 	.inst	0x6220666f ; undefined
   85600:	646e756f 	.inst	0x646e756f ; undefined
   85604:	00000073 	udf	#115

0000000000085608 <anon.ae51496511855a43ce64e5c785c6e595.4.llvm.16293340654148941731>:
   85608:	000855a7 	.inst	0x000855a7 ; undefined
   8560c:	00000000 	udf	#0
   85610:	0000001b 	udf	#27
   85614:	00000000 	udf	#0
   85618:	00000029 	udf	#41
   8561c:	00000011 	udf	#17
   85620:	00081064 	.inst	0x00081064 ; undefined
   85624:	00000000 	udf	#0
   85628:	00000008 	udf	#8
   8562c:	00000000 	udf	#0
   85630:	00000008 	udf	#8
   85634:	00000000 	udf	#0
   85638:	00081168 	.inst	0x00081168 ; undefined
   8563c:	00000000 	udf	#0
   85640:	00081068 	.inst	0x00081068 ; undefined
   85644:	00000000 	udf	#0
   85648:	00081130 	.inst	0x00081130 ; undefined
   8564c:	00000000 	udf	#0

0000000000085650 <anon.45c824e688ad81507530cb391ca22bbf.7.llvm.16487754560651466094>:
   85650:	00081064 	.inst	0x00081064 ; undefined
   85654:	00000000 	udf	#0
   85658:	00000020 	udf	#32
   8565c:	00000000 	udf	#0
   85660:	00000008 	udf	#8
   85664:	00000000 	udf	#0
   85668:	00081184 	.inst	0x00081184 ; undefined
   8566c:	00000000 	udf	#0
   85670:	00080f6c 	.inst	0x00080f6c ; undefined
   85674:	00000000 	udf	#0
   85678:	00081030 	.inst	0x00081030 ; undefined
   8567c:	00000000 	udf	#0

0000000000085680 <anon.45c824e688ad81507530cb391ca22bbf.9.llvm.16487754560651466094>:
   85680:	4c45285d 	.inst	0x4c45285d ; undefined

0000000000085684 <anon.45c824e688ad81507530cb391ca22bbf.10.llvm.16487754560651466094>:
   85684:	 	.inst	0x203a2940 ; undefined

0000000000085685 <anon.45c824e688ad81507530cb391ca22bbf.11.llvm.16487754560651466094>:
   85685:	 	.inst	0x80203a29 ; NYI

0000000000085688 <anon.45c824e688ad81507530cb391ca22bbf.12.llvm.16487754560651466094>:
   85688:	00085680 	.inst	0x00085680 ; undefined
	...
   85698:	00085680 	.inst	0x00085680 ; undefined
   8569c:	00000000 	udf	#0
   856a0:	00000004 	udf	#4
   856a4:	00000000 	udf	#0
   856a8:	00085684 	.inst	0x00085684 ; undefined
   856ac:	00000000 	udf	#0
   856b0:	00000001 	udf	#1
   856b4:	00000000 	udf	#0
   856b8:	00085685 	.inst	0x00085685 ; undefined
   856bc:	00000000 	udf	#0
   856c0:	00000003 	udf	#3
   856c4:	00000000 	udf	#0

00000000000856c8 <anon.bd0ad271adf75319888b719f4cc963d4.5.llvm.17763299087982061624>:
   856c8:	5c637273 	ldr	d19, 14c514 <HEAP_START+0xc5c34>
   856cc:	6f6c6c61 	.inst	0x6f6c6c61 ; undefined
   856d0:	6f746163 	umlsl2	v3.4s, v11.8h, v4.h[3]
   856d4:	6c6c5c72 	ldnp	d18, d23, [x3, #-320]
   856d8:	6c6c615f 	ldnp	d31, d24, [x10, #-320]
   856dc:	722e636f 	ands	w15, w27, #0xfffc07ff
   856e0:	 	.inst	0x636e4973 ; undefined

00000000000856e1 <anon.bd0ad271adf75319888b719f4cc963d4.7.llvm.17763299087982061624>:
   856e1:	6f636e49 	.inst	0x6f636e49 ; undefined
   856e5:	7461706d 	.inst	0x7461706d ; undefined
   856e9:	656c6269 	fnmls	z9.h, p0/m, z19.h, z12.h
   856ed:	6d656d20 	ldp	d0, d27, [x9, #-432]
   856f1:	2079726f 	.inst	0x2079726f ; undefined
   856f5:	67696c61 	.inst	0x67696c61 ; undefined
   856f9:	6e656d6e 	umin	v14.8h, v11.8h, v5.8h
   856fd:	666f2074 	.inst	0x666f2074 ; undefined
   85701:	65726620 	fnmls	z0.h, p1/m, z17.h, z18.h
   85705:	62206465 	.inst	0x62206465 ; undefined
   85709:	6b636f6c 	.inst	0x6b636f6c ; undefined
   8570d:	 	stxr	w0, x0, [x0]

0000000000085710 <anon.bd0ad271adf75319888b719f4cc963d4.8.llvm.17763299087982061624>:
   85710:	000856c8 	.inst	0x000856c8 ; undefined
   85714:	00000000 	udf	#0
   85718:	00000019 	udf	#25
   8571c:	00000000 	udf	#0
   85720:	00000036 	udf	#54
   85724:	0000000d 	udf	#13
   85728:	61462041 	.inst	0x61462041 ; undefined
   8572c:	206c6174 	.inst	0x206c6174 ; undefined
   85730:	6e72654b 	umax	v11.8h, v10.8h, v18.8h
   85734:	50206c65 	adr	x5, c64c2 <HEAP_START+0x3fbe2>
   85738:	63696e61 	.inst	0x63696e61 ; undefined
   8573c:	63634f20 	.inst	0x63634f20 ; undefined
   85740:	64657275 	.inst	0x64657275 ; undefined
   85744:	6d206f4e 	stp	d14, d27, [x26, #-512]
   85748:	61737365 	.inst	0x61737365 ; undefined
   8574c:	73206567 	.inst	0x73206567 ; undefined
   85750:	6c707075 	ldnp	d21, d28, [x3, #-256]
   85754:	4e646569 	smax	v9.8h, v11.8h, v4.8h
   85758:	6f6c206f 	umlal2	v15.4s, v3.8h, v12.h[2]
   8575c:	69746163 	ldpsw	x3, x24, [x11, #-96]
   85760:	66206e6f 	.inst	0x66206e6f ; undefined
   85764:	646e756f 	.inst	0x646e756f ; undefined
   85768:	00003a40 	udf	#14912
   8576c:	00000000 	udf	#0
   85770:	00085768 	.inst	0x00085768 ; undefined
   85774:	00000000 	udf	#0
   85778:	00000001 	udf	#1
   8577c:	00000000 	udf	#0
   85780:	00085769 	.inst	0x00085769 ; undefined
   85784:	00000000 	udf	#0
   85788:	00000001 	udf	#1
   8578c:	00000000 	udf	#0

0000000000085790 <anon.d5ec07b31832c4db4ecf75e38dd23978.0.llvm.15308412142352787931>:
   85790:	555c3a43 	.inst	0x555c3a43 ; undefined
   85794:	73726573 	.inst	0x73726573 ; undefined
   85798:	736f4d5c 	.inst	0x736f4d5c ; undefined
   8579c:	46207365 	.inst	0x46207365 ; undefined
   857a0:	6b6d7572 	.inst	0x6b6d7572 ; undefined
   857a4:	2e5c6e69 	.inst	0x2e5c6e69 ; undefined
   857a8:	74737572 	.inst	0x74737572 ; undefined
   857ac:	745c7075 	.inst	0x745c7075 ; undefined
   857b0:	636c6f6f 	.inst	0x636c6f6f ; undefined
   857b4:	6e696168 	rsubhn2	v8.8h, v11.4s, v9.4s
   857b8:	696e5c73 	ldpsw	x19, x23, [x3, #-144]
   857bc:	6c746867 	ldnp	d7, d26, [x3, #-192]
   857c0:	38782d79 	.inst	0x38782d79 ; undefined
   857c4:	34365f36 	cbz	w22, f23a8 <HEAP_START+0x6bac8>
   857c8:	2d63702d 	ldp	s13, s28, [x1, #-232]
   857cc:	646e6977 	.inst	0x646e6977 ; undefined
   857d0:	2d73776f 	ldp	s15, s29, [x27, #-104]
   857d4:	6376736d 	.inst	0x6376736d ; undefined
   857d8:	62696c5c 	.inst	0x62696c5c ; undefined
   857dc:	7375725c 	.inst	0x7375725c ; undefined
   857e0:	62696c74 	.inst	0x62696c74 ; undefined
   857e4:	6372735c 	.inst	0x6372735c ; undefined
   857e8:	7375725c 	.inst	0x7375725c ; undefined
   857ec:	696c5c74 	ldpsw	x20, x23, [x3, #-160]
   857f0:	72617262 	.inst	0x72617262 ; undefined
   857f4:	6f635c79 	.inst	0x6f635c79 ; undefined
   857f8:	735c6572 	.inst	0x735c6572 ; undefined
   857fc:	665c6372 	.inst	0x665c6372 ; undefined
   85800:	6e5c746d 	.inst	0x6e5c746d ; undefined
   85804:	722e6d75 	ands	w21, w11, #0xfffc3fff
   85808:	00000073 	udf	#115
   8580c:	00000000 	udf	#0

0000000000085810 <anon.d5ec07b31832c4db4ecf75e38dd23978.1.llvm.15308412142352787931>:
   85810:	00085790 	.inst	0x00085790 ; undefined
   85814:	00000000 	udf	#0
   85818:	00000079 	udf	#121
   8581c:	00000000 	udf	#0
   85820:	00000065 	udf	#101
   85824:	00000014 	udf	#20

0000000000085828 <anon.d5ec07b31832c4db4ecf75e38dd23978.2.llvm.15308412142352787931>:
   85828:	 	adr	x16, e672d <HEAP_START+0x5fe4d>

000000000008582a <anon.d5ec07b31832c4db4ecf75e38dd23978.5.llvm.15308412142352787931>:
   8582a:	31303030 	adds	w16, w1, #0xc0c
   8582e:	33303230 	.inst	0x33303230 ; undefined
   85832:	35303430 	cbnz	w16, e5eb6 <HEAP_START+0x5f5d6>
   85836:	37303630 	tbnz	w16, #6, 85efa <anon.57ef2e3c02ffeaf529e6c598bd0b036c.18.llvm.5445877691761700591+0x11>
   8583a:	39303830 	strb	w16, [x1, #3086]
   8583e:	31313031 	adds	w17, w1, #0xc4c
   85842:	33313231 	.inst	0x33313231 ; undefined
   85846:	35313431 	cbnz	w17, e7eca <HEAP_START+0x615ea>
   8584a:	37313631 	tbnz	w17, #6, 87f0e <HEAP_START+0x162e>
   8584e:	39313831 	strb	w17, [x1, #3150]
   85852:	31323032 	adds	w18, w1, #0xc8c
   85856:	33323232 	.inst	0x33323232 ; undefined
   8585a:	35323432 	cbnz	w18, e9ede <HEAP_START+0x635fe>
   8585e:	37323632 	tbnz	w18, #6, 89f22 <HEAP_START+0x3642>
   85862:	39323832 	strb	w18, [x1, #3214]
   85866:	31333033 	adds	w19, w1, #0xccc
   8586a:	33333233 	.inst	0x33333233 ; undefined
   8586e:	35333433 	cbnz	w19, ebef2 <HEAP_START+0x65612>
   85872:	37333633 	tbnz	w19, #6, 8bf36 <HEAP_START+0x5656>
   85876:	39333833 	strb	w19, [x1, #3278]
   8587a:	31343034 	adds	w20, w1, #0xd0c
   8587e:	33343234 	.inst	0x33343234 ; undefined
   85882:	35343434 	cbnz	w20, edf06 <HEAP_START+0x67626>
   85886:	37343634 	tbnz	w20, #6, 7df4a <bss_size+0x7df47>
   8588a:	39343834 	strb	w20, [x1, #3342]
   8588e:	31353035 	adds	w21, w1, #0xd4c
   85892:	33353235 	.inst	0x33353235 ; undefined
   85896:	35353435 	cbnz	w21, eff1a <HEAP_START+0x6963a>
   8589a:	37353635 	tbnz	w21, #6, 7ff5e <bss_size+0x7ff5b>
   8589e:	39353835 	strb	w21, [x1, #3406]
   858a2:	31363036 	adds	w22, w1, #0xd8c
   858a6:	33363236 	.inst	0x33363236 ; undefined
   858aa:	35363436 	cbnz	w22, f1f2e <HEAP_START+0x6b64e>
   858ae:	37363636 	tbnz	w22, #6, 81f72 <_exception_vector+0x772>
   858b2:	39363836 	strb	w22, [x1, #3470]
   858b6:	31373037 	adds	w23, w1, #0xdcc
   858ba:	33373237 	.inst	0x33373237 ; undefined
   858be:	35373437 	cbnz	w23, f3f42 <HEAP_START+0x6d662>
   858c2:	37373637 	tbnz	w23, #6, 83f86 <_ZN4core3str16slice_error_fail17h0a884f572164fefcE+0x16e>
   858c6:	39373837 	strb	w23, [x1, #3534]
   858ca:	31383038 	adds	w24, w1, #0xe0c
   858ce:	33383238 	.inst	0x33383238 ; undefined
   858d2:	35383438 	cbnz	w24, f5f56 <HEAP_START+0x6f676>
   858d6:	37383638 	tbnz	w24, #7, 85f9a <anon.57ef2e3c02ffeaf529e6c598bd0b036c.19.llvm.5445877691761700591+0x65>
   858da:	39383838 	strb	w24, [x1, #3598]
   858de:	31393039 	adds	w25, w1, #0xe4c
   858e2:	33393239 	.inst	0x33393239 ; undefined
   858e6:	35393439 	cbnz	w25, f7f6a <HEAP_START+0x7168a>
   858ea:	37393639 	tbnz	w25, #7, 87fae <HEAP_START+0x16ce>
   858ee:	39393839 	strb	w25, [x1, #3662]
   858f2:	20202020 	.inst	0x20202020 ; undefined
   858f6:	656e6f44 	fnmls	z4.h, p3/m, z26.h, z14.h
   858fa:	555c3a43 	.inst	0x555c3a43 ; undefined
   858fe:	73726573 	.inst	0x73726573 ; undefined
   85902:	736f4d5c 	.inst	0x736f4d5c ; undefined
   85906:	46207365 	.inst	0x46207365 ; undefined
   8590a:	6b6d7572 	.inst	0x6b6d7572 ; undefined
   8590e:	2e5c6e69 	.inst	0x2e5c6e69 ; undefined
   85912:	74737572 	.inst	0x74737572 ; undefined
   85916:	745c7075 	.inst	0x745c7075 ; undefined
   8591a:	636c6f6f 	.inst	0x636c6f6f ; undefined
   8591e:	6e696168 	rsubhn2	v8.8h, v11.4s, v9.4s
   85922:	696e5c73 	ldpsw	x19, x23, [x3, #-144]
   85926:	6c746867 	ldnp	d7, d26, [x3, #-192]
   8592a:	38782d79 	.inst	0x38782d79 ; undefined
   8592e:	34365f36 	cbz	w22, f2512 <HEAP_START+0x6bc32>
   85932:	2d63702d 	ldp	s13, s28, [x1, #-232]
   85936:	646e6977 	.inst	0x646e6977 ; undefined
   8593a:	2d73776f 	ldp	s15, s29, [x27, #-104]
   8593e:	6376736d 	.inst	0x6376736d ; undefined
   85942:	62696c5c 	.inst	0x62696c5c ; undefined
   85946:	7375725c 	.inst	0x7375725c ; undefined
   8594a:	62696c74 	.inst	0x62696c74 ; undefined
   8594e:	6372735c 	.inst	0x6372735c ; undefined
   85952:	7375725c 	.inst	0x7375725c ; undefined
   85956:	696c5c74 	ldpsw	x20, x23, [x3, #-160]
   8595a:	72617262 	.inst	0x72617262 ; undefined
   8595e:	6f635c79 	.inst	0x6f635c79 ; undefined
   85962:	735c6572 	.inst	0x735c6572 ; undefined
   85966:	665c6372 	.inst	0x665c6372 ; undefined
   8596a:	625c746d 	.inst	0x625c746d ; undefined
   8596e:	646c6975 	.inst	0x646c6975 ; undefined
   85972:	2e737265 	uabdl	v5.4s, v19.4h, v19.4h
   85976:	58fa7372 	ldr	x18, 7a7e2 <bss_size+0x7a7df>
   8597a:	00000008 	udf	#8
   8597e:	007e0000 	.inst	0x007e0000 ; undefined
   85982:	00000000 	udf	#0
   85986:	00320000 	.inst	0x00320000 ; NYI
   8598a:	00210000 	.inst	0x00210000 ; NYI
   8598e:	58fa0000 	ldr	x0, 7998e <bss_size+0x7998b>
   85992:	00000008 	udf	#8
   85996:	007e0000 	.inst	0x007e0000 ; undefined
   8599a:	00000000 	udf	#0
   8599e:	00330000 	.inst	0x00330000 ; NYI
   859a2:	00120000 	.inst	0x00120000 ; undefined
	...

00000000000859a8 <anon.8b678f236d690956eb0281bd8054fce2.8.llvm.17280607647294964220>:
   859a8:	 	.inst	0x3a0a7b20 ; undefined

00000000000859ab <anon.8b678f236d690956eb0281bd8054fce2.9.llvm.17280607647294964220>:
   859ab:	 	bic	w26, w1, w12, lsl #8

00000000000859ad <anon.8b678f236d690956eb0281bd8054fce2.10.llvm.17280607647294964220>:
   859ad:	 	.inst	0x202c0a2c ; undefined

00000000000859af <anon.8b678f236d690956eb0281bd8054fce2.11.llvm.17280607647294964220>:
   859af:	 	.inst	0x7b20202c ; undefined

00000000000859b1 <anon.8b678f236d690956eb0281bd8054fce2.12.llvm.17280607647294964220>:
   859b1:	 	str	h0, [x25, #4156]

00000000000859b4 <anon.8b678f236d690956eb0281bd8054fce2.14.llvm.17280607647294964220>:
   859b4:	 	.inst	0x007d207d ; undefined

00000000000859b5 <anon.8b678f236d690956eb0281bd8054fce2.17.llvm.17280607647294964220>:
   859b5:	d8007d20 	prfm	pldl1keep, 86959 <HEAP_START+0x79>
   859b9:	0000082b 	udf	#2091
   859bd:	08000000 	stxrb	w0, w0, [x0]
   859c1:	00000000 	udf	#0
   859c5:	08000000 	stxrb	w0, w0, [x0]
   859c9:	00000000 	udf	#0
   859cd:	30000000 	adr	x0, 859ce <anon.8b678f236d690956eb0281bd8054fce2.17.llvm.17280607647294964220+0x19>
   859d1:	00000832 	udf	#2098
   859d5:	38000000 	sturb	w0, [x0]
   859d9:	00000832 	udf	#2098
   859dd:	1c000000 	ldr	s0, 859dd <anon.8b678f236d690956eb0281bd8054fce2.17.llvm.17280607647294964220+0x28>
   859e1:	00000833 	udf	#2099
	...
   859ed:	01000000 	.inst	0x01000000 ; undefined
   859f1:	00000000 	udf	#0
   859f5:	12000000 	and	w0, w0, #0x1
   859f9:	00000000 	udf	#0
   859fd:	72000000 	ands	w0, w0, #0x1
   85a01:	65676e61 	fnmls	z1.h, p3/m, z19.h, z7.h
   85a05:	646e6520 	.inst	0x646e6520 ; undefined
   85a09:	646e6920 	.inst	0x646e6920 ; undefined
   85a0d:	54207865 	b.pl	c6919 <HEAP_START+0x40039>  // b.nfrst
   85a11:	00000833 	udf	#2099
	...
   85a1d:	01000000 	.inst	0x01000000 ; undefined
   85a21:	00000000 	udf	#0
   85a25:	d0000000 	adrp	x0, 87000 <HEAP_START+0x720>
   85a29:	00000834 	udf	#2100
   85a2d:	69000000 	stgp	x0, x0, [x0]
   85a31:	7865646e 	.inst	0x7865646e ; undefined
   85a35:	74756f20 	.inst	0x74756f20 ; undefined
   85a39:	20666f20 	.inst	0x20666f20 ; undefined
   85a3d:	6e756f62 	umin	v2.8h, v27.8h, v21.8h
   85a41:	203a7364 	.inst	0x203a7364 ; undefined
   85a45:	20656874 	.inst	0x20656874 ; undefined
   85a49:	206e656c 	.inst	0x206e656c ; undefined
   85a4d:	20207369 	.inst	0x20207369 ; undefined
   85a51:	20747562 	.inst	0x20747562 ; undefined
   85a55:	20656874 	.inst	0x20656874 ; undefined
   85a59:	65646e69 	fnmls	z9.h, p3/m, z19.h, z4.h
   85a5d:	73692078 	.inst	0x73692078 ; undefined
   85a61:	00000020 	udf	#32
   85a65:	30000000 	adr	x0, 85a66 <anon.8b678f236d690956eb0281bd8054fce2.17.llvm.17280607647294964220+0xb1>
   85a69:	0000085a 	udf	#2138
   85a6d:	20000000 	.inst	0x20000000 ; undefined
   85a71:	00000000 	udf	#0
   85a75:	50000000 	adr	x0, 85a77 <anon.8b678f236d690956eb0281bd8054fce2.17.llvm.17280607647294964220+0xc2>
   85a79:	0000085a 	udf	#2138
   85a7d:	12000000 	and	w0, w0, #0x1
   85a81:	00000000 	udf	#0
   85a85:	72000000 	ands	w0, w0, #0x1
   85a89:	65676e61 	fnmls	z1.h, p3/m, z19.h, z7.h
   85a8d:	61747320 	.inst	0x61747320 ; undefined
   85a91:	69207472 	stgp	x18, x29, [x3, #-1024]
   85a95:	7865646e 	.inst	0x7865646e ; undefined
   85a99:	756f2020 	.inst	0x756f2020 ; undefined
   85a9d:	666f2074 	.inst	0x666f2074 ; undefined
   85aa1:	6e617220 	uabdl2	v0.4s, v17.8h, v1.8h
   85aa5:	66206567 	.inst	0x66206567 ; undefined
   85aa9:	7320726f 	.inst	0x7320726f ; undefined
   85aad:	6563696c 	fnmls	z12.h, p2/m, z11.h, z3.h
   85ab1:	20666f20 	.inst	0x20666f20 ; undefined
   85ab5:	676e656c 	.inst	0x676e656c ; undefined
   85ab9:	00206874 	.inst	0x00206874 ; NYI
   85abd:	88000000 	stxr	w0, w0, [x0]
   85ac1:	0000085a 	udf	#2138
   85ac5:	12000000 	and	w0, w0, #0x1
   85ac9:	00000000 	udf	#0
   85acd:	9a000000 	adc	x0, x0, x0
   85ad1:	0000085a 	udf	#2138
   85ad5:	22000000 	.inst	0x22000000 ; undefined
	...
   85ae1:	0000085a 	udf	#2138
   85ae5:	10000000 	adr	x0, 85ae5 <anon.8b678f236d690956eb0281bd8054fce2.17.llvm.17280607647294964220+0x130>
   85ae9:	00000000 	udf	#0
   85aed:	9a000000 	adc	x0, x0, x0
   85af1:	0000085a 	udf	#2138
   85af5:	22000000 	.inst	0x22000000 ; undefined
   85af9:	00000000 	udf	#0
   85afd:	73000000 	.inst	0x73000000 ; undefined
   85b01:	6563696c 	fnmls	z12.h, p2/m, z11.h, z3.h
   85b05:	646e6920 	.inst	0x646e6920 ; undefined
   85b09:	73207865 	.inst	0x73207865 ; undefined
   85b0d:	74726174 	.inst	0x74726174 ; undefined
   85b11:	74612073 	.inst	0x74612073 ; undefined
   85b15:	75622020 	.inst	0x75622020 ; undefined
   85b19:	6e652074 	usubl2	v20.4s, v3.8h, v5.8h
   85b1d:	61207364 	.inst	0x61207364 ; undefined
   85b21:	00002074 	udf	#8308
   85b25:	00000000 	udf	#0
   85b29:	0000085b 	udf	#2139
   85b2d:	16000000 	b	fffffffff8085b2d <HEAP_START+0xfffffffff7fff24d>
   85b31:	00000000 	udf	#0
   85b35:	16000000 	b	fffffffff8085b35 <HEAP_START+0xfffffffff7fff255>
   85b39:	0000085b 	udf	#2139
   85b3d:	0d000000 	st1	{v0.b}[0], [x0]
   85b41:	00000000 	udf	#0
   85b45:	2e000000 	ext	v0.8b, v0.8b, v0.8b, #0
   85b49:	0000002e 	udf	#46
   85b4d:	48000000 	stxrh	w0, w0, [x0]
   85b51:	0000085b 	udf	#2139
   85b55:	02000000 	.inst	0x02000000 ; undefined
   85b59:	00000000 	udf	#0
   85b5d:	 	.inst	0x63000000 ; undefined

0000000000085b60 <anon.57ef2e3c02ffeaf529e6c598bd0b036c.8.llvm.5445877691761700591>:
   85b60:	6c6c6163 	ldnp	d3, d24, [x11, #-320]
   85b64:	60206465 	.inst	0x60206465 ; undefined
   85b68:	6974704f 	ldpsw	x15, x28, [x2, #-96]
   85b6c:	3a3a6e6f 	.inst	0x3a3a6e6f ; undefined
   85b70:	72776e75 	.inst	0x72776e75 ; undefined
   85b74:	29287061 	stp	w1, w28, [x3, #-192]
   85b78:	6e6f2060 	usubl2	v0.4s, v3.8h, v15.8h
   85b7c:	60206120 	.inst	0x60206120 ; undefined
   85b80:	656e6f4e 	fnmls	z14.h, p3/m, z26.h, z14.h
   85b84:	61762060 	.inst	0x61762060 ; undefined
   85b88:	4365756c 	.inst	0x4365756c ; undefined
   85b8c:	73555c3a 	.inst	0x73555c3a ; undefined
   85b90:	5c737265 	ldr	d5, 16c9dc <HEAP_START+0xe60fc>
   85b94:	65736f4d 	fnmls	z13.h, p3/m, z26.h, z19.h
   85b98:	72462073 	.inst	0x72462073 ; undefined
   85b9c:	696b6d75 	ldpsw	x21, x27, [x11, #-168]
   85ba0:	722e5c6e 	ands	w14, w3, #0xfffc03ff
   85ba4:	75747375 	.inst	0x75747375 ; undefined
   85ba8:	6f745c70 	.inst	0x6f745c70 ; undefined
   85bac:	68636c6f 	.inst	0x68636c6f ; undefined
   85bb0:	736e6961 	.inst	0x736e6961 ; undefined
   85bb4:	67696e5c 	.inst	0x67696e5c ; undefined
   85bb8:	796c7468 	ldrh	w8, [x3, #5690]
   85bbc:	3638782d 	tbz	w13, #7, 86ac0 <HEAP_START+0x1e0>
   85bc0:	2d34365f 	stp	s31, s13, [x18, #-96]
   85bc4:	772d6370 	.inst	0x772d6370 ; undefined
   85bc8:	6f646e69 	.inst	0x6f646e69 ; undefined
   85bcc:	6d2d7377 	stp	d23, d28, [x27, #-304]
   85bd0:	5c637673 	ldr	d19, 14ca9c <HEAP_START+0xc61bc>
   85bd4:	5c62696c 	ldr	d12, 14a900 <HEAP_START+0xc4020>
   85bd8:	74737572 	.inst	0x74737572 ; undefined
   85bdc:	5c62696c 	ldr	d12, 14a908 <HEAP_START+0xc4028>
   85be0:	5c637273 	ldr	d19, 14ca2c <HEAP_START+0xc614c>
   85be4:	74737572 	.inst	0x74737572 ; undefined
   85be8:	62696c5c 	.inst	0x62696c5c ; undefined
   85bec:	79726172 	ldrh	w18, [x11, #6448]
   85bf0:	726f635c 	.inst	0x726f635c ; undefined
   85bf4:	72735c65 	.inst	0x72735c65 ; undefined
   85bf8:	6e755c63 	uqrshl	v3.8h, v3.8h, v21.8h
   85bfc:	646f6369 	.inst	0x646f6369 ; undefined
   85c00:	72705c65 	.inst	0x72705c65 ; undefined
   85c04:	61746e69 	.inst	0x61746e69 ; undefined
   85c08:	2e656c62 	umin	v2.4h, v3.4h, v5.4h
   85c0c:	00007372 	udf	#29554
   85c10:	00085b8b 	.inst	0x00085b8b ; undefined
   85c14:	00000000 	udf	#0
   85c18:	00000083 	udf	#131
   85c1c:	00000000 	udf	#0
   85c20:	0000000a 	udf	#10
   85c24:	0000001c 	udf	#28
   85c28:	00085b8b 	.inst	0x00085b8b ; undefined
   85c2c:	00000000 	udf	#0
   85c30:	00000083 	udf	#131
   85c34:	00000000 	udf	#0
   85c38:	0000001a 	udf	#26
   85c3c:	00000036 	udf	#54

0000000000085c40 <anon.57ef2e3c02ffeaf529e6c598bd0b036c.15.llvm.5445877691761700591>:
   85c40:	05030100 	orr	z0.d, z0.d, #0x1ff00000000
   85c44:	03060605 	.inst	0x03060605 ; undefined
   85c48:	08080607 	stxrb	w8, w7, [x16]
   85c4c:	1c0a1109 	ldr	s9, 99e6c <HEAP_START+0x1358c>
   85c50:	140c190b 	b	38c07c <HEAP_START+0x30579c>
   85c54:	0d0e100d 	.inst	0x0d0e100d ; undefined
   85c58:	0310040f 	.inst	0x0310040f ; undefined
   85c5c:	09131212 	.inst	0x09131212 ; undefined
   85c60:	05170116 	mov	z22.b, p7/z, #8
   85c64:	03190218 	.inst	0x03190218 ; undefined
   85c68:	021c071a 	.inst	0x021c071a ; undefined
   85c6c:	161f011d 	b	fffffffff88460e0 <HEAP_START+0xfffffffff87bf800>
   85c70:	032b0320 	.inst	0x032b0320 ; undefined
   85c74:	0b2d022c 	add	w12, w17, w13, uxtb
   85c78:	0330012e 	.inst	0x0330012e ; undefined
   85c7c:	01320231 	.inst	0x01320231 ; undefined
   85c80:	02a902a7 	.inst	0x02a902a7 ; undefined
   85c84:	08ab04aa 	.inst	0x08ab04aa ; undefined
   85c88:	05fb02fa 	.inst	0x05fb02fa ; undefined
   85c8c:	03fe04fd 	.inst	0x03fe04fd ; undefined
   85c90:	 	.inst	0x78ad09ff ; undefined

0000000000085c92 <anon.57ef2e3c02ffeaf529e6c598bd0b036c.16.llvm.5445877691761700591>:
   85c92:	8b7978ad 	.inst	0x8b7978ad ; undefined
   85c96:	5730a28d 	.inst	0x5730a28d ; undefined
   85c9a:	908c8b58 	adrp	x24, ffffffff191ed000 <HEAP_START+0xffffffff19166720>
   85c9e:	0edd1d1c 	.inst	0x0edd1d1c ; undefined
   85ca2:	fb4c4b0f 	.inst	0xfb4c4b0f ; undefined
   85ca6:	3f2f2efc 	.inst	0x3f2f2efc ; undefined
   85caa:	b55f5d5c 	cbnz	x28, 144852 <HEAP_START+0xbdf72>
   85cae:	8e8d84e2 	.inst	0x8e8d84e2 ; undefined
   85cb2:	b1a99291 	.inst	0xb1a99291 ; undefined
   85cb6:	c6c5bbba 	.inst	0xc6c5bbba ; undefined
   85cba:	e4decac9 	st1h	{z9.s}, p2, [x22, z30.s, sxtw]
   85cbe:	0400ffe5 	msb	z5.b, p7/m, z0.b, z31.b
   85cc2:	31291211 	adds	w17, w16, #0xa44
   85cc6:	3b3a3734 	.inst	0x3b3a3734 ; undefined
   85cca:	5d4a493d 	.inst	0x5d4a493d ; undefined
   85cce:	a9928e84 	stp	x4, x3, [x20, #296]!
   85cd2:	bbbab4b1 	.inst	0xbbbab4b1 ; undefined
   85cd6:	cfcecac6 	.inst	0xcfcecac6 ; undefined
   85cda:	0400e5e4 	msb	z4.b, p1/m, z0.b, z15.b
   85cde:	12110e0d 	and	w13, w16, #0x78000
   85ce2:	3a343129 	.inst	0x3a343129 ; undefined
   85ce6:	4946453b 	.inst	0x4946453b ; undefined
   85cea:	65645e4a 	fnmla	z10.h, p7/m, z18.h, z4.h
   85cee:	9d9b9184 	.inst	0x9d9b9184 ; undefined
   85cf2:	0dcfcec9 	ld1r	{v9.1d}, [x22], x15
   85cf6:	49452911 	.inst	0x49452911 ; undefined
   85cfa:	8d656457 	.inst	0x8d656457 ; undefined
   85cfe:	bab4a991 	.inst	0xbab4a991 ; undefined
   85d02:	dfc9c5bb 	.inst	0xdfc9c5bb ; undefined
   85d06:	0df0e5e4 	ld4r	{v4.4h-v7.4h}, [x15], x16
   85d0a:	64494511 	fcmla	z17.h, p1/m, z8.h, z9.h, #180
   85d0e:	b2848065 	.inst	0xb2848065 ; undefined
   85d12:	d5bfbebc 	.inst	0xd5bfbebc ; undefined
   85d16:	83f1f0d7 	.inst	0x83f1f0d7 ; undefined
   85d1a:	a6a48b85 	.inst	0xa6a48b85 ; undefined
   85d1e:	c7c5bfbe 	.inst	0xc7c5bfbe ; undefined
   85d22:	dbdacfce 	.inst	0xdbdacfce ; undefined
   85d26:	cdbd9848 	.inst	0xcdbd9848 ; undefined
   85d2a:	49cfcec6 	.inst	0x49cfcec6 ; undefined
   85d2e:	59574f4e 	.inst	0x59574f4e ; undefined
   85d32:	8e895f5e 	.inst	0x8e895f5e ; undefined
   85d36:	b7b6b18f 	tbnz	x15, #54, 83366 <_ZN4core9panicking5panic17h44d2e7d60b187585E+0xe>
   85d3a:	c7c6c1bf 	.inst	0xc7c6c1bf ; undefined
   85d3e:	171611d7 	b	fffffffffc60a49a <HEAP_START+0xfffffffffc583bba>
   85d42:	f7f65c5b 	.inst	0xf7f65c5b ; undefined
   85d46:	0d80fffe 	.inst	0x0d80fffe ; undefined
   85d4a:	dfde716d 	.inst	0xdfde716d ; undefined
   85d4e:	6e1f0f0e 	mov	v14.b[15], v24.b[1]
   85d52:	5f1d1c6f 	.inst	0x5f1d1c6f ; undefined
   85d56:	afae7e7d 	.inst	0xafae7e7d ; undefined
   85d5a:	16fabcbb 	b	fffffffffbf35046 <HEAP_START+0xfffffffffbeae766>
   85d5e:	461f1e17 	.inst	0x461f1e17 ; undefined
   85d62:	584f4e47 	ldr	x7, 12472a <HEAP_START+0x9de4a>
   85d66:	7e5e5c5a 	.inst	0x7e5e5c5a ; undefined
   85d6a:	d4c5b57f 	.inst	0xd4c5b57f ; undefined
   85d6e:	f1f0dcd5 	.inst	0xf1f0dcd5 ; undefined
   85d72:	8f7372f5 	.inst	0x8f7372f5 ; undefined
   85d76:	2f967574 	.inst	0x2f967574 ; undefined
   85d7a:	2f2e265f 	urshr	v31.2s, v18.2s, #18
   85d7e:	bfb7afa7 	.inst	0xbfb7afa7 ; undefined
   85d82:	dfd7cfc7 	.inst	0xdfd7cfc7 ; undefined
   85d86:	9897409a 	ldrsw	x26, fffffffffffb4596 <HEAP_START+0xfffffffffff2dcb6>
   85d8a:	c01f8f30 	.inst	0xc01f8f30 ; undefined
   85d8e:	4effcec1 	fmls	v1.2d, v22.2d, v31.2d
   85d92:	075b5a4f 	.inst	0x075b5a4f ; undefined
   85d96:	27100f08 	.inst	0x27100f08 ; undefined
   85d9a:	6eefee2f 	facgt	v15.2d, v17.2d, v15.2d
   85d9e:	3f3d376f 	.inst	0x3f3d376f ; undefined
   85da2:	91904542 	.inst	0x91904542 ; undefined
   85da6:	6753fffe 	.inst	0x6753fffe ; undefined
   85daa:	d0c9c875 	adrp	x21, ffffffff93993000 <HEAP_START+0xffffffff9390c720>
   85dae:	e7d9d8d1 	.inst	0xe7d9d8d1 ; undefined
   85db2:	 	.inst	0x2000fffe ; undefined

0000000000085db4 <anon.57ef2e3c02ffeaf529e6c598bd0b036c.17.llvm.5445877691761700591>:
   85db4:	225f2000 	.inst	0x225f2000 ; undefined
   85db8:	8204df82 	.inst	0x8204df82 ; undefined
   85dbc:	041b0844 	bic	z4.b, p2/m, z4.b, z2.b
   85dc0:	ac811106 	stp	q6, q4, [x8], #32
   85dc4:	35ab800e 	cbnz	w14, fffffffffffdcdc4 <HEAP_START+0xfffffffffff564e4>
   85dc8:	e0800b28 	.inst	0xe0800b28 ; undefined
   85dcc:	01081903 	.inst	0x01081903 ; undefined
   85dd0:	34042f04 	cbz	w4, 8e3b0 <HEAP_START+0x7ad0>
   85dd4:	01030704 	.inst	0x01030704 ; undefined
   85dd8:	11070607 	add	w7, w16, #0x1c1
   85ddc:	120f500a 	and	w10, w0, #0xfffe003f
   85de0:	03075507 	.inst	0x03075507 ; undefined
   85de4:	090a1c04 	.inst	0x090a1c04 ; undefined
   85de8:	07030803 	.inst	0x07030803 ; undefined
   85dec:	03030203 	.inst	0x03030203 ; undefined
   85df0:	05040c03 	.inst	0x05040c03 ; undefined
   85df4:	01060b03 	.inst	0x01060b03 ; undefined
   85df8:	3a05150e 	.inst	0x3a05150e ; undefined
   85dfc:	06071103 	.inst	0x06071103 ; undefined
   85e00:	57071005 	.inst	0x57071005 ; undefined
   85e04:	15070207 	b	4246620 <HEAP_START+0x41bfd40>
   85e08:	4304500d 	.inst	0x4304500d ; undefined
   85e0c:	01032d03 	.inst	0x01032d03 ; undefined
   85e10:	0f061104 	fmla	v4.4h, v8.4h, v6.h[0]
   85e14:	1d043a0c 	.inst	0x1d043a0c ; undefined
   85e18:	6d205f25 	stp	d5, d23, [x25, #-512]
   85e1c:	80256a04 	.inst	0x80256a04 ; NYI
   85e20:	b08205c8 	adrp	x8, ffffffff0413e000 <HEAP_START+0xffffffff040b7720>
   85e24:	82061a03 	.inst	0x82061a03 ; undefined
   85e28:	075903fd 	.inst	0x075903fd ; undefined
   85e2c:	09170b15 	.inst	0x09170b15 ; undefined
   85e30:	0c140c14 	.inst	0x0c140c14 ; undefined
   85e34:	060a066a 	.inst	0x060a066a ; undefined
   85e38:	0759061a 	.inst	0x0759061a ; undefined
   85e3c:	0a46052b 	and	w11, w9, w6, lsr #1
   85e40:	040c042c 	sabd	z12.b, p1/m, z12.b, z1.b
   85e44:	0b310301 	add	w1, w24, w17, uxtb
   85e48:	061a042c 	.inst	0x061a042c ; undefined
   85e4c:	ac80030b 	stp	q11, q0, [x24], #0
   85e50:	21060a06 	.inst	0x21060a06 ; undefined
   85e54:	2d044c3f 	stp	s31, s19, [x1, #32]
   85e58:	3c087403 	str	b3, [x0], #135
   85e5c:	3c030f03 	str	b3, [x24, #48]!
   85e60:	2b083807 	adds	w7, w0, w8, lsl #14
   85e64:	11ff8205 	.inst	0x11ff8205 ; undefined
   85e68:	112f0818 	add	w24, w0, #0xbc2
   85e6c:	1020032d 	adr	x13, c5ed0 <HEAP_START+0x3f5f0>
   85e70:	8c800f21 	.inst	0x8c800f21 ; undefined
   85e74:	19978204 	ldapursb	x4, [x16, #-136]
   85e78:	9488150b 	bl	228b2a4 <HEAP_START+0x22049c4>
   85e7c:	3b052f05 	.inst	0x3b052f05 ; undefined
   85e80:	180e0207 	ldr	w7, a1ec0 <HEAP_START+0x1b5e0>
   85e84:	2db38009 	stp	s9, s0, [x0, #-100]!
   85e88:	d6800c74 	.inst	0xd6800c74 ; undefined
   85e8c:	80050c1a 	.inst	0x80050c1a ; undefined
   85e90:	df8005ff 	.inst	0xdf8005ff ; undefined
   85e94:	030dee0c 	.inst	0x030dee0c ; undefined
   85e98:	37038d84 	tbnz	w4, #0, 8d048 <HEAP_START+0x6768>
   85e9c:	145c8109 	b	17a62c0 <HEAP_START+0x171f9e0>
   85ea0:	8008b880 	.inst	0x8008b880 ; undefined
   85ea4:	03382acb 	.inst	0x03382acb ; undefined
   85ea8:	0838060a 	.inst	0x0838060a ; undefined
   85eac:	060c0846 	.inst	0x060c0846 ; undefined
   85eb0:	031e0b74 	.inst	0x031e0b74 ; undefined
   85eb4:	0959045a 	.inst	0x0959045a ; undefined
   85eb8:	1c188380 	ldr	s0, b6f28 <HEAP_START+0x30648>
   85ebc:	4c09160a 	.inst	0x4c09160a ; undefined
   85ec0:	068a8004 	.inst	0x068a8004 ; undefined
   85ec4:	170ca4ab 	b	fffffffffc3af170 <HEAP_START+0xfffffffffc328890>
   85ec8:	04a13104 	eor	z4.d, z8.d, z1.d
   85ecc:	0726da81 	.inst	0x0726da81 ; undefined
   85ed0:	8005050c 	.inst	0x8005050c ; undefined
   85ed4:	6d8111a5 	stp	d5, d4, [x13, #16]!
   85ed8:	2a287810 	orn	w16, w0, w8, lsl #30
   85edc:	80044c06 	.inst	0x80044c06 ; undefined
   85ee0:	be80048d 	.inst	0xbe80048d ; undefined
   85ee4:	0f031b03 	fmla	v3.4h, v24.4h, v3.h[4]
   85ee8:	 	.inst	0x0106000d ; undefined

0000000000085ee9 <anon.57ef2e3c02ffeaf529e6c598bd0b036c.18.llvm.5445877691761700591>:
   85ee9:	01010600 	.inst	0x01010600 ; undefined
   85eed:	02040103 	.inst	0x02040103 ; undefined
   85ef1:	02090808 	.inst	0x02090808 ; undefined
   85ef5:	020b050a 	.inst	0x020b050a ; undefined
   85ef9:	0110040e 	.inst	0x0110040e ; undefined
   85efd:	05120211 	mov	z17.b, p2/z, #16
   85f01:	01141113 	.inst	0x01141113 ; undefined
   85f05:	02170215 	.inst	0x02170215 ; undefined
   85f09:	051c0d19 	mov	z25.b, p12/z, #104
   85f0d:	0124081d 	.inst	0x0124081d ; undefined
   85f11:	026b036a 	.inst	0x026b036a ; undefined
   85f15:	02d102bc 	.inst	0x02d102bc ; undefined
   85f19:	09d50cd4 	.inst	0x09d50cd4 ; undefined
   85f1d:	02d702d6 	.inst	0x02d702d6 ; undefined
   85f21:	05e001da 	.inst	0x05e001da ; undefined
   85f25:	02e802e1 	.inst	0x02e802e1 ; undefined
   85f29:	04f020ee 	.inst	0x04f020ee ; undefined
   85f2d:	02f902f8 	.inst	0x02f902f8 ; undefined
   85f31:	01fb02fa 	.inst	0x01fb02fa ; undefined

0000000000085f35 <anon.57ef2e3c02ffeaf529e6c598bd0b036c.19.llvm.5445877691761700591>:
   85f35:	3e3b270c 	.inst	0x3e3b270c ; undefined
   85f39:	9e8f4f4e 	.inst	0x9e8f4f4e ; undefined
   85f3d:	07069f9e 	.inst	0x07069f9e ; undefined
   85f41:	3e3d3609 	.inst	0x3e3d3609 ; undefined
   85f45:	d1d0f356 	.inst	0xd1d0f356 ; undefined
   85f49:	36181404 	tbz	w4, #3, 861c9 <anon.ef2124d7489b3658f16cf858d256e301.32.llvm.12547793553238377620+0x42>
   85f4d:	7f575637 	sli	d23, d17, #23
   85f51:	bdafaeaa 	.inst	0xbdafaeaa ; undefined
   85f55:	8712e035 	.inst	0x8712e035 ; undefined
   85f59:	049e8e89 	.inst	0x049e8e89 ; undefined
   85f5d:	12110e0d 	and	w13, w16, #0x78000
   85f61:	3a343129 	.inst	0x3a343129 ; undefined
   85f65:	4a494645 	eor	w5, w18, w9, lsr #17
   85f69:	65644f4e 	fnmla	z14.h, p3/m, z26.h, z4.h
   85f6d:	1bb7b65c 	.inst	0x1bb7b65c ; undefined
   85f71:	0a08071c 	and	w28, w24, w8, lsl #1
   85f75:	3617140b 	tbz	w11, #2, 841f5 <_ZN4core7unicode12unicode_data15grapheme_extend6lookup17h9125850df650cd1dE+0xb9>
   85f79:	a9a83a39 	stp	x25, x14, [x17, #-384]!
   85f7d:	3709d9d8 	tbnz	w24, #1, 89ab5 <HEAP_START+0x31d5>
   85f81:	07a89190 	.inst	0x07a89190 ; undefined
   85f85:	663e3b0a 	.inst	0x663e3b0a ; undefined
   85f89:	6f928f69 	.inst	0x6f928f69 ; undefined
   85f8d:	5aefee5f 	.inst	0x5aefee5f ; undefined
   85f91:	279b9a62 	.inst	0x279b9a62 ; undefined
   85f95:	a09d5528 	.inst	0xa09d5528 ; undefined
   85f99:	a7a4a3a1 	.inst	0xa7a4a3a1 ; undefined
   85f9d:	bcbaada8 	.inst	0xbcbaada8 ; undefined
   85fa1:	0c0b06c4 	.inst	0x0c0b06c4 ; undefined
   85fa5:	3f3a1d15 	.inst	0x3f3a1d15 ; undefined
   85fa9:	a7a65145 	.inst	0xa7a65145 ; undefined
   85fad:	07a0cdcc 	.inst	0x07a0cdcc ; undefined
   85fb1:	25221a19 	whilehi	p9.b, x16, x2
   85fb5:	c6c53f3e 	.inst	0xc6c53f3e ; undefined
   85fb9:	25232004 	.inst	0x25232004 ; undefined
   85fbd:	38332826 	.inst	0x38332826 ; undefined
   85fc1:	4c4a483a 	.inst	0x4c4a483a ; undefined
   85fc5:	56555350 	.inst	0x56555350 ; undefined
   85fc9:	5e5c5a58 	.inst	0x5e5c5a58 ; undefined
   85fcd:	66656360 	.inst	0x66656360 ; undefined
   85fd1:	7d78736b 	ldr	h11, [x27, #7224]
   85fd5:	aaa48a7f 	orn	xzr, x19, x4, asr #34
   85fd9:	d0c0b0af 	adrp	x15, ffffffff8169b000 <HEAP_START+0xffffffff81614720>
   85fdd:	cc79afae 	.inst	0xcc79afae ; undefined
   85fe1:	 	.inst	0x5e936f6e ; undefined

0000000000085fe4 <anon.57ef2e3c02ffeaf529e6c598bd0b036c.20.llvm.5445877691761700591>:
   85fe4:	057b225e 	mov	z30.b, z18.b[29]
   85fe8:	032d0403 	.inst	0x032d0403 ; undefined
   85fec:	2f010366 	.inst	0x2f010366 ; undefined
   85ff0:	1d82802e 	.inst	0x1d82802e ; undefined
   85ff4:	1c0f3103 	ldr	s3, a4614 <HEAP_START+0x1dd34>
   85ff8:	1e092404 	.inst	0x1e092404 ; undefined
   85ffc:	44052b05 	cmla	z5.b, z24.b, z5.b, #180
   86000:	802a0e04 	.inst	0x802a0e04 ; NYI
   86004:	042406aa 	sub	z10.b, z21.b, z4.b
   86008:	08280424 	.inst	0x08280424 ; undefined
   8600c:	80010b34 	.inst	0x80010b34 ; undefined
   86010:	09378190 	.inst	0x09378190 ; undefined
   86014:	80080a16 	.inst	0x80080a16 ; undefined
   86018:	63033998 	.inst	0x63033998 ; undefined
   8601c:	16300908 	b	fffffffff8c8843c <HEAP_START+0xfffffffff8c01b5c>
   86020:	1b032105 	madd	w5, w8, w3, w8
   86024:	38400105 	ldurb	w5, [x8]
   86028:	2f054b04 	.inst	0x2f054b04 ; undefined
   8602c:	09070a04 	.inst	0x09070a04 ; undefined
   86030:	27204007 	.inst	0x27204007 ; undefined
   86034:	36090c04 	tbz	w4, #1, 881b4 <HEAP_START+0x18d4>
   86038:	1a053a03 	.inst	0x1a053a03 ; undefined
   8603c:	070c0407 	.inst	0x070c0407 ; undefined
   86040:	33374950 	.inst	0x33374950 ; undefined
   86044:	2e07330d 	ext	v13.8b, v24.8b, v7.8b, #6
   86048:	26810a08 	.inst	0x26810a08 ; undefined
   8604c:	08284e52 	.inst	0x08284e52 ; undefined
   86050:	141c562a 	b	79b8f8 <HEAP_START+0x715018>
   86054:	044e0917 	.inst	0x044e0917 ; undefined
   86058:	0e430f1e 	fmla	v30.4h, v24.4h, v3.4h
   8605c:	060a0719 	.inst	0x060a0719 ; undefined
   86060:	09270848 	.inst	0x09270848 ; undefined
   86064:	413f0b75 	.inst	0x413f0b75 ; undefined
   86068:	053b062a 	ext	z10.b, z10.b, z17.b, #217
   8606c:	0651060a 	.inst	0x0651060a ; undefined
   86070:	03100501 	.inst	0x03100501 ; undefined
   86074:	628b8005 	.inst	0x628b8005 ; undefined
   86078:	0a08481e 	and	w30, w0, w8, lsl #18
   8607c:	225ea680 	.inst	0x225ea680 ; undefined
   86080:	060a0b45 	.inst	0x060a0b45 ; undefined
   86084:	0739130d 	.inst	0x0739130d ; undefined
   86088:	042c360a 	xar	z10.b, z10.b, z16.b, #4
   8608c:	3cc08010 	ldur	q16, [x0, #8]
   86090:	480c5364 	stxrh	w12, w4, [x27]
   86094:	45460a09 	uaddlb	z9.h, z16.b, z6.b
   86098:	5308481b 	ubfx	w27, w0, #8, #11
   8609c:	0781391d 	.inst	0x0781391d ; undefined
   860a0:	031d0a46 	.inst	0x031d0a46 ; undefined
   860a4:	03374947 	.inst	0x03374947 ; undefined
   860a8:	060a080e 	.inst	0x060a080e ; undefined
   860ac:	810a0739 	.inst	0x810a0739 ; undefined
   860b0:	b7801936 	tbnz	x22, #48, 863d4 <anon.f199e88e8ae5cdd0b58ec0c7667a1e0a.45.llvm.18267786270480924684+0xc>
   860b4:	0d320f01 	.inst	0x0d320f01 ; undefined
   860b8:	75669b83 	.inst	0x75669b83 ; undefined
   860bc:	8ac4800b 	and	x11, x0, x4, ror #32
   860c0:	8f2f84bc 	.inst	0x8f2f84bc ; undefined
   860c4:	a14782d1 	.inst	0xa14782d1 ; undefined
   860c8:	073982b9 	.inst	0x073982b9 ; undefined
   860cc:	6002042a 	.inst	0x6002042a ; undefined
   860d0:	0a460a26 	and	w6, w17, w6, lsr #2
   860d4:	82130528 	.inst	0x82130528 ; undefined
   860d8:	4b655bb0 	.inst	0x4b655bb0 ; undefined
   860dc:	11073904 	add	w4, w8, #0x1ce
   860e0:	020b0540 	.inst	0x020b0540 ; undefined
   860e4:	08f8970e 	.inst	0x08f8970e ; undefined
   860e8:	092ad684 	.inst	0x092ad684 ; undefined
   860ec:	1f81f7a2 	.inst	0x1f81f7a2 ; undefined
   860f0:	04110331 	.inst	0x04110331 ; undefined
   860f4:	898c8108 	.inst	0x898c8108 ; undefined
   860f8:	0d056b04 	.inst	0x0d056b04 ; undefined
   860fc:	10070903 	adr	x3, 9421c <HEAP_START+0xd93c>
   86100:	f6806093 	.inst	0xf6806093 ; undefined
   86104:	6e08730a 	ext	v10.16b, v24.16b, v8.16b, #14
   86108:	9a804617 	csinc	x23, x16, x0, mi  // mi = first
   8610c:	09570c14 	.inst	0x09570c14 ; undefined
   86110:	81878019 	.inst	0x81878019 ; undefined
   86114:	42850347 	.inst	0x42850347 ; undefined
   86118:	5085150f 	adr	x15, fffffffffff903ba <HEAP_START+0xfffffffffff09ada>
   8611c:	2dd5802b 	ldp	s11, s0, [x1, #172]!
   86120:	02041a03 	.inst	0x02041a03 ; undefined
   86124:	053a7081 	trn1	z1.b, z4.b, z26.b
   86128:	80008501 	.inst	0x80008501 ; undefined
   8612c:	044c29d7 	.inst	0x044c29d7 ; undefined
   86130:	8302040a 	.inst	0x8302040a ; undefined
   86134:	3d4c4411 	ldr	b17, [x0, #785]
   86138:	063cc280 	.inst	0x063cc280 ; undefined
   8613c:	05550401 	mov	z1.h, p5/z, #32
   86140:	8102341b 	.inst	0x8102341b ; undefined
   86144:	64042c0e 	.inst	0x64042c0e ; undefined
   86148:	800a560c 	.inst	0x800a560c ; undefined
   8614c:	0d1d38ae 	.inst	0x0d1d38ae ; undefined
   86150:	0709042c 	.inst	0x0709042c ; undefined
   86154:	80060e02 	.inst	0x80060e02 ; undefined
   86158:	08d8839a 	.inst	0x08d8839a ; undefined
   8615c:	030d030d 	.inst	0x030d030d ; undefined
   86160:	07590c74 	.inst	0x07590c74 ; undefined
   86164:	040c140c 	sabd	z12.b, p5/m, z12.b, z0.b
   86168:	060a0838 	.inst	0x060a0838 ; undefined
   8616c:	4e220828 	.inst	0x4e220828 ; undefined
   86170:	150c5481 	b	439b374 <HEAP_START+0x4314a94>
   86174:	07050303 	.inst	0x07050303 ; undefined
   86178:	07071909 	.inst	0x07071909 ; undefined
   8617c:	070d0309 	.inst	0x070d0309 ; undefined
   86180:	25cb8029 	cmpeq	p9.d, p0/z, z1.d, #11
   86184:	 	.inst	0x4306840a ; undefined

0000000000086187 <anon.ef2124d7489b3658f16cf858d256e301.32.llvm.12547793553238377620>:
   86187:	555c3a43 	.inst	0x555c3a43 ; undefined
   8618b:	73726573 	.inst	0x73726573 ; undefined
   8618f:	736f4d5c 	.inst	0x736f4d5c ; undefined
   86193:	46207365 	.inst	0x46207365 ; undefined
   86197:	6b6d7572 	.inst	0x6b6d7572 ; undefined
   8619b:	2e5c6e69 	.inst	0x2e5c6e69 ; undefined
   8619f:	74737572 	.inst	0x74737572 ; undefined
   861a3:	745c7075 	.inst	0x745c7075 ; undefined
   861a7:	636c6f6f 	.inst	0x636c6f6f ; undefined
   861ab:	6e696168 	rsubhn2	v8.8h, v11.4s, v9.4s
   861af:	696e5c73 	ldpsw	x19, x23, [x3, #-144]
   861b3:	6c746867 	ldnp	d7, d26, [x3, #-192]
   861b7:	38782d79 	.inst	0x38782d79 ; undefined
   861bb:	34365f36 	cbz	w22, f2d9f <HEAP_START+0x6c4bf>
   861bf:	2d63702d 	ldp	s13, s28, [x1, #-232]
   861c3:	646e6977 	.inst	0x646e6977 ; undefined
   861c7:	2d73776f 	ldp	s15, s29, [x27, #-104]
   861cb:	6376736d 	.inst	0x6376736d ; undefined
   861cf:	62696c5c 	.inst	0x62696c5c ; undefined
   861d3:	7375725c 	.inst	0x7375725c ; undefined
   861d7:	62696c74 	.inst	0x62696c74 ; undefined
   861db:	6372735c 	.inst	0x6372735c ; undefined
   861df:	7375725c 	.inst	0x7375725c ; undefined
   861e3:	696c5c74 	ldpsw	x20, x23, [x3, #-160]
   861e7:	72617262 	.inst	0x72617262 ; undefined
   861eb:	6f635c79 	.inst	0x6f635c79 ; undefined
   861ef:	735c6572 	.inst	0x735c6572 ; undefined
   861f3:	735c6372 	.inst	0x735c6372 ; undefined
   861f7:	6563696c 	fnmls	z12.h, p2/m, z11.h, z3.h
   861fb:	6d656d5c 	ldp	d28, d27, [x10, #-432]
   861ff:	2e726863 	.inst	0x2e726863 ; undefined
   86203:	00007372 	udf	#29554
	...

0000000000086208 <anon.ef2124d7489b3658f16cf858d256e301.33.llvm.12547793553238377620>:
   86208:	00086187 	.inst	0x00086187 ; undefined
   8620c:	00000000 	udf	#0
   86210:	0000007e 	udf	#126
   86214:	00000000 	udf	#0
   86218:	0000005a 	udf	#90
   8621c:	00000005 	udf	#5
   86220:	00000001 	udf	#1
	...
   86230:	68772029 	.inst	0x68772029 ; undefined
   86234:	73206e65 	.inst	0x73206e65 ; undefined
   86238:	6963696c 	ldpsw	x12, x26, [x11, #-232]
   8623c:	6020676e 	.inst	0x6020676e ; undefined
   86240:	00110000 	.inst	0x00110000 ; undefined
   86244:	00000000 	udf	#0
   86248:	79622820 	ldrh	w0, [x1, #4372]
   8624c:	20736574 	.inst	0x20736574 ; undefined
   86250:	69637341 	ldpsw	x1, x28, [x26, #-232]
   86254:	72745369 	.inst	0x72745369 ; undefined
   86258:	73616942 	.inst	0x73616942 ; undefined
   8625c:	70466465 	adr	x5, 112eeb <HEAP_START+0x8c60b>
   86260:	7265764f 	.inst	0x7265764f ; undefined
   86264:	776f6c66 	.inst	0x776f6c66 ; undefined
   86268:	6c6c6163 	ldnp	d3, d24, [x11, #-320]
   8626c:	60206465 	.inst	0x60206465 ; undefined
   86270:	6974704f 	ldpsw	x15, x28, [x2, #-96]
   86274:	3a3a6e6f 	.inst	0x3a3a6e6f ; undefined
   86278:	72776e75 	.inst	0x72776e75 ; undefined
   8627c:	29287061 	stp	w1, w28, [x3, #-192]
   86280:	6e6f2060 	usubl2	v0.4s, v3.8h, v15.8h
   86284:	60206120 	.inst	0x60206120 ; undefined
   86288:	656e6f4e 	fnmls	z14.h, p3/m, z26.h, z14.h
   8628c:	61762060 	.inst	0x61762060 ; undefined
   86290:	5b65756c 	.inst	0x5b65756c ; undefined
   86294:	5d2e2e2e 	.inst	0x5d2e2e2e ; undefined
   86298:	65747962 	fnmls	z2.h, p6/m, z11.h, z20.h
   8629c:	646e6920 	.inst	0x646e6920 ; undefined
   862a0:	20207865 	.inst	0x20207865 ; undefined
   862a4:	6f207369 	.inst	0x6f207369 ; undefined
   862a8:	6f207475 	uqshl	v21.4s, v3.4s, #0
   862ac:	6f622066 	umlal2	v6.4s, v3.8h, v2.h[2]
   862b0:	73646e75 	.inst	0x73646e75 ; undefined
   862b4:	20666f20 	.inst	0x20666f20 ; undefined
   862b8:	00006060 	udf	#24672
   862bc:	00000000 	udf	#0
   862c0:	00086298 	.inst	0x00086298 ; undefined
   862c4:	00000000 	udf	#0
   862c8:	0000000b 	udf	#11
   862cc:	00000000 	udf	#0
   862d0:	000862a3 	.inst	0x000862a3 ; undefined
   862d4:	00000000 	udf	#0
   862d8:	00000016 	udf	#22
   862dc:	00000000 	udf	#0
   862e0:	000862b9 	.inst	0x000862b9 ; undefined
   862e4:	00000000 	udf	#0
   862e8:	00000001 	udf	#1
   862ec:	00000000 	udf	#0
   862f0:	69676562 	ldpsw	x2, x25, [x11, #-200]
   862f4:	3d3c206e 	str	b14, [x3, #3848]
   862f8:	646e6520 	.inst	0x646e6520 ; undefined
   862fc:	3c202820 	.inst	0x3c202820 ; undefined
   86300:	696b203d 	ldpsw	x29, x8, [x1, #-168]
   86304:	0000646e 	udf	#25710
   86308:	000862f0 	.inst	0x000862f0 ; undefined
   8630c:	00000000 	udf	#0
   86310:	0000000e 	udf	#14
   86314:	00000000 	udf	#0
   86318:	000862fe 	.inst	0x000862fe ; undefined
   8631c:	00000000 	udf	#0
   86320:	00000004 	udf	#4
   86324:	00000000 	udf	#0
   86328:	00086230 	.inst	0x00086230 ; undefined
   8632c:	00000000 	udf	#0
   86330:	00000010 	udf	#16
   86334:	00000000 	udf	#0
   86338:	000862b9 	.inst	0x000862b9 ; undefined
   8633c:	00000000 	udf	#0
   86340:	00000001 	udf	#1
   86344:	00000000 	udf	#0
   86348:	20736920 	.inst	0x20736920 ; undefined
   8634c:	20746f6e 	.inst	0x20746f6e ; undefined
   86350:	68632061 	.inst	0x68632061 ; undefined
   86354:	62207261 	.inst	0x62207261 ; undefined
   86358:	646e756f 	.inst	0x646e756f ; undefined
   8635c:	3b797261 	.inst	0x3b797261 ; undefined
   86360:	20746920 	.inst	0x20746920 ; undefined
   86364:	69207369 	stgp	x9, x28, [x27, #-1024]
   86368:	6469736e 	.inst	0x6469736e ; undefined
   8636c:	20292065 	.inst	0x20292065 ; undefined
   86370:	6020666f 	.inst	0x6020666f ; undefined
   86374:	00000000 	udf	#0
   86378:	00086298 	.inst	0x00086298 ; undefined
   8637c:	00000000 	udf	#0
   86380:	0000000b 	udf	#11
   86384:	00000000 	udf	#0
   86388:	00086348 	.inst	0x00086348 ; undefined
   8638c:	00000000 	udf	#0
   86390:	00000026 	udf	#38
   86394:	00000000 	udf	#0
   86398:	00086248 	.inst	0x00086248 ; undefined
   8639c:	00000000 	udf	#0
   863a0:	00000008 	udf	#8
   863a4:	00000000 	udf	#0
   863a8:	0008636e 	.inst	0x0008636e ; undefined
   863ac:	00000000 	udf	#0
   863b0:	00000006 	udf	#6
   863b4:	00000000 	udf	#0
   863b8:	000862b9 	.inst	0x000862b9 ; undefined
   863bc:	00000000 	udf	#0
   863c0:	00000001 	udf	#1
   863c4:	00000000 	udf	#0

00000000000863c8 <anon.f199e88e8ae5cdd0b58ec0c7667a1e0a.45.llvm.18267786270480924684>:
   863c8:	555c3a43 	.inst	0x555c3a43 ; undefined
   863cc:	73726573 	.inst	0x73726573 ; undefined
   863d0:	736f4d5c 	.inst	0x736f4d5c ; undefined
   863d4:	46207365 	.inst	0x46207365 ; undefined
   863d8:	6b6d7572 	.inst	0x6b6d7572 ; undefined
   863dc:	2e5c6e69 	.inst	0x2e5c6e69 ; undefined
   863e0:	74737572 	.inst	0x74737572 ; undefined
   863e4:	745c7075 	.inst	0x745c7075 ; undefined
   863e8:	636c6f6f 	.inst	0x636c6f6f ; undefined
   863ec:	6e696168 	rsubhn2	v8.8h, v11.4s, v9.4s
   863f0:	696e5c73 	ldpsw	x19, x23, [x3, #-144]
   863f4:	6c746867 	ldnp	d7, d26, [x3, #-192]
   863f8:	38782d79 	.inst	0x38782d79 ; undefined
   863fc:	34365f36 	cbz	w22, f2fe0 <HEAP_START+0x6c700>
   86400:	2d63702d 	ldp	s13, s28, [x1, #-232]
   86404:	646e6977 	.inst	0x646e6977 ; undefined
   86408:	2d73776f 	ldp	s15, s29, [x27, #-104]
   8640c:	6376736d 	.inst	0x6376736d ; undefined
   86410:	62696c5c 	.inst	0x62696c5c ; undefined
   86414:	7375725c 	.inst	0x7375725c ; undefined
   86418:	62696c74 	.inst	0x62696c74 ; undefined
   8641c:	6372735c 	.inst	0x6372735c ; undefined
   86420:	7375725c 	.inst	0x7375725c ; undefined
   86424:	696c5c74 	ldpsw	x20, x23, [x3, #-160]
   86428:	72617262 	.inst	0x72617262 ; undefined
   8642c:	6f635c79 	.inst	0x6f635c79 ; undefined
   86430:	735c6572 	.inst	0x735c6572 ; undefined
   86434:	755c6372 	.inst	0x755c6372 ; undefined
   86438:	6f63696e 	umlsl2	v14.4s, v11.8h, v3.h[6]
   8643c:	755c6564 	.inst	0x755c6564 ; undefined
   86440:	6f63696e 	umlsl2	v14.4s, v11.8h, v3.h[6]
   86444:	645f6564 	fcmla	z4.h, p1/m, z11.h, z31.h, #270
   86448:	2e617461 	uabd	v1.4h, v3.4h, v1.4h
   8644c:	00007372 	udf	#29554

0000000000086450 <anon.f199e88e8ae5cdd0b58ec0c7667a1e0a.46.llvm.18267786270480924684>:
   86450:	000863c8 	.inst	0x000863c8 ; undefined
   86454:	00000000 	udf	#0
   86458:	00000086 	udf	#134
   8645c:	00000000 	udf	#0
   86460:	0000004b 	udf	#75
   86464:	00000028 	udf	#40

0000000000086468 <anon.f199e88e8ae5cdd0b58ec0c7667a1e0a.47.llvm.18267786270480924684>:
   86468:	000863c8 	.inst	0x000863c8 ; undefined
   8646c:	00000000 	udf	#0
   86470:	00000086 	udf	#134
   86474:	00000000 	udf	#0
   86478:	00000057 	udf	#87
   8647c:	00000016 	udf	#22

0000000000086480 <anon.f199e88e8ae5cdd0b58ec0c7667a1e0a.48.llvm.18267786270480924684>:
   86480:	000863c8 	.inst	0x000863c8 ; undefined
   86484:	00000000 	udf	#0
   86488:	00000086 	udf	#134
   8648c:	00000000 	udf	#0
   86490:	00000052 	udf	#82
   86494:	0000003e 	udf	#62

0000000000086498 <_ZN4core7unicode12unicode_data15grapheme_extend17SHORT_OFFSET_RUNS17h063e233180d56fa9E.llvm.18267786270480924684>:
   86498:	00000300 	udf	#768
   8649c:	00200483 	.inst	0x00200483 ; NYI
   864a0:	00600591 	.inst	0x00600591 ; undefined
   864a4:	00a0135d 	.inst	0x00a0135d ; undefined
   864a8:	1ea01712 	.inst	0x1ea01712 ; undefined
   864ac:	1ee0200c 	.inst	0x1ee0200c ; undefined
   864b0:	2b202cef 	adds	w15, w7, w0, uxth #3
   864b4:	2ba0302a 	.inst	0x2ba0302a ; undefined
   864b8:	2c60a66f 	ldnp	s15, s9, [x19, #-252]
   864bc:	2ce0a802 	ldp	s2, s10, [x0], #-252
   864c0:	2de0fb1e 	ldp	s30, s30, [x24, #-252]!
   864c4:	35a0fe00 	cbnz	w0, fffffffffffc8484 <HEAP_START+0xfffffffffff41ba4>
   864c8:	35e0ff9e 	cbnz	w30, 484b8 <bss_size+0x484b5>
   864cc:	366101fd 	tbz	w29, #12, 88508 <HEAP_START+0x1c28>
   864d0:	36a10a01 	tbz	w1, #20, 88610 <HEAP_START+0x1d30>
   864d4:	37610d24 	tbnz	w4, #12, 88678 <HEAP_START+0x1d98>
   864d8:	38e10eab 	.inst	0x38e10eab ; undefined
   864dc:	3921182f 	strb	w15, [x1, #2118]
   864e0:	46611c30 	.inst	0x46611c30 ; undefined
   864e4:	4aa11ef3 	eon	w19, w23, w1, asr #7
   864e8:	4e616af0 	fcvtn2	v16.4s, v23.2d
   864ec:	4ea16f4f 	smin	v15.4s, v26.4s, v1.4s
   864f0:	4f21bc9d 	.inst	0x4f21bc9d ; undefined
   864f4:	4fe1d165 	.inst	0x4fe1d165 ; undefined
   864f8:	5021da00 	adr	x0, ca03a <HEAP_START+0x4375a>
   864fc:	51e1e000 	.inst	0x51e1e000 ; undefined
   86500:	5361e130 	.inst	0x5361e130 ; undefined
   86504:	54a1e2ec 	b.gt	fffffffffffca160 <HEAP_START+0xfffffffffff43880>
   86508:	54e1e8d0 	.inst	0x54e1e8d0 ; undefined
   8650c:	552e0020 	.inst	0x552e0020 ; undefined
   86510:	55bf01f0 	.inst	0x55bf01f0 ; undefined

0000000000086514 <_ZN4core7unicode12unicode_data15grapheme_extend7OFFSETS17he7128fdf039e6ad6E.llvm.18267786270480924684>:
   86514:	07007000 	.inst	0x07007000 ; undefined
   86518:	01012d00 	.inst	0x01012d00 ; undefined
   8651c:	02010201 	.inst	0x02010201 ; undefined
   86520:	0b480101 	add	w1, w8, w8, lsr #0
   86524:	01101530 	.inst	0x01101530 ; undefined
   86528:	06020765 	.inst	0x06020765 ; undefined
   8652c:	04010202 	sub	z2.b, p0/m, z2.b, z16.b
   86530:	1b1e0123 	madd	w3, w9, w30, w0
   86534:	093a0b5b 	.inst	0x093a0b5b ; undefined
   86538:	04180109 	orr	z9.b, p0/m, z9.b, z8.b
   8653c:	03010901 	.inst	0x03010901 ; undefined
   86540:	032b0501 	.inst	0x032b0501 ; undefined
   86544:	20010f77 	.inst	0x20010f77 ; undefined
   86548:	01010137 	.inst	0x01010137 ; undefined
   8654c:	01040804 	.inst	0x01040804 ; undefined
   86550:	020a0703 	.inst	0x020a0703 ; undefined
   86554:	013a011d 	.inst	0x013a011d ; undefined
   86558:	04020101 	.inst	0x04020101 ; undefined
   8655c:	01090108 	.inst	0x01090108 ; undefined
   86560:	011a020a 	.inst	0x011a020a ; undefined
   86564:	01390202 	.inst	0x01390202 ; undefined
   86568:	02040204 	.inst	0x02040204 ; undefined
   8656c:	01030302 	.inst	0x01030302 ; undefined
   86570:	0103021e 	.inst	0x0103021e ; undefined
   86574:	0139020b 	.inst	0x0139020b ; undefined
   86578:	02010504 	.inst	0x02010504 ; undefined
   8657c:	02140104 	.inst	0x02140104 ; undefined
   86580:	01010616 	.inst	0x01010616 ; undefined
   86584:	0201013a 	.inst	0x0201013a ; undefined
   86588:	01080401 	.inst	0x01080401 ; undefined
   8658c:	020a0307 	.inst	0x020a0307 ; undefined
   86590:	013b011e 	.inst	0x013b011e ; undefined
   86594:	010c0101 	.inst	0x010c0101 ; undefined
   86598:	01280109 	.inst	0x01280109 ; undefined
   8659c:	03390103 	.inst	0x03390103 ; undefined
   865a0:	04010305 	sub	z5.b, p0/m, z5.b, z24.b
   865a4:	020b0207 	.inst	0x020b0207 ; undefined
   865a8:	013a011d 	.inst	0x013a011d ; undefined
   865ac:	01020102 	.inst	0x01020102 ; undefined
   865b0:	02050103 	.inst	0x02050103 ; undefined
   865b4:	020b0207 	.inst	0x020b0207 ; undefined
   865b8:	0239021c 	.inst	0x0239021c ; undefined
   865bc:	04020101 	.inst	0x04020101 ; undefined
   865c0:	01090108 	.inst	0x01090108 ; undefined
   865c4:	011d020a 	.inst	0x011d020a ; undefined
   865c8:	01040148 	.inst	0x01040148 ; undefined
   865cc:	01010302 	.inst	0x01010302 ; undefined
   865d0:	01510108 	.inst	0x01510108 ; undefined
   865d4:	080c0702 	stxrb	w12, w2, [x24]
   865d8:	09020162 	.inst	0x09020162 ; undefined
   865dc:	024a060b 	.inst	0x024a060b ; undefined
   865e0:	0101011b 	.inst	0x0101011b ; undefined
   865e4:	0e370101 	saddl	v1.8h, v8.8b, v23.8b
   865e8:	02010501 	.inst	0x02010501 ; undefined
   865ec:	24010b05 	cmphs	p5.b, p2/z, z24.b, z1.b
   865f0:	04660109 	add	z9.h, z8.h, z6.h
   865f4:	02010601 	.inst	0x02010601 ; undefined
   865f8:	02190202 	.inst	0x02190202 ; undefined
   865fc:	04100304 	mul	z4.b, p0/m, z4.b, z24.b
   86600:	0202010d 	.inst	0x0202010d ; undefined
   86604:	010f0106 	.inst	0x010f0106 ; undefined
   86608:	03000300 	.inst	0x03000300 ; undefined
   8660c:	021d031d 	.inst	0x021d031d ; undefined
   86610:	0240021e 	.inst	0x0240021e ; undefined
   86614:	01080701 	.inst	0x01080701 ; undefined
   86618:	01090b02 	.inst	0x01090b02 ; undefined
   8661c:	0277032d 	.inst	0x0277032d ; undefined
   86620:	03760122 	.inst	0x03760122 ; undefined
   86624:	01090204 	.inst	0x01090204 ; undefined
   86628:	02db0306 	.inst	0x02db0306 ; undefined
   8662c:	013a0102 	.inst	0x013a0102 ; undefined
   86630:	01010701 	.inst	0x01010701 ; undefined
   86634:	08020101 	stxrb	w2, w1, [x8]
   86638:	01020a06 	.inst	0x01020a06 ; undefined
   8663c:	043f1130 	sqadd	z16.b, z9.b, z31.b
   86640:	01010730 	.inst	0x01010730 ; undefined
   86644:	09280105 	.inst	0x09280105 ; undefined
   86648:	0420020c 	add	z12.b, z16.b, z0.b
   8664c:	03010202 	.inst	0x03010202 ; undefined
   86650:	02010138 	.inst	0x02010138 ; undefined
   86654:	03010103 	.inst	0x03010103 ; undefined
   86658:	0202083a 	.inst	0x0202083a ; undefined
   8665c:	0d010398 	.inst	0x0d010398 ; undefined
   86660:	01040701 	.inst	0x01040701 ; undefined
   86664:	02030106 	.inst	0x02030106 ; undefined
   86668:	05013ac6 	orr	z6.s, z6.s, #0xfe00ffff
   8666c:	21c30100 	.inst	0x21c30100 ; undefined
   86670:	018d0300 	.inst	0x018d0300 ; undefined
   86674:	06002060 	.inst	0x06002060 ; undefined
   86678:	04000269 	add	z9.b, p0/m, z9.b, z19.b
   8667c:	02200a01 	.inst	0x02200a01 ; undefined
   86680:	01000250 	.inst	0x01000250 ; undefined
   86684:	01040103 	.inst	0x01040103 ; undefined
   86688:	01050219 	.inst	0x01050219 ; undefined
   8668c:	121a0297 	and	w23, w20, #0x40
   86690:	0826010d 	.inst	0x0826010d ; undefined
   86694:	032e0b19 	.inst	0x032e0b19 ; undefined
   86698:	04020130 	.inst	0x04020130 ; undefined
   8669c:	01270202 	.inst	0x01270202 ; undefined
   866a0:	02020643 	.inst	0x02020643 ; undefined
   866a4:	010c0202 	.inst	0x010c0202 ; undefined
   866a8:	012f0108 	.inst	0x012f0108 ; undefined
   866ac:	03010133 	.inst	0x03010133 ; undefined
   866b0:	02050202 	.inst	0x02050202 ; undefined
   866b4:	022a0101 	.inst	0x022a0101 ; undefined
   866b8:	01ee0108 	.inst	0x01ee0108 ; undefined
   866bc:	01040102 	.inst	0x01040102 ; undefined
   866c0:	10000100 	adr	x0, 866e0 <_ZN4core7unicode12unicode_data15grapheme_extend7OFFSETS17he7128fdf039e6ad6E.llvm.18267786270480924684+0x1cc>
   866c4:	02001010 	.inst	0x02001010 ; undefined
   866c8:	01e20100 	.inst	0x01e20100 ; undefined
   866cc:	03000595 	.inst	0x03000595 ; undefined
   866d0:	04050201 	.inst	0x04050201 ; undefined
   866d4:	01040328 	.inst	0x01040328 ; undefined
   866d8:	040002a5 	add	z5.b, p0/m, z5.b, z21.b
   866dc:	0b990200 	add	w0, w16, w25, asr #0
   866e0:	0f3601b0 	.inst	0x0f3601b0 ; undefined
   866e4:	04310338 	add	z24.b, z25.b, z17.b
   866e8:	03450202 	.inst	0x03450202 ; undefined
   866ec:	08010524 	stxrb	w1, w4, [x9]
   866f0:	020c013e 	.inst	0x020c013e ; undefined
   866f4:	040a0934 	smin	z20.b, p2/m, z20.b, z9.b
   866f8:	035f0102 	.inst	0x035f0102 ; undefined
   866fc:	02010102 	.inst	0x02010102 ; undefined
   86700:	01a00106 	.inst	0x01a00106 ; undefined
   86704:	02150803 	.inst	0x02150803 ; undefined
   86708:	01010239 	.inst	0x01010239 ; undefined
   8670c:	01160101 	.inst	0x01160101 ; undefined
   86710:	0503070e 	orr	z14.d, z14.d, #0xffffffff01ffffff
   86714:	030208c3 	.inst	0x030208c3 ; undefined
   86718:	01170101 	.inst	0x01170101 ; undefined
   8671c:	06020151 	.inst	0x06020151 ; undefined
   86720:	01020101 	.inst	0x01020101 ; undefined
   86724:	02010201 	.inst	0x02010201 ; undefined
   86728:	040201eb 	.inst	0x040201eb ; undefined
   8672c:	02010206 	.inst	0x02010206 ; undefined
   86730:	0855021b 	ldxrb	w27, [x16]
   86734:	02010102 	.inst	0x02010102 ; undefined
   86738:	0101016a 	.inst	0x0101016a ; undefined
   8673c:	01010602 	.inst	0x01010602 ; undefined
   86740:	04020365 	.inst	0x04020365 ; undefined
   86744:	09000501 	.inst	0x09000501 ; undefined
   86748:	01f50201 	.inst	0x01f50201 ; undefined
   8674c:	0101020a 	.inst	0x0101020a ; undefined
   86750:	04900104 	mul	z4.s, p0/m, z4.s, z8.s
   86754:	01040202 	.inst	0x01040202 ; undefined
   86758:	06280a20 	.inst	0x06280a20 ; undefined
   8675c:	01080402 	.inst	0x01080402 ; undefined
   86760:	03020609 	.inst	0x03020609 ; undefined
   86764:	02010d2e 	.inst	0x02010d2e ; undefined
   86768:	06010700 	.inst	0x06010700 ; undefined
   8676c:	16520101 	b	fffffffff9506b70 <HEAP_START+0xfffffffff9480290>
   86770:	02010702 	.inst	0x02010702 ; undefined
   86774:	067a0201 	.inst	0x067a0201 ; undefined
   86778:	02010103 	.inst	0x02010103 ; undefined
   8677c:	01010701 	.inst	0x01010701 ; undefined
   86780:	01030248 	.inst	0x01030248 ; undefined
   86784:	02000101 	.inst	0x02000101 ; undefined
   86788:	073b0500 	.inst	0x073b0500 ; undefined
   8678c:	043f0100 	add	z0.b, z8.b, z31.b
   86790:	02000151 	.inst	0x02000151 ; undefined
   86794:	03010100 	.inst	0x03010100 ; undefined
   86798:	08080504 	stxrb	w8, w4, [x8]
   8679c:	041e0702 	.inst	0x041e0702 ; undefined
   867a0:	37000394 	tbnz	w20, #0, 86810 <anon.49eea379fafcae5b0dab2b0475fe0b2d.2.llvm.7516477757011690699+0x10>
   867a4:	01083204 	.inst	0x01083204 ; undefined
   867a8:	0516010e 	mov	z14.b, p6/z, #8
   867ac:	07000f01 	.inst	0x07000f01 ; undefined
   867b0:	07021101 	.inst	0x07021101 ; undefined
   867b4:	05010201 	orr	z1.s, z1.s, #0x1ffff
   867b8:	04000700 	add	z0.b, p1/m, z0.b, z24.b
   867bc:	076d0700 	.inst	0x076d0700 ; undefined
   867c0:	f0806000 	adrp	x0, ffffffff00c89000 <HEAP_START+0xffffffff00c02720>
	...
   867cc:	00000020 	udf	#32
   867d0:	0808005e 	stxrb	w8, w30, [x2]
   867d4:	0808081a 	stxrb	w8, w26, [x0]
   867d8:	08080808 	stxrb	w8, w8, [x0]
   867dc:	08080808 	stxrb	w8, w8, [x0]
   867e0:	08080808 	stxrb	w8, w8, [x0]
   867e4:	08080808 	stxrb	w8, w8, [x0]
   867e8:	08080808 	stxrb	w8, w8, [x0]
   867ec:	33050808 	bfi	w8, w0, #27, #3
   867f0:	210d0200 	.inst	0x210d0200 ; undefined
   867f4:	130e0400 	sbfiz	w0, w0, #18, #2
   867f8:	00000018 	udf	#24
   867fc:	00000000 	udf	#0

0000000000086800 <anon.49eea379fafcae5b0dab2b0475fe0b2d.2.llvm.7516477757011690699>:
   86800:	0008427c 	.inst	0x0008427c ; undefined
   86804:	00000000 	udf	#0
   86808:	00000018 	udf	#24
   8680c:	00000000 	udf	#0
   86810:	00000008 	udf	#8
   86814:	00000000 	udf	#0
   86818:	00082bdc 	.inst	0x00082bdc ; undefined
   8681c:	00000000 	udf	#0
   86820:	0008311c 	.inst	0x0008311c ; undefined
   86824:	00000000 	udf	#0
   86828:	000831fc 	.inst	0x000831fc ; undefined
   8682c:	00000000 	udf	#0

Disassembly of section .data:

0000000000086830 <_ZN8graph_os8platform6raspi33gpu14MESSAGE_BUFFER17h3040ba92af69a932E.llvm.7750987414679672498>:
   86830:	0000008c 	udf	#140
   86834:	00000000 	udf	#0
   86838:	00048003 	.inst	0x00048003 ; undefined
   8683c:	00000008 	udf	#8
   86840:	00000008 	udf	#8
   86844:	00000780 	udf	#1920
   86848:	00000438 	udf	#1080
   8684c:	00048004 	.inst	0x00048004 ; undefined
   86850:	00000008 	udf	#8
   86854:	00000008 	udf	#8
   86858:	00000780 	udf	#1920
   8685c:	00000438 	udf	#1080
   86860:	00048009 	.inst	0x00048009 ; undefined
   86864:	00000008 	udf	#8
   86868:	00000008 	udf	#8
	...
   86874:	00048005 	.inst	0x00048005 ; undefined
   86878:	00000004 	udf	#4
   8687c:	00000004 	udf	#4
   86880:	00000020 	udf	#32
   86884:	00048006 	.inst	0x00048006 ; undefined
   86888:	00000004 	udf	#4
   8688c:	00000004 	udf	#4
   86890:	00000001 	udf	#1
   86894:	00040001 	.inst	0x00040001 ; undefined
   86898:	00000008 	udf	#8
   8689c:	00000008 	udf	#8
   868a0:	00001000 	udf	#4096
   868a4:	00000000 	udf	#0
   868a8:	00040008 	.inst	0x00040008 ; undefined
   868ac:	00000004 	udf	#4
   868b0:	00000004 	udf	#4
	...

Disassembly of section .bss:

00000000000868c0 <_ZN8graph_os9ALLOCATOR17h3e84c98eb91fd996E>:
	...
