aarch64-none-elf-objdump --disassemble-all target/aarch64-unknown-none/release/graph_os

target/aarch64-unknown-none/release/graph_os:     file format elf64-littleaarch64


Disassembly of section .text:

0000000000080000 <_start>:
   80000:	d53800a1 	mrs	x1, mpidr_el1
   80004:	92400421 	and	x1, x1, #0x3
   80008:	b4000061 	cbz	x1, 80014 <_start+0x14>
   8000c:	d503205f 	wfe
   80010:	17ffffff 	b	8000c <_start+0xc>
   80014:	580001a1 	ldr	x1, 80048 <_start+0x48>
   80018:	9100003f 	mov	sp, x1
   8001c:	580001a1 	ldr	x1, 80050 <_start+0x50>
   80020:	180001c2 	ldr	w2, 80058 <_start+0x58>
   80024:	34000082 	cbz	w2, 80034 <_start+0x34>
   80028:	f800843f 	str	xzr, [x1], #8
   8002c:	51000442 	sub	w2, w2, #0x1
   80030:	35ffffa2 	cbnz	w2, 80024 <_start+0x24>
   80034:	58000160 	ldr	x0, 80060 <_start+0x60>
   80038:	d518c000 	msr	vbar_el1, x0
   8003c:	58000160 	ldr	x0, 80068 <_start+0x68>
   80040:	14000275 	b	80a14 <main>
   80044:	d503201f 	nop
   80048:	00080000 	.inst	0x00080000 ; undefined
   8004c:	00000000 	udf	#0
   80050:	00088b70 	.inst	0x00088b70 ; undefined
   80054:	00000000 	udf	#0
   80058:	00000003 	udf	#3
   8005c:	d503201f 	nop
   80060:	00083000 	.inst	0x00083000 ; undefined
   80064:	00000000 	udf	#0
   80068:	00088b90 	.inst	0x00088b90 ; undefined
   8006c:	00000000 	udf	#0

0000000000080070 <_ZN4core5alloc6global11GlobalAlloc7realloc17h52e759c52383ddaaE>:
   80070:	d10143ff 	sub	sp, sp, #0x50
   80074:	ea03047f 	tst	x3, x3, lsl #1
   80078:	a90167fe 	stp	x30, x25, [sp, #16]
   8007c:	a9025ff8 	stp	x24, x23, [sp, #32]
   80080:	a90357f6 	stp	x22, x21, [sp, #48]
   80084:	a9044ff4 	stp	x20, x19, [sp, #64]
   80088:	54001081 	b.ne	80298 <_ZN4core5alloc6global11GlobalAlloc7realloc17h52e759c52383ddaaE+0x228>  // b.any
   8008c:	f100207f 	cmp	x3, #0x8
   80090:	52800108 	mov	w8, #0x8                   	// #8
   80094:	9a888076 	csel	x22, x3, x8, hi  // hi = pmore
   80098:	9e6702c0 	fmov	d0, x22
   8009c:	0e205800 	cnt	v0.8b, v0.8b
   800a0:	2e303800 	uaddlv	h0, v0.8b
   800a4:	1e260008 	fmov	w8, s0
   800a8:	cb1603f8 	neg	x24, x22
   800ac:	f100051f 	cmp	x8, #0x1
   800b0:	1a9f07e8 	cset	w8, ne  // ne = any
   800b4:	eb04031f 	cmp	x24, x4
   800b8:	1a9f27e9 	cset	w9, cc  // cc = lo, ul, last
   800bc:	2a080128 	orr	w8, w9, w8
   800c0:	7100011f 	cmp	w8, #0x0
   800c4:	9a9613e9 	csel	x9, xzr, x22, ne  // ne = any
   800c8:	35000c68 	cbnz	w8, 80254 <_ZN4core5alloc6global11GlobalAlloc7realloc17h52e759c52383ddaaE+0x1e4>
   800cc:	b4000d29 	cbz	x9, 80270 <_ZN4core5alloc6global11GlobalAlloc7realloc17h52e759c52383ddaaE+0x200>
   800d0:	9e670120 	fmov	d0, x9
   800d4:	0e205800 	cnt	v0.8b, v0.8b
   800d8:	2e303800 	uaddlv	h0, v0.8b
   800dc:	1e260008 	fmov	w8, s0
   800e0:	f100051f 	cmp	x8, #0x1
   800e4:	54000c61 	b.ne	80270 <_ZN4core5alloc6global11GlobalAlloc7realloc17h52e759c52383ddaaE+0x200>  // b.any
   800e8:	d1000528 	sub	x8, x9, #0x1
   800ec:	aa0003f7 	mov	x23, x0
   800f0:	cb0903e9 	neg	x9, x9
   800f4:	8b04010a 	add	x10, x8, x4
   800f8:	f8408eec 	ldr	x12, [x23, #8]!
   800fc:	8a09014a 	and	x10, x10, x9
   80100:	f100415f 	cmp	x10, #0x10
   80104:	5280020b 	mov	w11, #0x10                  	// #16
   80108:	9a8b814b 	csel	x11, x10, x11, hi  // hi = pmore
   8010c:	b400090c 	cbz	x12, 8022c <_ZN4core5alloc6global11GlobalAlloc7realloc17h52e759c52383ddaaE+0x1bc>
   80110:	aa0203f4 	mov	x20, x2
   80114:	aa0103f3 	mov	x19, x1
   80118:	aa1703ea 	mov	x10, x23
   8011c:	14000004 	b	8012c <_ZN4core5alloc6global11GlobalAlloc7realloc17h52e759c52383ddaaE+0xbc>
   80120:	f8408d8d 	ldr	x13, [x12, #8]!
   80124:	aa0c03ea 	mov	x10, x12
   80128:	b400082d 	cbz	x13, 8022c <_ZN4core5alloc6global11GlobalAlloc7realloc17h52e759c52383ddaaE+0x1bc>
   8012c:	f940014c 	ldr	x12, [x10]
   80130:	f940018e 	ldr	x14, [x12]
   80134:	8b0c010d 	add	x13, x8, x12
   80138:	8a0901b5 	and	x21, x13, x9
   8013c:	8b0b02ad 	add	x13, x21, x11
   80140:	8b0c01ce 	add	x14, x14, x12
   80144:	eb0d01df 	cmp	x14, x13
   80148:	54fffec3 	b.cc	80120 <_ZN4core5alloc6global11GlobalAlloc7realloc17h52e759c52383ddaaE+0xb0>  // b.lo, b.ul, b.last
   8014c:	aa2d03ef 	mvn	x15, x13
   80150:	8b0f01ce 	add	x14, x14, x15
   80154:	f1003ddf 	cmp	x14, #0xf
   80158:	54fffe43 	b.cc	80120 <_ZN4core5alloc6global11GlobalAlloc7realloc17h52e759c52383ddaaE+0xb0>  // b.lo, b.ul, b.last
   8015c:	f9400588 	ldr	x8, [x12, #8]
   80160:	f900059f 	str	xzr, [x12, #8]
   80164:	f9400149 	ldr	x9, [x10]
   80168:	f900015f 	str	xzr, [x10]
   8016c:	b4000b29 	cbz	x9, 802d0 <_ZN4core5alloc6global11GlobalAlloc7realloc17h52e759c52383ddaaE+0x260>
   80170:	f9000148 	str	x8, [x10]
   80174:	f9400128 	ldr	x8, [x9]
   80178:	8b090108 	add	x8, x8, x9
   8017c:	eb0d0109 	subs	x9, x8, x13
   80180:	54000140 	b.eq	801a8 <_ZN4core5alloc6global11GlobalAlloc7realloc17h52e759c52383ddaaE+0x138>  // b.none
   80184:	91001d0a 	add	x10, x8, #0x7
   80188:	927df14a 	and	x10, x10, #0xfffffffffffffff8
   8018c:	eb08015f 	cmp	x10, x8
   80190:	54000921 	b.ne	802b4 <_ZN4core5alloc6global11GlobalAlloc7realloc17h52e759c52383ddaaE+0x244>  // b.any
   80194:	f100413f 	cmp	x9, #0x10
   80198:	54000aa3 	b.cc	802ec <_ZN4core5alloc6global11GlobalAlloc7realloc17h52e759c52383ddaaE+0x27c>  // b.lo, b.ul, b.last
   8019c:	f94002ea 	ldr	x10, [x23]
   801a0:	a9002909 	stp	x9, x10, [x8]
   801a4:	f90002e8 	str	x8, [x23]
   801a8:	91004019 	add	x25, x0, #0x10
   801ac:	089fff3f 	stlrb	wzr, [x25]
   801b0:	b4000455 	cbz	x21, 80238 <_ZN4core5alloc6global11GlobalAlloc7realloc17h52e759c52383ddaaE+0x1c8>
   801b4:	eb04029f 	cmp	x20, x4
   801b8:	9a948082 	csel	x2, x4, x20, hi  // hi = pmore
   801bc:	aa1503e0 	mov	x0, x21
   801c0:	aa1303e1 	mov	x1, x19
   801c4:	94001a54 	bl	86b14 <memcpy>
   801c8:	eb14031f 	cmp	x24, x20
   801cc:	9a9633e8 	csel	x8, xzr, x22, cc  // cc = lo, ul, last
   801d0:	54000423 	b.cc	80254 <_ZN4core5alloc6global11GlobalAlloc7realloc17h52e759c52383ddaaE+0x1e4>  // b.lo, b.ul, b.last
   801d4:	b40004e8 	cbz	x8, 80270 <_ZN4core5alloc6global11GlobalAlloc7realloc17h52e759c52383ddaaE+0x200>
   801d8:	9e670100 	fmov	d0, x8
   801dc:	0e205800 	cnt	v0.8b, v0.8b
   801e0:	2e303800 	uaddlv	h0, v0.8b
   801e4:	1e260009 	fmov	w9, s0
   801e8:	f100053f 	cmp	x9, #0x1
   801ec:	54000421 	b.ne	80270 <_ZN4core5alloc6global11GlobalAlloc7realloc17h52e759c52383ddaaE+0x200>  // b.any
   801f0:	91001e69 	add	x9, x19, #0x7
   801f4:	927df129 	and	x9, x9, #0xfffffffffffffff8
   801f8:	eb13013f 	cmp	x9, x19
   801fc:	540005c1 	b.ne	802b4 <_ZN4core5alloc6global11GlobalAlloc7realloc17h52e759c52383ddaaE+0x244>  // b.any
   80200:	8b080289 	add	x9, x20, x8
   80204:	cb0803e8 	neg	x8, x8
   80208:	f94002eb 	ldr	x11, [x23]
   8020c:	d1000529 	sub	x9, x9, #0x1
   80210:	8a080128 	and	x8, x9, x8
   80214:	5280020a 	mov	w10, #0x10                  	// #16
   80218:	f100411f 	cmp	x8, #0x10
   8021c:	9a8a8108 	csel	x8, x8, x10, hi  // hi = pmore
   80220:	a9002e68 	stp	x8, x11, [x19]
   80224:	f90002f3 	str	x19, [x23]
   80228:	14000003 	b	80234 <_ZN4core5alloc6global11GlobalAlloc7realloc17h52e759c52383ddaaE+0x1c4>
   8022c:	aa1f03f5 	mov	x21, xzr
   80230:	91004019 	add	x25, x0, #0x10
   80234:	089fff3f 	stlrb	wzr, [x25]
   80238:	aa1503e0 	mov	x0, x21
   8023c:	a9444ff4 	ldp	x20, x19, [sp, #64]
   80240:	a94357f6 	ldp	x22, x21, [sp, #48]
   80244:	a9425ff8 	ldp	x24, x23, [sp, #32]
   80248:	a94167fe 	ldp	x30, x25, [sp, #16]
   8024c:	910143ff 	add	sp, sp, #0x50
   80250:	d65f03c0 	ret
   80254:	f0000020 	adrp	x0, 87000 <anon.18d3f1f317091c7eeaf7c365eb201f34.15.llvm.3855770260100345529+0x38>
   80258:	f0000023 	adrp	x3, 87000 <anon.18d3f1f317091c7eeaf7c365eb201f34.15.llvm.3855770260100345529+0x38>
   8025c:	f0000024 	adrp	x4, 87000 <anon.18d3f1f317091c7eeaf7c365eb201f34.15.llvm.3855770260100345529+0x38>
   80260:	91120000 	add	x0, x0, #0x480
   80264:	9112c063 	add	x3, x3, #0x4b0
   80268:	9117c084 	add	x4, x4, #0x5f0
   8026c:	14000007 	b	80288 <_ZN4core5alloc6global11GlobalAlloc7realloc17h52e759c52383ddaaE+0x218>
   80270:	f0000020 	adrp	x0, 87000 <anon.18d3f1f317091c7eeaf7c365eb201f34.15.llvm.3855770260100345529+0x38>
   80274:	f0000023 	adrp	x3, 87000 <anon.18d3f1f317091c7eeaf7c365eb201f34.15.llvm.3855770260100345529+0x38>
   80278:	f0000024 	adrp	x4, 87000 <anon.18d3f1f317091c7eeaf7c365eb201f34.15.llvm.3855770260100345529+0x38>
   8027c:	91120000 	add	x0, x0, #0x480
   80280:	9112c063 	add	x3, x3, #0x4b0
   80284:	9111a084 	add	x4, x4, #0x468
   80288:	910023e2 	add	x2, sp, #0x8
   8028c:	52800561 	mov	w1, #0x2b                  	// #43
   80290:	94001601 	bl	85a94 <_ZN4core6result13unwrap_failed17h35143d59bf312088E>
   80294:	d4200020 	brk	#0x1
   80298:	f0000020 	adrp	x0, 87000 <anon.18d3f1f317091c7eeaf7c365eb201f34.15.llvm.3855770260100345529+0x38>
   8029c:	f0000022 	adrp	x2, 87000 <anon.18d3f1f317091c7eeaf7c365eb201f34.15.llvm.3855770260100345529+0x38>
   802a0:	9116c000 	add	x0, x0, #0x5b0
   802a4:	91176042 	add	x2, x2, #0x5d8
   802a8:	528004e1 	mov	w1, #0x27                  	// #39
   802ac:	9400118b 	bl	848d8 <_ZN4core9panicking5panic17h44d2e7d60b187585E>
   802b0:	d4200020 	brk	#0x1
   802b4:	f0000020 	adrp	x0, 87000 <anon.18d3f1f317091c7eeaf7c365eb201f34.15.llvm.3855770260100345529+0x38>
   802b8:	f0000022 	adrp	x2, 87000 <anon.18d3f1f317091c7eeaf7c365eb201f34.15.llvm.3855770260100345529+0x38>
   802bc:	9113a400 	add	x0, x0, #0x4e9
   802c0:	91146042 	add	x2, x2, #0x518
   802c4:	52800581 	mov	w1, #0x2c                  	// #44
   802c8:	94001184 	bl	848d8 <_ZN4core9panicking5panic17h44d2e7d60b187585E>
   802cc:	d4200020 	brk	#0x1
   802d0:	f0000020 	adrp	x0, 87000 <anon.18d3f1f317091c7eeaf7c365eb201f34.15.llvm.3855770260100345529+0x38>
   802d4:	f0000022 	adrp	x2, 87000 <anon.18d3f1f317091c7eeaf7c365eb201f34.15.llvm.3855770260100345529+0x38>
   802d8:	91158000 	add	x0, x0, #0x560
   802dc:	91166042 	add	x2, x2, #0x598
   802e0:	52800621 	mov	w1, #0x31                  	// #49
   802e4:	940011e0 	bl	84a64 <_ZN4core6option13expect_failed17h09b2ee4268b0f4e0E>
   802e8:	d4200020 	brk	#0x1
   802ec:	f0000020 	adrp	x0, 87000 <anon.18d3f1f317091c7eeaf7c365eb201f34.15.llvm.3855770260100345529+0x38>
   802f0:	f0000022 	adrp	x2, 87000 <anon.18d3f1f317091c7eeaf7c365eb201f34.15.llvm.3855770260100345529+0x38>
   802f4:	9114c000 	add	x0, x0, #0x530
   802f8:	91152042 	add	x2, x2, #0x548
   802fc:	528002e1 	mov	w1, #0x17                  	// #23
   80300:	94001176 	bl	848d8 <_ZN4core9panicking5panic17h44d2e7d60b187585E>
   80304:	d4200020 	brk	#0x1

0000000000080308 <_ZN8graph_os9allocator8ll_alloc146_$LT$impl$u20$core..alloc..global..GlobalAlloc$u20$for$u20$graph_os..sync..SpinMutex$LT$graph_os..allocator..ll_alloc..LinkedListAllocator$GT$$GT$5alloc17h06079b9cb15c8389E>:
   80308:	d10043ff 	sub	sp, sp, #0x10
   8030c:	ea02045f 	tst	x2, x2, lsl #1
   80310:	540009a1 	b.ne	80444 <_ZN8graph_os9allocator8ll_alloc146_$LT$impl$u20$core..alloc..global..GlobalAlloc$u20$for$u20$graph_os..sync..SpinMutex$LT$graph_os..allocator..ll_alloc..LinkedListAllocator$GT$$GT$5alloc17h06079b9cb15c8389E+0x13c>  // b.any
   80314:	f100205f 	cmp	x2, #0x8
   80318:	52800108 	mov	w8, #0x8                   	// #8
   8031c:	9a888048 	csel	x8, x2, x8, hi  // hi = pmore
   80320:	9e670100 	fmov	d0, x8
   80324:	0e205800 	cnt	v0.8b, v0.8b
   80328:	2e303800 	uaddlv	h0, v0.8b
   8032c:	1e26000a 	fmov	w10, s0
   80330:	cb0803e9 	neg	x9, x8
   80334:	f100055f 	cmp	x10, #0x1
   80338:	1a9f07ea 	cset	w10, ne  // ne = any
   8033c:	eb01013f 	cmp	x9, x1
   80340:	1a9f27e9 	cset	w9, cc  // cc = lo, ul, last
   80344:	2a0a0129 	orr	w9, w9, w10
   80348:	7100013f 	cmp	w9, #0x0
   8034c:	9a8813e8 	csel	x8, xzr, x8, ne  // ne = any
   80350:	35000889 	cbnz	w9, 80460 <_ZN8graph_os9allocator8ll_alloc146_$LT$impl$u20$core..alloc..global..GlobalAlloc$u20$for$u20$graph_os..sync..SpinMutex$LT$graph_os..allocator..ll_alloc..LinkedListAllocator$GT$$GT$5alloc17h06079b9cb15c8389E+0x158>
   80354:	b4000948 	cbz	x8, 8047c <_ZN8graph_os9allocator8ll_alloc146_$LT$impl$u20$core..alloc..global..GlobalAlloc$u20$for$u20$graph_os..sync..SpinMutex$LT$graph_os..allocator..ll_alloc..LinkedListAllocator$GT$$GT$5alloc17h06079b9cb15c8389E+0x174>
   80358:	9e670100 	fmov	d0, x8
   8035c:	0e205800 	cnt	v0.8b, v0.8b
   80360:	2e303800 	uaddlv	h0, v0.8b
   80364:	1e260009 	fmov	w9, s0
   80368:	f100053f 	cmp	x9, #0x1
   8036c:	54000881 	b.ne	8047c <_ZN8graph_os9allocator8ll_alloc146_$LT$impl$u20$core..alloc..global..GlobalAlloc$u20$for$u20$graph_os..sync..SpinMutex$LT$graph_os..allocator..ll_alloc..LinkedListAllocator$GT$$GT$5alloc17h06079b9cb15c8389E+0x174>  // b.any
   80370:	d100050a 	sub	x10, x8, #0x1
   80374:	aa0003e9 	mov	x9, x0
   80378:	cb0803eb 	neg	x11, x8
   8037c:	8b010148 	add	x8, x10, x1
   80380:	f8408d2c 	ldr	x12, [x9, #8]!
   80384:	8a0b0108 	and	x8, x8, x11
   80388:	f100411f 	cmp	x8, #0x10
   8038c:	5280020d 	mov	w13, #0x10                  	// #16
   80390:	9a8d810d 	csel	x13, x8, x13, hi  // hi = pmore
   80394:	b40004cc 	cbz	x12, 8042c <_ZN8graph_os9allocator8ll_alloc146_$LT$impl$u20$core..alloc..global..GlobalAlloc$u20$for$u20$graph_os..sync..SpinMutex$LT$graph_os..allocator..ll_alloc..LinkedListAllocator$GT$$GT$5alloc17h06079b9cb15c8389E+0x124>
   80398:	aa0903ec 	mov	x12, x9
   8039c:	14000004 	b	803ac <_ZN8graph_os9allocator8ll_alloc146_$LT$impl$u20$core..alloc..global..GlobalAlloc$u20$for$u20$graph_os..sync..SpinMutex$LT$graph_os..allocator..ll_alloc..LinkedListAllocator$GT$$GT$5alloc17h06079b9cb15c8389E+0xa4>
   803a0:	f8408dc8 	ldr	x8, [x14, #8]!
   803a4:	aa0e03ec 	mov	x12, x14
   803a8:	b4000448 	cbz	x8, 80430 <_ZN8graph_os9allocator8ll_alloc146_$LT$impl$u20$core..alloc..global..GlobalAlloc$u20$for$u20$graph_os..sync..SpinMutex$LT$graph_os..allocator..ll_alloc..LinkedListAllocator$GT$$GT$5alloc17h06079b9cb15c8389E+0x128>
   803ac:	f940018e 	ldr	x14, [x12]
   803b0:	f94001d0 	ldr	x16, [x14]
   803b4:	8b0e0148 	add	x8, x10, x14
   803b8:	8a0b0108 	and	x8, x8, x11
   803bc:	8b0d010f 	add	x15, x8, x13
   803c0:	8b0e0210 	add	x16, x16, x14
   803c4:	eb0f021f 	cmp	x16, x15
   803c8:	54fffec3 	b.cc	803a0 <_ZN8graph_os9allocator8ll_alloc146_$LT$impl$u20$core..alloc..global..GlobalAlloc$u20$for$u20$graph_os..sync..SpinMutex$LT$graph_os..allocator..ll_alloc..LinkedListAllocator$GT$$GT$5alloc17h06079b9cb15c8389E+0x98>  // b.lo, b.ul, b.last
   803cc:	aa2f03f1 	mvn	x17, x15
   803d0:	8b110210 	add	x16, x16, x17
   803d4:	f1003e1f 	cmp	x16, #0xf
   803d8:	54fffe43 	b.cc	803a0 <_ZN8graph_os9allocator8ll_alloc146_$LT$impl$u20$core..alloc..global..GlobalAlloc$u20$for$u20$graph_os..sync..SpinMutex$LT$graph_os..allocator..ll_alloc..LinkedListAllocator$GT$$GT$5alloc17h06079b9cb15c8389E+0x98>  // b.lo, b.ul, b.last
   803dc:	f94005ca 	ldr	x10, [x14, #8]
   803e0:	f90005df 	str	xzr, [x14, #8]
   803e4:	f940018b 	ldr	x11, [x12]
   803e8:	f900019f 	str	xzr, [x12]
   803ec:	b40005cb 	cbz	x11, 804a4 <_ZN8graph_os9allocator8ll_alloc146_$LT$impl$u20$core..alloc..global..GlobalAlloc$u20$for$u20$graph_os..sync..SpinMutex$LT$graph_os..allocator..ll_alloc..LinkedListAllocator$GT$$GT$5alloc17h06079b9cb15c8389E+0x19c>
   803f0:	f900018a 	str	x10, [x12]
   803f4:	f940016a 	ldr	x10, [x11]
   803f8:	8b0b014a 	add	x10, x10, x11
   803fc:	eb0f014b 	subs	x11, x10, x15
   80400:	54000180 	b.eq	80430 <_ZN8graph_os9allocator8ll_alloc146_$LT$impl$u20$core..alloc..global..GlobalAlloc$u20$for$u20$graph_os..sync..SpinMutex$LT$graph_os..allocator..ll_alloc..LinkedListAllocator$GT$$GT$5alloc17h06079b9cb15c8389E+0x128>  // b.none
   80404:	91001d4c 	add	x12, x10, #0x7
   80408:	927df18c 	and	x12, x12, #0xfffffffffffffff8
   8040c:	eb0a019f 	cmp	x12, x10
   80410:	54000581 	b.ne	804c0 <_ZN8graph_os9allocator8ll_alloc146_$LT$impl$u20$core..alloc..global..GlobalAlloc$u20$for$u20$graph_os..sync..SpinMutex$LT$graph_os..allocator..ll_alloc..LinkedListAllocator$GT$$GT$5alloc17h06079b9cb15c8389E+0x1b8>  // b.any
   80414:	f100417f 	cmp	x11, #0x10
   80418:	54000623 	b.cc	804dc <_ZN8graph_os9allocator8ll_alloc146_$LT$impl$u20$core..alloc..global..GlobalAlloc$u20$for$u20$graph_os..sync..SpinMutex$LT$graph_os..allocator..ll_alloc..LinkedListAllocator$GT$$GT$5alloc17h06079b9cb15c8389E+0x1d4>  // b.lo, b.ul, b.last
   8041c:	f940012c 	ldr	x12, [x9]
   80420:	a900314b 	stp	x11, x12, [x10]
   80424:	f900012a 	str	x10, [x9]
   80428:	14000002 	b	80430 <_ZN8graph_os9allocator8ll_alloc146_$LT$impl$u20$core..alloc..global..GlobalAlloc$u20$for$u20$graph_os..sync..SpinMutex$LT$graph_os..allocator..ll_alloc..LinkedListAllocator$GT$$GT$5alloc17h06079b9cb15c8389E+0x128>
   8042c:	aa1f03e8 	mov	x8, xzr
   80430:	91004009 	add	x9, x0, #0x10
   80434:	089ffd3f 	stlrb	wzr, [x9]
   80438:	aa0803e0 	mov	x0, x8
   8043c:	910043ff 	add	sp, sp, #0x10
   80440:	d65f03c0 	ret
   80444:	f0000020 	adrp	x0, 87000 <anon.18d3f1f317091c7eeaf7c365eb201f34.15.llvm.3855770260100345529+0x38>
   80448:	f0000022 	adrp	x2, 87000 <anon.18d3f1f317091c7eeaf7c365eb201f34.15.llvm.3855770260100345529+0x38>
   8044c:	9116c000 	add	x0, x0, #0x5b0
   80450:	91176042 	add	x2, x2, #0x5d8
   80454:	528004e1 	mov	w1, #0x27                  	// #39
   80458:	94001120 	bl	848d8 <_ZN4core9panicking5panic17h44d2e7d60b187585E>
   8045c:	d4200020 	brk	#0x1
   80460:	f0000020 	adrp	x0, 87000 <anon.18d3f1f317091c7eeaf7c365eb201f34.15.llvm.3855770260100345529+0x38>
   80464:	f0000023 	adrp	x3, 87000 <anon.18d3f1f317091c7eeaf7c365eb201f34.15.llvm.3855770260100345529+0x38>
   80468:	f0000024 	adrp	x4, 87000 <anon.18d3f1f317091c7eeaf7c365eb201f34.15.llvm.3855770260100345529+0x38>
   8046c:	91120000 	add	x0, x0, #0x480
   80470:	9112c063 	add	x3, x3, #0x4b0
   80474:	9117c084 	add	x4, x4, #0x5f0
   80478:	14000007 	b	80494 <_ZN8graph_os9allocator8ll_alloc146_$LT$impl$u20$core..alloc..global..GlobalAlloc$u20$for$u20$graph_os..sync..SpinMutex$LT$graph_os..allocator..ll_alloc..LinkedListAllocator$GT$$GT$5alloc17h06079b9cb15c8389E+0x18c>
   8047c:	f0000020 	adrp	x0, 87000 <anon.18d3f1f317091c7eeaf7c365eb201f34.15.llvm.3855770260100345529+0x38>
   80480:	f0000023 	adrp	x3, 87000 <anon.18d3f1f317091c7eeaf7c365eb201f34.15.llvm.3855770260100345529+0x38>
   80484:	f0000024 	adrp	x4, 87000 <anon.18d3f1f317091c7eeaf7c365eb201f34.15.llvm.3855770260100345529+0x38>
   80488:	91120000 	add	x0, x0, #0x480
   8048c:	9112c063 	add	x3, x3, #0x4b0
   80490:	9111a084 	add	x4, x4, #0x468
   80494:	910023e2 	add	x2, sp, #0x8
   80498:	52800561 	mov	w1, #0x2b                  	// #43
   8049c:	9400157e 	bl	85a94 <_ZN4core6result13unwrap_failed17h35143d59bf312088E>
   804a0:	d4200020 	brk	#0x1
   804a4:	f0000020 	adrp	x0, 87000 <anon.18d3f1f317091c7eeaf7c365eb201f34.15.llvm.3855770260100345529+0x38>
   804a8:	f0000022 	adrp	x2, 87000 <anon.18d3f1f317091c7eeaf7c365eb201f34.15.llvm.3855770260100345529+0x38>
   804ac:	91158000 	add	x0, x0, #0x560
   804b0:	91166042 	add	x2, x2, #0x598
   804b4:	52800621 	mov	w1, #0x31                  	// #49
   804b8:	9400116b 	bl	84a64 <_ZN4core6option13expect_failed17h09b2ee4268b0f4e0E>
   804bc:	d4200020 	brk	#0x1
   804c0:	f0000020 	adrp	x0, 87000 <anon.18d3f1f317091c7eeaf7c365eb201f34.15.llvm.3855770260100345529+0x38>
   804c4:	f0000022 	adrp	x2, 87000 <anon.18d3f1f317091c7eeaf7c365eb201f34.15.llvm.3855770260100345529+0x38>
   804c8:	9113a400 	add	x0, x0, #0x4e9
   804cc:	91146042 	add	x2, x2, #0x518
   804d0:	52800581 	mov	w1, #0x2c                  	// #44
   804d4:	94001101 	bl	848d8 <_ZN4core9panicking5panic17h44d2e7d60b187585E>
   804d8:	d4200020 	brk	#0x1
   804dc:	f0000020 	adrp	x0, 87000 <anon.18d3f1f317091c7eeaf7c365eb201f34.15.llvm.3855770260100345529+0x38>
   804e0:	f0000022 	adrp	x2, 87000 <anon.18d3f1f317091c7eeaf7c365eb201f34.15.llvm.3855770260100345529+0x38>
   804e4:	9114c000 	add	x0, x0, #0x530
   804e8:	91152042 	add	x2, x2, #0x548
   804ec:	528002e1 	mov	w1, #0x17                  	// #23
   804f0:	940010fa 	bl	848d8 <_ZN4core9panicking5panic17h44d2e7d60b187585E>
   804f4:	d4200020 	brk	#0x1

00000000000804f8 <_ZN8graph_os9allocator8ll_alloc130_$LT$impl$u20$core..fmt..Debug$u20$for$u20$graph_os..sync..SpinMutex$LT$graph_os..allocator..ll_alloc..LinkedListAllocator$GT$$GT$3fmt17hb311942ff2cbab42E>:
   804f8:	d100c3ff 	sub	sp, sp, #0x30
   804fc:	aa0103e8 	mov	x8, x1
   80500:	f0000021 	adrp	x1, 87000 <anon.18d3f1f317091c7eeaf7c365eb201f34.15.llvm.3855770260100345529+0x38>
   80504:	a9024ff4 	stp	x20, x19, [sp, #32]
   80508:	aa0003f3 	mov	x19, x0
   8050c:	91004014 	add	x20, x0, #0x10
   80510:	91182021 	add	x1, x1, #0x608
   80514:	52800262 	mov	w2, #0x13                  	// #19
   80518:	aa0803e0 	mov	x0, x8
   8051c:	f9000bfe 	str	x30, [sp, #16]
   80520:	940017f9 	bl	86504 <_ZN4core3fmt9Formatter12debug_struct17ha099bc2c3542888fE>
   80524:	a90007e0 	stp	x0, x1, [sp]
   80528:	f0000021 	adrp	x1, 87000 <anon.18d3f1f317091c7eeaf7c365eb201f34.15.llvm.3855770260100345529+0x38>
   8052c:	f0000024 	adrp	x4, 87000 <anon.18d3f1f317091c7eeaf7c365eb201f34.15.llvm.3855770260100345529+0x38>
   80530:	91186c21 	add	x1, x1, #0x61b
   80534:	9118a084 	add	x4, x4, #0x628
   80538:	910003e0 	mov	x0, sp
   8053c:	910063e3 	add	x3, sp, #0x18
   80540:	52800122 	mov	w2, #0x9                   	// #9
   80544:	f9000ff3 	str	x19, [sp, #24]
   80548:	94000f05 	bl	8415c <_ZN4core3fmt8builders11DebugStruct5field17h9e0dae53a1c9bd69E>
   8054c:	910003e0 	mov	x0, sp
   80550:	94000f75 	bl	84324 <_ZN4core3fmt8builders11DebugStruct6finish17h3a651c6e351ea651E>
   80554:	089ffe9f 	stlrb	wzr, [x20]
   80558:	a9424ff4 	ldp	x20, x19, [sp, #32]
   8055c:	f9400bfe 	ldr	x30, [sp, #16]
   80560:	9100c3ff 	add	sp, sp, #0x30
   80564:	d65f03c0 	ret

0000000000080568 <_ZN5alloc7raw_vec11finish_grow17he35bb291f28d2272E.llvm.14040735349130575523>:
   80568:	f81d0ffe 	str	x30, [sp, #-48]!
   8056c:	f100005f 	cmp	x2, #0x0
   80570:	a90157f6 	stp	x22, x21, [sp, #16]
   80574:	a9024ff4 	stp	x20, x19, [sp, #32]
   80578:	aa0203f4 	mov	x20, x2
   8057c:	aa0003f3 	mov	x19, x0
   80580:	9a8103f6 	csel	x22, xzr, x1, eq  // eq = none
   80584:	b4000202 	cbz	x2, 805c4 <_ZN5alloc7raw_vec11finish_grow17he35bb291f28d2272E.llvm.14040735349130575523+0x5c>
   80588:	f9400060 	ldr	x0, [x3]
   8058c:	aa0103f5 	mov	x21, x1
   80590:	b4000100 	cbz	x0, 805b0 <_ZN5alloc7raw_vec11finish_grow17he35bb291f28d2272E.llvm.14040735349130575523+0x48>
   80594:	f9400461 	ldr	x1, [x3, #8]
   80598:	b40000c1 	cbz	x1, 805b0 <_ZN5alloc7raw_vec11finish_grow17he35bb291f28d2272E.llvm.14040735349130575523+0x48>
   8059c:	aa1403e2 	mov	x2, x20
   805a0:	aa1603e3 	mov	x3, x22
   805a4:	94000d81 	bl	83ba8 <__rust_realloc>
   805a8:	b5000180 	cbnz	x0, 805d8 <_ZN5alloc7raw_vec11finish_grow17he35bb291f28d2272E.llvm.14040735349130575523+0x70>
   805ac:	14000006 	b	805c4 <_ZN5alloc7raw_vec11finish_grow17he35bb291f28d2272E.llvm.14040735349130575523+0x5c>
   805b0:	b4000116 	cbz	x22, 805d0 <_ZN5alloc7raw_vec11finish_grow17he35bb291f28d2272E.llvm.14040735349130575523+0x68>
   805b4:	aa1603e0 	mov	x0, x22
   805b8:	aa1403e1 	mov	x1, x20
   805bc:	94000d7a 	bl	83ba4 <__rust_alloc>
   805c0:	b50000c0 	cbnz	x0, 805d8 <_ZN5alloc7raw_vec11finish_grow17he35bb291f28d2272E.llvm.14040735349130575523+0x70>
   805c4:	52800028 	mov	w8, #0x1                   	// #1
   805c8:	f9000676 	str	x22, [x19, #8]
   805cc:	14000006 	b	805e4 <_ZN5alloc7raw_vec11finish_grow17he35bb291f28d2272E.llvm.14040735349130575523+0x7c>
   805d0:	aa1f03f5 	mov	x21, xzr
   805d4:	aa1403e0 	mov	x0, x20
   805d8:	aa1f03e8 	mov	x8, xzr
   805dc:	f9000660 	str	x0, [x19, #8]
   805e0:	aa1503f4 	mov	x20, x21
   805e4:	f9000a74 	str	x20, [x19, #16]
   805e8:	f9000268 	str	x8, [x19]
   805ec:	a9424ff4 	ldp	x20, x19, [sp, #32]
   805f0:	a94157f6 	ldp	x22, x21, [sp, #16]
   805f4:	f84307fe 	ldr	x30, [sp], #48
   805f8:	d65f03c0 	ret

00000000000805fc <_ZN5alloc7raw_vec19RawVec$LT$T$C$A$GT$7reserve21do_reserve_and_handle17hceaf2668c4fffe86E>:
   805fc:	d10103ff 	sub	sp, sp, #0x40
   80600:	ab020029 	adds	x9, x1, x2
   80604:	a9034ffe 	stp	x30, x19, [sp, #48]
   80608:	54000542 	b.cs	806b0 <_ZN5alloc7raw_vec19RawVec$LT$T$C$A$GT$7reserve21do_reserve_and_handle17hceaf2668c4fffe86E+0xb4>  // b.hs, b.nlast
   8060c:	f9400408 	ldr	x8, [x0, #8]
   80610:	5280008a 	mov	w10, #0x4                   	// #4
   80614:	5280050b 	mov	w11, #0x28                  	// #40
   80618:	5280010c 	mov	w12, #0x8                   	// #8
   8061c:	d37ff90d 	lsl	x13, x8, #1
   80620:	eb0901bf 	cmp	x13, x9
   80624:	9a8981a9 	csel	x9, x13, x9, hi  // hi = pmore
   80628:	f100113f 	cmp	x9, #0x4
   8062c:	9a8a8129 	csel	x9, x9, x10, hi  // hi = pmore
   80630:	8b09092a 	add	x10, x9, x9, lsl #2
   80634:	9bcb7d29 	umulh	x9, x9, x11
   80638:	d37df14a 	lsl	x10, x10, #3
   8063c:	eb0903ff 	cmp	xzr, x9
   80640:	aa0003f3 	mov	x19, x0
   80644:	9a8c13e2 	csel	x2, xzr, x12, ne  // ne = any
   80648:	9a8a13e1 	csel	x1, xzr, x10, ne  // ne = any
   8064c:	b4000108 	cbz	x8, 8066c <_ZN5alloc7raw_vec19RawVec$LT$T$C$A$GT$7reserve21do_reserve_and_handle17hceaf2668c4fffe86E+0x70>
   80650:	f9400269 	ldr	x9, [x19]
   80654:	8b080908 	add	x8, x8, x8, lsl #2
   80658:	5280010a 	mov	w10, #0x8                   	// #8
   8065c:	d37df108 	lsl	x8, x8, #3
   80660:	a901a3e9 	stp	x9, x8, [sp, #24]
   80664:	f90017ea 	str	x10, [sp, #40]
   80668:	14000003 	b	80674 <_ZN5alloc7raw_vec19RawVec$LT$T$C$A$GT$7reserve21do_reserve_and_handle17hceaf2668c4fffe86E+0x78>
   8066c:	a9027fff 	stp	xzr, xzr, [sp, #32]
   80670:	f9000fff 	str	xzr, [sp, #24]
   80674:	910003e0 	mov	x0, sp
   80678:	910063e3 	add	x3, sp, #0x18
   8067c:	97ffffbb 	bl	80568 <_ZN5alloc7raw_vec11finish_grow17he35bb291f28d2272E.llvm.14040735349130575523>
   80680:	f94003e8 	ldr	x8, [sp]
   80684:	f100051f 	cmp	x8, #0x1
   80688:	540001a0 	b.eq	806bc <_ZN5alloc7raw_vec19RawVec$LT$T$C$A$GT$7reserve21do_reserve_and_handle17hceaf2668c4fffe86E+0xc0>  // b.none
   8068c:	a940a3e9 	ldp	x9, x8, [sp, #8]
   80690:	b202e7ea 	mov	x10, #0xcccccccccccccccc    	// #-3689348814741910324
   80694:	f29999aa 	movk	x10, #0xcccd
   80698:	9bca7d08 	umulh	x8, x8, x10
   8069c:	d345fd08 	lsr	x8, x8, #5
   806a0:	a9002269 	stp	x9, x8, [x19]
   806a4:	a9434ffe 	ldp	x30, x19, [sp, #48]
   806a8:	910103ff 	add	sp, sp, #0x40
   806ac:	d65f03c0 	ret
   806b0:	aa1f03e0 	mov	x0, xzr
   806b4:	aa1f03e1 	mov	x1, xzr
   806b8:	14000002 	b	806c0 <_ZN5alloc7raw_vec19RawVec$LT$T$C$A$GT$7reserve21do_reserve_and_handle17hceaf2668c4fffe86E+0xc4>
   806bc:	a94087e0 	ldp	x0, x1, [sp, #8]
   806c0:	b5000061 	cbnz	x1, 806cc <_ZN5alloc7raw_vec19RawVec$LT$T$C$A$GT$7reserve21do_reserve_and_handle17hceaf2668c4fffe86E+0xd0>
   806c4:	94000d3b 	bl	83bb0 <_ZN5alloc7raw_vec17capacity_overflow17h82225545098ac3bcE>
   806c8:	d4200020 	brk	#0x1
   806cc:	94000d40 	bl	83bcc <_ZN5alloc5alloc18handle_alloc_error17h20eef72fc6ff40f7E>
   806d0:	d4200020 	brk	#0x1

00000000000806d4 <_ZN5alloc7raw_vec19RawVec$LT$T$C$A$GT$7reserve21do_reserve_and_handle17hd732b3eb16c04cb9E>:
   806d4:	d10103ff 	sub	sp, sp, #0x40
   806d8:	ab020029 	adds	x9, x1, x2
   806dc:	a9034ffe 	stp	x30, x19, [sp, #48]
   806e0:	54000542 	b.cs	80788 <_ZN5alloc7raw_vec19RawVec$LT$T$C$A$GT$7reserve21do_reserve_and_handle17hd732b3eb16c04cb9E+0xb4>  // b.hs, b.nlast
   806e4:	f9400408 	ldr	x8, [x0, #8]
   806e8:	5280008a 	mov	w10, #0x4                   	// #4
   806ec:	5280030b 	mov	w11, #0x18                  	// #24
   806f0:	5280010c 	mov	w12, #0x8                   	// #8
   806f4:	d37ff90d 	lsl	x13, x8, #1
   806f8:	eb0901bf 	cmp	x13, x9
   806fc:	9a8981a9 	csel	x9, x13, x9, hi  // hi = pmore
   80700:	f100113f 	cmp	x9, #0x4
   80704:	9a8a8129 	csel	x9, x9, x10, hi  // hi = pmore
   80708:	8b09052a 	add	x10, x9, x9, lsl #1
   8070c:	9bcb7d29 	umulh	x9, x9, x11
   80710:	d37df14a 	lsl	x10, x10, #3
   80714:	eb0903ff 	cmp	xzr, x9
   80718:	aa0003f3 	mov	x19, x0
   8071c:	9a8c13e2 	csel	x2, xzr, x12, ne  // ne = any
   80720:	9a8a13e1 	csel	x1, xzr, x10, ne  // ne = any
   80724:	b4000108 	cbz	x8, 80744 <_ZN5alloc7raw_vec19RawVec$LT$T$C$A$GT$7reserve21do_reserve_and_handle17hd732b3eb16c04cb9E+0x70>
   80728:	f9400269 	ldr	x9, [x19]
   8072c:	8b080508 	add	x8, x8, x8, lsl #1
   80730:	5280010a 	mov	w10, #0x8                   	// #8
   80734:	d37df108 	lsl	x8, x8, #3
   80738:	a901a3e9 	stp	x9, x8, [sp, #24]
   8073c:	f90017ea 	str	x10, [sp, #40]
   80740:	14000003 	b	8074c <_ZN5alloc7raw_vec19RawVec$LT$T$C$A$GT$7reserve21do_reserve_and_handle17hd732b3eb16c04cb9E+0x78>
   80744:	a9027fff 	stp	xzr, xzr, [sp, #32]
   80748:	f9000fff 	str	xzr, [sp, #24]
   8074c:	910003e0 	mov	x0, sp
   80750:	910063e3 	add	x3, sp, #0x18
   80754:	97ffff85 	bl	80568 <_ZN5alloc7raw_vec11finish_grow17he35bb291f28d2272E.llvm.14040735349130575523>
   80758:	f94003e8 	ldr	x8, [sp]
   8075c:	f100051f 	cmp	x8, #0x1
   80760:	540001a0 	b.eq	80794 <_ZN5alloc7raw_vec19RawVec$LT$T$C$A$GT$7reserve21do_reserve_and_handle17hd732b3eb16c04cb9E+0xc0>  // b.none
   80764:	a940a3e9 	ldp	x9, x8, [sp, #8]
   80768:	b201f3ea 	mov	x10, #0xaaaaaaaaaaaaaaaa    	// #-6148914691236517206
   8076c:	f295556a 	movk	x10, #0xaaab
   80770:	9bca7d08 	umulh	x8, x8, x10
   80774:	d344fd08 	lsr	x8, x8, #4
   80778:	a9002269 	stp	x9, x8, [x19]
   8077c:	a9434ffe 	ldp	x30, x19, [sp, #48]
   80780:	910103ff 	add	sp, sp, #0x40
   80784:	d65f03c0 	ret
   80788:	aa1f03e0 	mov	x0, xzr
   8078c:	aa1f03e1 	mov	x1, xzr
   80790:	14000002 	b	80798 <_ZN5alloc7raw_vec19RawVec$LT$T$C$A$GT$7reserve21do_reserve_and_handle17hd732b3eb16c04cb9E+0xc4>
   80794:	a94087e0 	ldp	x0, x1, [sp, #8]
   80798:	b5000061 	cbnz	x1, 807a4 <_ZN5alloc7raw_vec19RawVec$LT$T$C$A$GT$7reserve21do_reserve_and_handle17hd732b3eb16c04cb9E+0xd0>
   8079c:	94000d05 	bl	83bb0 <_ZN5alloc7raw_vec17capacity_overflow17h82225545098ac3bcE>
   807a0:	d4200020 	brk	#0x1
   807a4:	94000d0a 	bl	83bcc <_ZN5alloc5alloc18handle_alloc_error17h20eef72fc6ff40f7E>
   807a8:	d4200020 	brk	#0x1

00000000000807ac <_ZN8graph_os8platform6raspi37mailbox17MailboxController4call17h9f8a6ea04da63d2fE>:
   807ac:	f9400008 	ldr	x8, [x0]
   807b0:	529712ea 	mov	w10, #0xb897                	// #47255
   807b4:	f9400509 	ldr	x9, [x8, #8]
   807b8:	eb0a013f 	cmp	x9, x10
   807bc:	540004c9 	b.ls	80854 <_ZN8graph_os8platform6raspi37mailbox17MailboxController4call17h9f8a6ea04da63d2fE+0xa8>  // b.plast
   807c0:	f940010a 	ldr	x10, [x8]
   807c4:	5297130b 	mov	w11, #0xb898                	// #47256
   807c8:	b86b694b 	ldr	w11, [x10, x11]
   807cc:	36f8014b 	tbz	w11, #31, 807f4 <_ZN8graph_os8platform6raspi37mailbox17MailboxController4call17h9f8a6ea04da63d2fE+0x48>
   807d0:	529712eb 	mov	w11, #0xb897                	// #47255
   807d4:	5297130c 	mov	w12, #0xb898                	// #47256
   807d8:	d503201f 	nop
   807dc:	f9400509 	ldr	x9, [x8, #8]
   807e0:	eb0b013f 	cmp	x9, x11
   807e4:	54000389 	b.ls	80854 <_ZN8graph_os8platform6raspi37mailbox17MailboxController4call17h9f8a6ea04da63d2fE+0xa8>  // b.plast
   807e8:	f940010a 	ldr	x10, [x8]
   807ec:	b86c694d 	ldr	w13, [x10, x12]
   807f0:	37ffff4d 	tbnz	w13, #31, 807d8 <_ZN8graph_os8platform6raspi37mailbox17MailboxController4call17h9f8a6ea04da63d2fE+0x2c>
   807f4:	d345fd29 	lsr	x9, x9, #5
   807f8:	f117113f 	cmp	x9, #0x5c4
   807fc:	540003a9 	b.ls	80870 <_ZN8graph_os8platform6raspi37mailbox17MailboxController4call17h9f8a6ea04da63d2fE+0xc4>  // b.plast
   80800:	12001c49 	and	w9, w2, #0xff
   80804:	2a01012b 	orr	w11, w9, w1
   80808:	5297140c 	mov	w12, #0xb8a0                	// #47264
   8080c:	b82c694b 	str	w11, [x10, x12]
   80810:	f940050b 	ldr	x11, [x8, #8]
   80814:	529712ea 	mov	w10, #0xb897                	// #47255
   80818:	5297130c 	mov	w12, #0xb898                	// #47256
   8081c:	5297100d 	mov	w13, #0xb880                	// #47232
   80820:	14000003 	b	8082c <_ZN8graph_os8platform6raspi37mailbox17MailboxController4call17h9f8a6ea04da63d2fE+0x80>
   80824:	d503201f 	nop
   80828:	f940050b 	ldr	x11, [x8, #8]
   8082c:	eb0a017f 	cmp	x11, x10
   80830:	54000129 	b.ls	80854 <_ZN8graph_os8platform6raspi37mailbox17MailboxController4call17h9f8a6ea04da63d2fE+0xa8>  // b.plast
   80834:	f940010e 	ldr	x14, [x8]
   80838:	b86c69cf 	ldr	w15, [x14, x12]
   8083c:	37f7ff4f 	tbnz	w15, #30, 80824 <_ZN8graph_os8platform6raspi37mailbox17MailboxController4call17h9f8a6ea04da63d2fE+0x78>
   80840:	b86d69c0 	ldr	w0, [x14, x13]
   80844:	12000c0e 	and	w14, w0, #0xf
   80848:	6b0901df 	cmp	w14, w9
   8084c:	54ffff01 	b.ne	8082c <_ZN8graph_os8platform6raspi37mailbox17MailboxController4call17h9f8a6ea04da63d2fE+0x80>  // b.any
   80850:	d65f03c0 	ret
   80854:	f0000020 	adrp	x0, 87000 <anon.18d3f1f317091c7eeaf7c365eb201f34.15.llvm.3855770260100345529+0x38>
   80858:	f0000022 	adrp	x2, 87000 <anon.18d3f1f317091c7eeaf7c365eb201f34.15.llvm.3855770260100345529+0x38>
   8085c:	910b6000 	add	x0, x0, #0x2d8
   80860:	910c0042 	add	x2, x2, #0x300
   80864:	528004a1 	mov	w1, #0x25                  	// #37
   80868:	9400101c 	bl	848d8 <_ZN4core9panicking5panic17h44d2e7d60b187585E>
   8086c:	d4200020 	brk	#0x1
   80870:	f0000020 	adrp	x0, 87000 <anon.18d3f1f317091c7eeaf7c365eb201f34.15.llvm.3855770260100345529+0x38>
   80874:	f0000022 	adrp	x2, 87000 <anon.18d3f1f317091c7eeaf7c365eb201f34.15.llvm.3855770260100345529+0x38>
   80878:	910a0000 	add	x0, x0, #0x280
   8087c:	910b0042 	add	x2, x2, #0x2c0
   80880:	52800481 	mov	w1, #0x24                  	// #36
   80884:	94001015 	bl	848d8 <_ZN4core9panicking5panic17h44d2e7d60b187585E>
   80888:	d4200020 	brk	#0x1

000000000008088c <_ZN42_$LT$$RF$T$u20$as$u20$core..fmt..Debug$GT$3fmt17h560af57ec1d29d9bE>:
   8088c:	f81e0ffe 	str	x30, [sp, #-32]!
   80890:	a9014ff4 	stp	x20, x19, [sp, #16]
   80894:	f9400014 	ldr	x20, [x0]
   80898:	aa0103e0 	mov	x0, x1
   8089c:	aa0103f3 	mov	x19, x1
   808a0:	94001713 	bl	864ec <_ZN4core3fmt9Formatter15debug_lower_hex17he895c92ce3e1e3eeE>
   808a4:	360000c0 	tbz	w0, #0, 808bc <_ZN42_$LT$$RF$T$u20$as$u20$core..fmt..Debug$GT$3fmt17h560af57ec1d29d9bE+0x30>
   808a8:	aa1403e0 	mov	x0, x20
   808ac:	aa1303e1 	mov	x1, x19
   808b0:	a9414ff4 	ldp	x20, x19, [sp, #16]
   808b4:	f84207fe 	ldr	x30, [sp], #32
   808b8:	14000d17 	b	83d14 <_ZN4core3fmt3num53_$LT$impl$u20$core..fmt..LowerHex$u20$for$u20$i64$GT$3fmt17h8d38a0da9c376211E>
   808bc:	aa1303e0 	mov	x0, x19
   808c0:	9400170e 	bl	864f8 <_ZN4core3fmt9Formatter15debug_upper_hex17h9a3cde1d80970c0eE>
   808c4:	360000c0 	tbz	w0, #0, 808dc <_ZN42_$LT$$RF$T$u20$as$u20$core..fmt..Debug$GT$3fmt17h560af57ec1d29d9bE+0x50>
   808c8:	aa1403e0 	mov	x0, x20
   808cc:	aa1303e1 	mov	x1, x19
   808d0:	a9414ff4 	ldp	x20, x19, [sp, #16]
   808d4:	f84207fe 	ldr	x30, [sp], #32
   808d8:	14000d36 	b	83db0 <_ZN4core3fmt3num53_$LT$impl$u20$core..fmt..UpperHex$u20$for$u20$i64$GT$3fmt17h5161d9ab944c0ce5E>
   808dc:	aa1403e0 	mov	x0, x20
   808e0:	aa1303e1 	mov	x1, x19
   808e4:	a9414ff4 	ldp	x20, x19, [sp, #16]
   808e8:	f84207fe 	ldr	x30, [sp], #32
   808ec:	1400125d 	b	85260 <_ZN4core3fmt3num3imp52_$LT$impl$u20$core..fmt..Display$u20$for$u20$u64$GT$3fmt17h8e7a718507ff4d5eE>

00000000000808f0 <_ZN42_$LT$$RF$T$u20$as$u20$core..fmt..Debug$GT$3fmt17hbe18cf0b1a206cf5E>:
   808f0:	f81e0ffe 	str	x30, [sp, #-32]!
   808f4:	a9014ff4 	stp	x20, x19, [sp, #16]
   808f8:	f9400014 	ldr	x20, [x0]
   808fc:	aa0103e0 	mov	x0, x1
   80900:	aa0103f3 	mov	x19, x1
   80904:	940016fa 	bl	864ec <_ZN4core3fmt9Formatter15debug_lower_hex17he895c92ce3e1e3eeE>
   80908:	360000c0 	tbz	w0, #0, 80920 <_ZN42_$LT$$RF$T$u20$as$u20$core..fmt..Debug$GT$3fmt17hbe18cf0b1a206cf5E+0x30>
   8090c:	aa1403e0 	mov	x0, x20
   80910:	aa1303e1 	mov	x1, x19
   80914:	a9414ff4 	ldp	x20, x19, [sp, #16]
   80918:	f84207fe 	ldr	x30, [sp], #32
   8091c:	14000cb0 	b	83bdc <_ZN4core3fmt3num53_$LT$impl$u20$core..fmt..LowerHex$u20$for$u20$i32$GT$3fmt17h05a74205f36ced35E>
   80920:	aa1303e0 	mov	x0, x19
   80924:	940016f5 	bl	864f8 <_ZN4core3fmt9Formatter15debug_upper_hex17h9a3cde1d80970c0eE>
   80928:	360000c0 	tbz	w0, #0, 80940 <_ZN42_$LT$$RF$T$u20$as$u20$core..fmt..Debug$GT$3fmt17hbe18cf0b1a206cf5E+0x50>
   8092c:	aa1403e0 	mov	x0, x20
   80930:	aa1303e1 	mov	x1, x19
   80934:	a9414ff4 	ldp	x20, x19, [sp, #16]
   80938:	f84207fe 	ldr	x30, [sp], #32
   8093c:	14000ccf 	b	83c78 <_ZN4core3fmt3num53_$LT$impl$u20$core..fmt..UpperHex$u20$for$u20$i32$GT$3fmt17haeba2713e0d468adE>
   80940:	aa1403e0 	mov	x0, x20
   80944:	aa1303e1 	mov	x1, x19
   80948:	a9414ff4 	ldp	x20, x19, [sp, #16]
   8094c:	f84207fe 	ldr	x30, [sp], #32
   80950:	140011e6 	b	850e8 <_ZN4core3fmt3num3imp52_$LT$impl$u20$core..fmt..Display$u20$for$u20$u32$GT$3fmt17hec05b80591ab5f4eE>

0000000000080954 <_ZN44_$LT$$RF$T$u20$as$u20$core..fmt..Display$GT$3fmt17h36732e8673239d4fE>:
   80954:	a9402408 	ldp	x8, x9, [x0]
   80958:	aa0103e2 	mov	x2, x1
   8095c:	aa0803e0 	mov	x0, x8
   80960:	aa0903e1 	mov	x1, x9
   80964:	14001702 	b	8656c <_ZN42_$LT$str$u20$as$u20$core..fmt..Display$GT$3fmt17h5f2a536c1cace94aE>

0000000000080968 <__rg_alloc>:
   80968:	90000048 	adrp	x8, 88000 <anon.57ef2e3c02ffeaf529e6c598bd0b036c.16.llvm.5445877691761700591+0x10e>
   8096c:	912dc108 	add	x8, x8, #0xb70
   80970:	aa0103e2 	mov	x2, x1
   80974:	aa0003e1 	mov	x1, x0
   80978:	aa0803e0 	mov	x0, x8
   8097c:	17fffe63 	b	80308 <_ZN8graph_os9allocator8ll_alloc146_$LT$impl$u20$core..alloc..global..GlobalAlloc$u20$for$u20$graph_os..sync..SpinMutex$LT$graph_os..allocator..ll_alloc..LinkedListAllocator$GT$$GT$5alloc17h06079b9cb15c8389E>

0000000000080980 <__rg_realloc>:
   80980:	90000048 	adrp	x8, 88000 <anon.57ef2e3c02ffeaf529e6c598bd0b036c.16.llvm.5445877691761700591+0x10e>
   80984:	912dc108 	add	x8, x8, #0xb70
   80988:	aa0303e4 	mov	x4, x3
   8098c:	aa0203e3 	mov	x3, x2
   80990:	aa0103e2 	mov	x2, x1
   80994:	aa0003e1 	mov	x1, x0
   80998:	aa0803e0 	mov	x0, x8
   8099c:	17fffdb5 	b	80070 <_ZN4core5alloc6global11GlobalAlloc7realloc17h52e759c52383ddaaE>

00000000000809a0 <_ZN42_$LT$$RF$T$u20$as$u20$core..fmt..Debug$GT$3fmt17hf4b8c12b0895033aE>:
   809a0:	d100c3ff 	sub	sp, sp, #0x30
   809a4:	a9024ffe 	stp	x30, x19, [sp, #32]
   809a8:	f9400013 	ldr	x19, [x0]
   809ac:	aa0103e0 	mov	x0, x1
   809b0:	f9400268 	ldr	x8, [x19]
   809b4:	b40001a8 	cbz	x8, 809e8 <_ZN42_$LT$$RF$T$u20$as$u20$core..fmt..Debug$GT$3fmt17hf4b8c12b0895033aE+0x48>
   809b8:	f0000021 	adrp	x1, 87000 <anon.18d3f1f317091c7eeaf7c365eb201f34.15.llvm.3855770260100345529+0x38>
   809bc:	910c6021 	add	x1, x1, #0x318
   809c0:	910003e8 	mov	x8, sp
   809c4:	52800082 	mov	w2, #0x4                   	// #4
   809c8:	940016d9 	bl	8652c <_ZN4core3fmt9Formatter11debug_tuple17h13fb0cff51b5c17aE>
   809cc:	f0000022 	adrp	x2, 87000 <anon.18d3f1f317091c7eeaf7c365eb201f34.15.llvm.3855770260100345529+0x38>
   809d0:	910c8042 	add	x2, x2, #0x320
   809d4:	910003e0 	mov	x0, sp
   809d8:	910063e1 	add	x1, sp, #0x18
   809dc:	f9000ff3 	str	x19, [sp, #24]
   809e0:	94000e6c 	bl	84390 <_ZN4core3fmt8builders10DebugTuple5field17hdc232892654909f1E>
   809e4:	14000006 	b	809fc <_ZN42_$LT$$RF$T$u20$as$u20$core..fmt..Debug$GT$3fmt17hf4b8c12b0895033aE+0x5c>
   809e8:	f0000021 	adrp	x1, 87000 <anon.18d3f1f317091c7eeaf7c365eb201f34.15.llvm.3855770260100345529+0x38>
   809ec:	910c7021 	add	x1, x1, #0x31c
   809f0:	910003e8 	mov	x8, sp
   809f4:	52800082 	mov	w2, #0x4                   	// #4
   809f8:	940016cd 	bl	8652c <_ZN4core3fmt9Formatter11debug_tuple17h13fb0cff51b5c17aE>
   809fc:	910003e0 	mov	x0, sp
   80a00:	94000ebf 	bl	844fc <_ZN4core3fmt8builders10DebugTuple6finish17hf9f603a0afaeda82E>
   80a04:	a9424ffe 	ldp	x30, x19, [sp, #32]
   80a08:	9100c3ff 	add	sp, sp, #0x30
   80a0c:	d65f03c0 	ret

0000000000080a10 <_ZN4core3ptr77drop_in_place$LT$$RF$$RF$mut$u20$graph_os..allocator..ll_alloc..FreeBlock$GT$17h628e3b2dbfb99182E>:
   80a10:	d65f03c0 	ret

0000000000080a14 <main>:
   80a14:	d10743ff 	sub	sp, sp, #0x1d0
   80a18:	f0000028 	adrp	x8, 87000 <anon.18d3f1f317091c7eeaf7c365eb201f34.15.llvm.3855770260100345529+0x38>
   80a1c:	3dc0d100 	ldr	q0, [x8, #832]
   80a20:	a91c4ff4 	stp	x20, x19, [sp, #448]
   80a24:	aa0003f4 	mov	x20, x0
   80a28:	f90037e0 	str	x0, [sp, #104]
   80a2c:	9101c3e8 	add	x8, sp, #0x70
   80a30:	f0000020 	adrp	x0, 87000 <anon.18d3f1f317091c7eeaf7c365eb201f34.15.llvm.3855770260100345529+0x38>
   80a34:	f0000021 	adrp	x1, 87000 <anon.18d3f1f317091c7eeaf7c365eb201f34.15.llvm.3855770260100345529+0x38>
   80a38:	f90047e8 	str	x8, [sp, #136]
   80a3c:	910e8000 	add	x0, x0, #0x3a0
   80a40:	910e4021 	add	x1, x1, #0x390
   80a44:	910243e8 	add	x8, sp, #0x90
   80a48:	a9197bfd 	stp	x29, x30, [sp, #400]
   80a4c:	a91a5ff8 	stp	x24, x23, [sp, #416]
   80a50:	a91b57f6 	stp	x22, x21, [sp, #432]
   80a54:	3d801fe0 	str	q0, [sp, #112]
   80a58:	94000472 	bl	81c20 <_ZN8graph_os8platform6raspi34uart14UARTController4init17hc6243bd3960c6e87E>
   80a5c:	52800028 	mov	w8, #0x1                   	// #1
   80a60:	3902a3e8 	strb	w8, [sp, #168]
   80a64:	a94a2fe8 	ldp	x8, x11, [sp, #160]
   80a68:	90000053 	adrp	x19, 88000 <anon.57ef2e3c02ffeaf529e6c598bd0b036c.16.llvm.5445877691761700591+0x10e>
   80a6c:	a9492be9 	ldp	x9, x10, [sp, #144]
   80a70:	912d0273 	add	x19, x19, #0xb40
   80a74:	a9012e68 	stp	x8, x11, [x19, #16]
   80a78:	92401d68 	and	x8, x11, #0xff
   80a7c:	91008275 	add	x21, x19, #0x20
   80a80:	7100091f 	cmp	w8, #0x2
   80a84:	a9002a69 	stp	x9, x10, [x19]
   80a88:	089ffebf 	stlrb	wzr, [x21]
   80a8c:	540045e0 	b.eq	81348 <main+0x934>  // b.none
   80a90:	aa1303e0 	mov	x0, x19
   80a94:	940004cb 	bl	81dc0 <_ZN8graph_os8platform6raspi34uart14UARTController7newline17h3bac0dbadd4d9f97E>
   80a98:	089ffebf 	stlrb	wzr, [x21]
   80a9c:	39406268 	ldrb	w8, [x19, #24]
   80aa0:	7100091f 	cmp	w8, #0x2
   80aa4:	540045c0 	b.eq	8135c <main+0x948>  // b.none
   80aa8:	aa1303e0 	mov	x0, x19
   80aac:	940004c5 	bl	81dc0 <_ZN8graph_os8platform6raspi34uart14UARTController7newline17h3bac0dbadd4d9f97E>
   80ab0:	91008276 	add	x22, x19, #0x20
   80ab4:	089ffedf 	stlrb	wzr, [x22]
   80ab8:	39406268 	ldrb	w8, [x19, #24]
   80abc:	7100091f 	cmp	w8, #0x2
   80ac0:	54004580 	b.eq	81370 <main+0x95c>  // b.none
   80ac4:	aa1303e0 	mov	x0, x19
   80ac8:	9400052c 	bl	81f78 <_ZN8graph_os8platform6raspi34uart14UARTController12update_debug17h647d6e6964032dd1E.llvm.5130275823303334094>
   80acc:	d0000028 	adrp	x8, 86000 <_ZN4core3fmt9Formatter12pad_integral17hd76664d265795836E+0x310>
   80ad0:	d0000035 	adrp	x21, 86000 <_ZN4core3fmt9Formatter12pad_integral17hd76664d265795836E+0x310>
   80ad4:	f0000021 	adrp	x1, 87000 <anon.18d3f1f317091c7eeaf7c365eb201f34.15.llvm.3855770260100345529+0x38>
   80ad8:	913bc108 	add	x8, x8, #0xef0
   80adc:	52800029 	mov	w9, #0x1                   	// #1
   80ae0:	913c02b5 	add	x21, x21, #0xf00
   80ae4:	911e2021 	add	x1, x1, #0x788
   80ae8:	910403e2 	add	x2, sp, #0x100
   80aec:	aa1303e0 	mov	x0, x19
   80af0:	a9117fff 	stp	xzr, xzr, [sp, #272]
   80af4:	a91027e8 	stp	x8, x9, [sp, #256]
   80af8:	a9127ff5 	stp	x21, xzr, [sp, #288]
   80afc:	940013fe 	bl	85af4 <_ZN4core3fmt5write17hb5f6a3bd29bb9808E>
   80b00:	aa1303e0 	mov	x0, x19
   80b04:	940004af 	bl	81dc0 <_ZN8graph_os8platform6raspi34uart14UARTController7newline17h3bac0dbadd4d9f97E>
   80b08:	089ffedf 	stlrb	wzr, [x22]
   80b0c:	39406268 	ldrb	w8, [x19, #24]
   80b10:	7100091f 	cmp	w8, #0x2
   80b14:	54004380 	b.eq	81384 <main+0x970>  // b.none
   80b18:	aa1303e0 	mov	x0, x19
   80b1c:	940004a9 	bl	81dc0 <_ZN8graph_os8platform6raspi34uart14UARTController7newline17h3bac0dbadd4d9f97E>
   80b20:	91008276 	add	x22, x19, #0x20
   80b24:	089ffedf 	stlrb	wzr, [x22]
   80b28:	39406268 	ldrb	w8, [x19, #24]
   80b2c:	52a00209 	mov	w9, #0x100000              	// #1048576
   80b30:	f9005be9 	str	x9, [sp, #176]
   80b34:	7100091f 	cmp	w8, #0x2
   80b38:	54004300 	b.eq	81398 <main+0x984>  // b.none
   80b3c:	aa1303e0 	mov	x0, x19
   80b40:	9400050e 	bl	81f78 <_ZN8graph_os8platform6raspi34uart14UARTController12update_debug17h647d6e6964032dd1E.llvm.5130275823303334094>
   80b44:	d0000028 	adrp	x8, 86000 <_ZN4core3fmt9Formatter12pad_integral17hd76664d265795836E+0x310>
   80b48:	f0000021 	adrp	x1, 87000 <anon.18d3f1f317091c7eeaf7c365eb201f34.15.llvm.3855770260100345529+0x38>
   80b4c:	913d4108 	add	x8, x8, #0xf50
   80b50:	52800029 	mov	w9, #0x1                   	// #1
   80b54:	911e2021 	add	x1, x1, #0x788
   80b58:	910403e2 	add	x2, sp, #0x100
   80b5c:	aa1303e0 	mov	x0, x19
   80b60:	a9117fff 	stp	xzr, xzr, [sp, #272]
   80b64:	a91027e8 	stp	x8, x9, [sp, #256]
   80b68:	a9127ff5 	stp	x21, xzr, [sp, #288]
   80b6c:	940013e2 	bl	85af4 <_ZN4core3fmt5write17hb5f6a3bd29bb9808E>
   80b70:	aa1303e0 	mov	x0, x19
   80b74:	94000493 	bl	81dc0 <_ZN8graph_os8platform6raspi34uart14UARTController7newline17h3bac0dbadd4d9f97E>
   80b78:	91001e88 	add	x8, x20, #0x7
   80b7c:	927df108 	and	x8, x8, #0xfffffffffffffff8
   80b80:	eb14011f 	cmp	x8, x20
   80b84:	089ffedf 	stlrb	wzr, [x22]
   80b88:	54004121 	b.ne	813ac <main+0x998>  // b.any
   80b8c:	90000048 	adrp	x8, 88000 <anon.57ef2e3c02ffeaf529e6c598bd0b036c.16.llvm.5445877691761700591+0x10e>
   80b90:	912de108 	add	x8, x8, #0xb78
   80b94:	f9400109 	ldr	x9, [x8]
   80b98:	52a0020a 	mov	w10, #0x100000              	// #1048576
   80b9c:	90000056 	adrp	x22, 88000 <anon.57ef2e3c02ffeaf529e6c598bd0b036c.16.llvm.5445877691761700591+0x10e>
   80ba0:	a900268a 	stp	x10, x9, [x20]
   80ba4:	f8008514 	str	x20, [x8], #8
   80ba8:	089ffd1f 	stlrb	wzr, [x8]
   80bac:	396d62c8 	ldrb	w8, [x22, #2904]
   80bb0:	7100091f 	cmp	w8, #0x2
   80bb4:	540040a0 	b.eq	813c8 <main+0x9b4>  // b.none
   80bb8:	f0000009 	adrp	x9, 83000 <_exception_vector>
   80bbc:	b000002b 	adrp	x11, 85000 <_ZN4core7unicode9printable5check17h3df87d4e8e554ccdE.llvm.5445877691761700591+0x4c>
   80bc0:	9101a3e8 	add	x8, sp, #0x68
   80bc4:	91345129 	add	x9, x9, #0xd14
   80bc8:	9102c3ea 	add	x10, sp, #0xb0
   80bcc:	9109816b 	add	x11, x11, #0x260
   80bd0:	aa1303e0 	mov	x0, x19
   80bd4:	a90ba7e8 	stp	x8, x9, [sp, #184]
   80bd8:	a90cafea 	stp	x10, x11, [sp, #200]
   80bdc:	940004e7 	bl	81f78 <_ZN8graph_os8platform6raspi34uart14UARTController12update_debug17h647d6e6964032dd1E.llvm.5130275823303334094>
   80be0:	d0000028 	adrp	x8, 86000 <_ZN4core3fmt9Formatter12pad_integral17hd76664d265795836E+0x310>
   80be4:	d000002a 	adrp	x10, 86000 <_ZN4core3fmt9Formatter12pad_integral17hd76664d265795836E+0x310>
   80be8:	f0000021 	adrp	x1, 87000 <anon.18d3f1f317091c7eeaf7c365eb201f34.15.llvm.3855770260100345529+0x38>
   80bec:	913ea108 	add	x8, x8, #0xfa8
   80bf0:	52800049 	mov	w9, #0x2                   	// #2
   80bf4:	913f214a 	add	x10, x10, #0xfc8
   80bf8:	9102e3eb 	add	x11, sp, #0xb8
   80bfc:	911e2021 	add	x1, x1, #0x788
   80c00:	910403e2 	add	x2, sp, #0x100
   80c04:	aa1303e0 	mov	x0, x19
   80c08:	a91027e8 	stp	x8, x9, [sp, #256]
   80c0c:	a91127ea 	stp	x10, x9, [sp, #272]
   80c10:	a91227eb 	stp	x11, x9, [sp, #288]
   80c14:	940013b8 	bl	85af4 <_ZN4core3fmt5write17hb5f6a3bd29bb9808E>
   80c18:	aa1303e0 	mov	x0, x19
   80c1c:	94000469 	bl	81dc0 <_ZN8graph_os8platform6raspi34uart14UARTController7newline17h3bac0dbadd4d9f97E>
   80c20:	91008274 	add	x20, x19, #0x20
   80c24:	089ffe9f 	stlrb	wzr, [x20]
   80c28:	39406268 	ldrb	w8, [x19, #24]
   80c2c:	7100091f 	cmp	w8, #0x2
   80c30:	54003d60 	b.eq	813dc <main+0x9c8>  // b.none
   80c34:	aa1303e0 	mov	x0, x19
   80c38:	94000462 	bl	81dc0 <_ZN8graph_os8platform6raspi34uart14UARTController7newline17h3bac0dbadd4d9f97E>
   80c3c:	089ffe9f 	stlrb	wzr, [x20]
   80c40:	39406268 	ldrb	w8, [x19, #24]
   80c44:	7100091f 	cmp	w8, #0x2
   80c48:	54003d40 	b.eq	813f0 <main+0x9dc>  // b.none
   80c4c:	52800394 	mov	w20, #0x1c                  	// #28
   80c50:	aa1303e0 	mov	x0, x19
   80c54:	72a00414 	movk	w20, #0x20, lsl #16
   80c58:	940004c8 	bl	81f78 <_ZN8graph_os8platform6raspi34uart14UARTController12update_debug17h647d6e6964032dd1E.llvm.5130275823303334094>
   80c5c:	f0000028 	adrp	x8, 87000 <anon.18d3f1f317091c7eeaf7c365eb201f34.15.llvm.3855770260100345529+0x38>
   80c60:	f0000021 	adrp	x1, 87000 <anon.18d3f1f317091c7eeaf7c365eb201f34.15.llvm.3855770260100345529+0x38>
   80c64:	91022108 	add	x8, x8, #0x88
   80c68:	52800029 	mov	w9, #0x1                   	// #1
   80c6c:	911e2021 	add	x1, x1, #0x788
   80c70:	910403e2 	add	x2, sp, #0x100
   80c74:	aa1303e0 	mov	x0, x19
   80c78:	a9117fff 	stp	xzr, xzr, [sp, #272]
   80c7c:	a91027e8 	stp	x8, x9, [sp, #256]
   80c80:	a9127ff5 	stp	x21, xzr, [sp, #288]
   80c84:	9400139c 	bl	85af4 <_ZN4core3fmt5write17hb5f6a3bd29bb9808E>
   80c88:	aa1303e0 	mov	x0, x19
   80c8c:	9400044d 	bl	81dc0 <_ZN8graph_os8platform6raspi34uart14UARTController7newline17h3bac0dbadd4d9f97E>
   80c90:	91008268 	add	x8, x19, #0x20
   80c94:	089ffd1f 	stlrb	wzr, [x8]
   80c98:	f9403fe8 	ldr	x8, [sp, #120]
   80c9c:	d1006289 	sub	x9, x20, #0x18
   80ca0:	eb09011f 	cmp	x8, x9
   80ca4:	54003443 	b.cc	8132c <main+0x918>  // b.lo, b.ul, b.last
   80ca8:	f9403be8 	ldr	x8, [sp, #112]
   80cac:	8b080289 	add	x9, x20, x8
   80cb0:	b85e812a 	ldur	w10, [x9, #-24]
   80cb4:	12a1bc08 	mov	w8, #0xf21fffff            	// #-232783873
   80cb8:	0a08014a 	and	w10, w10, w8
   80cbc:	320b014a 	orr	w10, w10, #0x200000
   80cc0:	b81e812a 	stur	w10, [x9, #-24]
   80cc4:	f9403fea 	ldr	x10, [sp, #120]
   80cc8:	d1005289 	sub	x9, x20, #0x14
   80ccc:	eb09015f 	cmp	x10, x9
   80cd0:	540032e3 	b.cc	8132c <main+0x918>  // b.lo, b.ul, b.last
   80cd4:	f9403bea 	ldr	x10, [sp, #112]
   80cd8:	b869694b 	ldr	w11, [x10, x9]
   80cdc:	0a080168 	and	w8, w11, w8
   80ce0:	320b0108 	orr	w8, w8, #0x200000
   80ce4:	b8296948 	str	w8, [x10, x9]
   80ce8:	f9403fe8 	ldr	x8, [sp, #120]
   80cec:	eb09011f 	cmp	x8, x9
   80cf0:	540031e3 	b.cc	8132c <main+0x918>  // b.lo, b.ul, b.last
   80cf4:	f9403be8 	ldr	x8, [sp, #112]
   80cf8:	1283780a 	mov	w10, #0xffffe43f            	// #-7105
   80cfc:	8b080288 	add	x8, x20, x8
   80d00:	b85ec109 	ldur	w9, [x8, #-20]
   80d04:	0a0a0129 	and	w9, w9, w10
   80d08:	321a0129 	orr	w9, w9, #0x40
   80d0c:	b81ec109 	stur	w9, [x8, #-20]
   80d10:	396d62c8 	ldrb	w8, [x22, #2904]
   80d14:	7100091f 	cmp	w8, #0x2
   80d18:	54003760 	b.eq	81404 <main+0x9f0>  // b.none
   80d1c:	aa1303e0 	mov	x0, x19
   80d20:	94000496 	bl	81f78 <_ZN8graph_os8platform6raspi34uart14UARTController12update_debug17h647d6e6964032dd1E.llvm.5130275823303334094>
   80d24:	f0000028 	adrp	x8, 87000 <anon.18d3f1f317091c7eeaf7c365eb201f34.15.llvm.3855770260100345529+0x38>
   80d28:	f0000021 	adrp	x1, 87000 <anon.18d3f1f317091c7eeaf7c365eb201f34.15.llvm.3855770260100345529+0x38>
   80d2c:	91032108 	add	x8, x8, #0xc8
   80d30:	52800029 	mov	w9, #0x1                   	// #1
   80d34:	911e2021 	add	x1, x1, #0x788
   80d38:	910403e2 	add	x2, sp, #0x100
   80d3c:	aa1303e0 	mov	x0, x19
   80d40:	a9117fff 	stp	xzr, xzr, [sp, #272]
   80d44:	a91027e8 	stp	x8, x9, [sp, #256]
   80d48:	a9127ff5 	stp	x21, xzr, [sp, #288]
   80d4c:	9400136a 	bl	85af4 <_ZN4core3fmt5write17hb5f6a3bd29bb9808E>
   80d50:	aa1303e0 	mov	x0, x19
   80d54:	9400041b 	bl	81dc0 <_ZN8graph_os8platform6raspi34uart14UARTController7newline17h3bac0dbadd4d9f97E>
   80d58:	91008277 	add	x23, x19, #0x20
   80d5c:	089ffeff 	stlrb	wzr, [x23]
   80d60:	39406268 	ldrb	w8, [x19, #24]
   80d64:	7100091f 	cmp	w8, #0x2
   80d68:	54003580 	b.eq	81418 <main+0xa04>  // b.none
   80d6c:	aa1303e0 	mov	x0, x19
   80d70:	94000414 	bl	81dc0 <_ZN8graph_os8platform6raspi34uart14UARTController7newline17h3bac0dbadd4d9f97E>
   80d74:	089ffeff 	stlrb	wzr, [x23]
   80d78:	f9403fe8 	ldr	x8, [sp, #120]
   80d7c:	eb14011f 	cmp	x8, x20
   80d80:	54002d63 	b.cc	8132c <main+0x918>  // b.lo, b.ul, b.last
   80d84:	f9403be8 	ldr	x8, [sp, #112]
   80d88:	b8746909 	ldr	w9, [x8, x20]
   80d8c:	32050129 	orr	w9, w9, #0x8000000
   80d90:	b8346909 	str	w9, [x8, x20]
   80d94:	f9403fe9 	ldr	x9, [sp, #120]
   80d98:	d342fd28 	lsr	x8, x9, #2
   80d9c:	f130011f 	cmp	x8, #0xc00
   80da0:	54002c69 	b.ls	8132c <main+0x918>  // b.plast
   80da4:	f9403bea 	ldr	x10, [sp, #112]
   80da8:	d343fd28 	lsr	x8, x9, #3
   80dac:	f118011f 	cmp	x8, #0x600
   80db0:	b970054b 	ldr	w11, [x10, #12292]
   80db4:	54002bc9 	b.ls	8132c <main+0x918>  // b.plast
   80db8:	b970094c 	ldr	w12, [x10, #12296]
   80dbc:	5290d408 	mov	w8, #0x86a0                	// #34464
   80dc0:	72a00028 	movk	w8, #0x1, lsl #16
   80dc4:	b3607d8b 	bfi	x11, x12, #32, #32
   80dc8:	8b08016b 	add	x11, x11, x8
   80dcc:	b970054c 	ldr	w12, [x10, #12292]
   80dd0:	b970094d 	ldr	w13, [x10, #12296]
   80dd4:	b3607dac 	bfi	x12, x13, #32, #32
   80dd8:	eb0b019f 	cmp	x12, x11
   80ddc:	54ffff83 	b.cc	80dcc <main+0x3b8>  // b.lo, b.ul, b.last
   80de0:	9100328b 	add	x11, x20, #0xc
   80de4:	eb0b013f 	cmp	x9, x11
   80de8:	54002a23 	b.cc	8132c <main+0x918>  // b.lo, b.ul, b.last
   80dec:	8b0a0289 	add	x9, x20, x10
   80df0:	b9400d2a 	ldr	w10, [x9, #12]
   80df4:	3205014a 	orr	w10, w10, #0x8000000
   80df8:	b9000d2a 	str	w10, [x9, #12]
   80dfc:	f9403fe9 	ldr	x9, [sp, #120]
   80e00:	eb14013f 	cmp	x9, x20
   80e04:	54002943 	b.cc	8132c <main+0x918>  // b.lo, b.ul, b.last
   80e08:	f9403be9 	ldr	x9, [sp, #112]
   80e0c:	b874692a 	ldr	w10, [x9, x20]
   80e10:	320a014a 	orr	w10, w10, #0x400000
   80e14:	b834692a 	str	w10, [x9, x20]
   80e18:	f9403fe9 	ldr	x9, [sp, #120]
   80e1c:	d342fd2a 	lsr	x10, x9, #2
   80e20:	f130015f 	cmp	x10, #0xc00
   80e24:	54002849 	b.ls	8132c <main+0x918>  // b.plast
   80e28:	f9403bea 	ldr	x10, [sp, #112]
   80e2c:	d343fd2c 	lsr	x12, x9, #3
   80e30:	f118019f 	cmp	x12, #0x600
   80e34:	b970054b 	ldr	w11, [x10, #12292]
   80e38:	540027a9 	b.ls	8132c <main+0x918>  // b.plast
   80e3c:	b970094c 	ldr	w12, [x10, #12296]
   80e40:	8b08016b 	add	x11, x11, x8
   80e44:	8b0c816b 	add	x11, x11, x12, lsl #32
   80e48:	b970054c 	ldr	w12, [x10, #12292]
   80e4c:	b970094d 	ldr	w13, [x10, #12296]
   80e50:	b3607dac 	bfi	x12, x13, #32, #32
   80e54:	eb0b019f 	cmp	x12, x11
   80e58:	54ffff83 	b.cc	80e48 <main+0x434>  // b.lo, b.ul, b.last
   80e5c:	9100328b 	add	x11, x20, #0xc
   80e60:	eb0b013f 	cmp	x9, x11
   80e64:	54002643 	b.cc	8132c <main+0x918>  // b.lo, b.ul, b.last
   80e68:	8b0a0289 	add	x9, x20, x10
   80e6c:	b9400d2a 	ldr	w10, [x9, #12]
   80e70:	320a014a 	orr	w10, w10, #0x400000
   80e74:	b9000d2a 	str	w10, [x9, #12]
   80e78:	f9403fe9 	ldr	x9, [sp, #120]
   80e7c:	eb14013f 	cmp	x9, x20
   80e80:	54002563 	b.cc	8132c <main+0x918>  // b.lo, b.ul, b.last
   80e84:	f9403be9 	ldr	x9, [sp, #112]
   80e88:	b874692a 	ldr	w10, [x9, x20]
   80e8c:	320f014a 	orr	w10, w10, #0x20000
   80e90:	b834692a 	str	w10, [x9, x20]
   80e94:	f9403fe9 	ldr	x9, [sp, #120]
   80e98:	d342fd2a 	lsr	x10, x9, #2
   80e9c:	f130015f 	cmp	x10, #0xc00
   80ea0:	54002469 	b.ls	8132c <main+0x918>  // b.plast
   80ea4:	f9403bea 	ldr	x10, [sp, #112]
   80ea8:	d343fd2c 	lsr	x12, x9, #3
   80eac:	f118019f 	cmp	x12, #0x600
   80eb0:	b970054b 	ldr	w11, [x10, #12292]
   80eb4:	540023c9 	b.ls	8132c <main+0x918>  // b.plast
   80eb8:	b970094c 	ldr	w12, [x10, #12296]
   80ebc:	8b080168 	add	x8, x11, x8
   80ec0:	8b0c8108 	add	x8, x8, x12, lsl #32
   80ec4:	b970054b 	ldr	w11, [x10, #12292]
   80ec8:	b970094c 	ldr	w12, [x10, #12296]
   80ecc:	b3607d8b 	bfi	x11, x12, #32, #32
   80ed0:	eb08017f 	cmp	x11, x8
   80ed4:	54ffff83 	b.cc	80ec4 <main+0x4b0>  // b.lo, b.ul, b.last
   80ed8:	91003288 	add	x8, x20, #0xc
   80edc:	eb08013f 	cmp	x9, x8
   80ee0:	54002263 	b.cc	8132c <main+0x918>  // b.lo, b.ul, b.last
   80ee4:	8b0a0288 	add	x8, x20, x10
   80ee8:	b9400d09 	ldr	w9, [x8, #12]
   80eec:	320f0129 	orr	w9, w9, #0x20000
   80ef0:	b9000d09 	str	w9, [x8, #12]
   80ef4:	396d62c8 	ldrb	w8, [x22, #2904]
   80ef8:	7100091f 	cmp	w8, #0x2
   80efc:	54002980 	b.eq	8142c <main+0xa18>  // b.none
   80f00:	aa1303e0 	mov	x0, x19
   80f04:	9400041d 	bl	81f78 <_ZN8graph_os8platform6raspi34uart14UARTController12update_debug17h647d6e6964032dd1E.llvm.5130275823303334094>
   80f08:	f0000028 	adrp	x8, 87000 <anon.18d3f1f317091c7eeaf7c365eb201f34.15.llvm.3855770260100345529+0x38>
   80f0c:	f0000021 	adrp	x1, 87000 <anon.18d3f1f317091c7eeaf7c365eb201f34.15.llvm.3855770260100345529+0x38>
   80f10:	91046108 	add	x8, x8, #0x118
   80f14:	52800029 	mov	w9, #0x1                   	// #1
   80f18:	911e2021 	add	x1, x1, #0x788
   80f1c:	910403e2 	add	x2, sp, #0x100
   80f20:	aa1303e0 	mov	x0, x19
   80f24:	a9117fff 	stp	xzr, xzr, [sp, #272]
   80f28:	a91027e8 	stp	x8, x9, [sp, #256]
   80f2c:	a9127ff5 	stp	x21, xzr, [sp, #288]
   80f30:	940012f1 	bl	85af4 <_ZN4core3fmt5write17hb5f6a3bd29bb9808E>
   80f34:	aa1303e0 	mov	x0, x19
   80f38:	940003a2 	bl	81dc0 <_ZN8graph_os8platform6raspi34uart14UARTController7newline17h3bac0dbadd4d9f97E>
   80f3c:	90000054 	adrp	x20, 88000 <anon.57ef2e3c02ffeaf529e6c598bd0b036c.16.llvm.5445877691761700591+0x10e>
   80f40:	912ac294 	add	x20, x20, #0xab0
   80f44:	91008277 	add	x23, x19, #0x20
   80f48:	910223e0 	add	x0, sp, #0x88
   80f4c:	52800102 	mov	w2, #0x8                   	// #8
   80f50:	2a1403e1 	mov	w1, w20
   80f54:	089ffeff 	stlrb	wzr, [x23]
   80f58:	910223f8 	add	x24, sp, #0x88
   80f5c:	97fffe14 	bl	807ac <_ZN8graph_os8platform6raspi37mailbox17MailboxController4call17h9f8a6ea04da63d2fE>
   80f60:	2947aa8b 	ldp	w11, w10, [x20, #60]
   80f64:	2942a289 	ldp	w9, w8, [x20, #20]
   80f68:	9101c3ee 	add	x14, sp, #0x70
   80f6c:	b940728f 	ldr	w15, [x20, #112]
   80f70:	b3607d4b 	bfi	x11, x10, #32, #32
   80f74:	3940626a 	ldrb	w10, [x19, #24]
   80f78:	fd401680 	ldr	d0, [x20, #40]
   80f7c:	b940528c 	ldr	w12, [x20, #80]
   80f80:	b940628d 	ldr	w13, [x20, #96]
   80f84:	a90be3ee 	stp	x14, x24, [sp, #184]
   80f88:	b940868e 	ldr	w14, [x20, #132]
   80f8c:	b3607d09 	bfi	x9, x8, #32, #32
   80f90:	52948008 	mov	w8, #0xa400                	// #41984
   80f94:	72a003e8 	movk	w8, #0x1f, lsl #16
   80f98:	924075ef 	and	x15, x15, #0x3fffffff
   80f9c:	7100095f 	cmp	w10, #0x2
   80fa0:	fd0073e0 	str	d0, [sp, #224]
   80fa4:	291e37ec 	stp	w12, w13, [sp, #240]
   80fa8:	a90ca3ef 	stp	x15, x8, [sp, #200]
   80fac:	f9006fe9 	str	x9, [sp, #216]
   80fb0:	f90077eb 	str	x11, [sp, #232]
   80fb4:	b900fbee 	str	w14, [sp, #248]
   80fb8:	54002440 	b.eq	81440 <main+0xa2c>  // b.none
   80fbc:	aa1303e0 	mov	x0, x19
   80fc0:	940003ee 	bl	81f78 <_ZN8graph_os8platform6raspi34uart14UARTController12update_debug17h647d6e6964032dd1E.llvm.5130275823303334094>
   80fc4:	f0000028 	adrp	x8, 87000 <anon.18d3f1f317091c7eeaf7c365eb201f34.15.llvm.3855770260100345529+0x38>
   80fc8:	f0000021 	adrp	x1, 87000 <anon.18d3f1f317091c7eeaf7c365eb201f34.15.llvm.3855770260100345529+0x38>
   80fcc:	91058108 	add	x8, x8, #0x160
   80fd0:	52800029 	mov	w9, #0x1                   	// #1
   80fd4:	911e2021 	add	x1, x1, #0x788
   80fd8:	910403e2 	add	x2, sp, #0x100
   80fdc:	aa1303e0 	mov	x0, x19
   80fe0:	a9117fff 	stp	xzr, xzr, [sp, #272]
   80fe4:	a91027e8 	stp	x8, x9, [sp, #256]
   80fe8:	a9127ff5 	stp	x21, xzr, [sp, #288]
   80fec:	940012c2 	bl	85af4 <_ZN4core3fmt5write17hb5f6a3bd29bb9808E>
   80ff0:	aa1303e0 	mov	x0, x19
   80ff4:	94000373 	bl	81dc0 <_ZN8graph_os8platform6raspi34uart14UARTController7newline17h3bac0dbadd4d9f97E>
   80ff8:	089ffeff 	stlrb	wzr, [x23]
   80ffc:	39406268 	ldrb	w8, [x19, #24]
   81000:	7100091f 	cmp	w8, #0x2
   81004:	54002280 	b.eq	81454 <main+0xa40>  // b.none
   81008:	9102e3e8 	add	x8, sp, #0xb8
   8100c:	9000000a 	adrp	x10, 81000 <main+0x5ec>
   81010:	910623e9 	add	x9, sp, #0x188
   81014:	9121214a 	add	x10, x10, #0x848
   81018:	91008108 	add	x8, x8, #0x20
   8101c:	aa1303e0 	mov	x0, x19
   81020:	f900c7e8 	str	x8, [sp, #392]
   81024:	a915abe9 	stp	x9, x10, [sp, #344]
   81028:	940003d4 	bl	81f78 <_ZN8graph_os8platform6raspi34uart14UARTController12update_debug17h647d6e6964032dd1E.llvm.5130275823303334094>
   8102c:	d0000028 	adrp	x8, 87000 <anon.18d3f1f317091c7eeaf7c365eb201f34.15.llvm.3855770260100345529+0x38>
   81030:	d0000021 	adrp	x1, 87000 <anon.18d3f1f317091c7eeaf7c365eb201f34.15.llvm.3855770260100345529+0x38>
   81034:	91062108 	add	x8, x8, #0x188
   81038:	52800029 	mov	w9, #0x1                   	// #1
   8103c:	910563ea 	add	x10, sp, #0x158
   81040:	911e2021 	add	x1, x1, #0x788
   81044:	910403e2 	add	x2, sp, #0x100
   81048:	aa1303e0 	mov	x0, x19
   8104c:	a9117fff 	stp	xzr, xzr, [sp, #272]
   81050:	a91027e8 	stp	x8, x9, [sp, #256]
   81054:	a91227ea 	stp	x10, x9, [sp, #288]
   81058:	940012a7 	bl	85af4 <_ZN4core3fmt5write17hb5f6a3bd29bb9808E>
   8105c:	aa1303e0 	mov	x0, x19
   81060:	94000358 	bl	81dc0 <_ZN8graph_os8platform6raspi34uart14UARTController7newline17h3bac0dbadd4d9f97E>
   81064:	91008274 	add	x20, x19, #0x20
   81068:	089ffe9f 	stlrb	wzr, [x20]
   8106c:	39406268 	ldrb	w8, [x19, #24]
   81070:	7100091f 	cmp	w8, #0x2
   81074:	54001fa0 	b.eq	81468 <main+0xa54>  // b.none
   81078:	aa1303e0 	mov	x0, x19
   8107c:	94000351 	bl	81dc0 <_ZN8graph_os8platform6raspi34uart14UARTController7newline17h3bac0dbadd4d9f97E>
   81080:	089ffe9f 	stlrb	wzr, [x20]
   81084:	39406268 	ldrb	w8, [x19, #24]
   81088:	7100091f 	cmp	w8, #0x2
   8108c:	54001f80 	b.eq	8147c <main+0xa68>  // b.none
   81090:	aa1303e0 	mov	x0, x19
   81094:	940003b9 	bl	81f78 <_ZN8graph_os8platform6raspi34uart14UARTController12update_debug17h647d6e6964032dd1E.llvm.5130275823303334094>
   81098:	d0000028 	adrp	x8, 87000 <anon.18d3f1f317091c7eeaf7c365eb201f34.15.llvm.3855770260100345529+0x38>
   8109c:	d0000021 	adrp	x1, 87000 <anon.18d3f1f317091c7eeaf7c365eb201f34.15.llvm.3855770260100345529+0x38>
   810a0:	91078108 	add	x8, x8, #0x1e0
   810a4:	52800037 	mov	w23, #0x1                   	// #1
   810a8:	911e2021 	add	x1, x1, #0x788
   810ac:	910403e2 	add	x2, sp, #0x100
   810b0:	aa1303e0 	mov	x0, x19
   810b4:	a9117fff 	stp	xzr, xzr, [sp, #272]
   810b8:	a9105fe8 	stp	x8, x23, [sp, #256]
   810bc:	a9127ff5 	stp	x21, xzr, [sp, #288]
   810c0:	9400128d 	bl	85af4 <_ZN4core3fmt5write17hb5f6a3bd29bb9808E>
   810c4:	aa1303e0 	mov	x0, x19
   810c8:	9400033e 	bl	81dc0 <_ZN8graph_os8platform6raspi34uart14UARTController7newline17h3bac0dbadd4d9f97E>
   810cc:	d0000029 	adrp	x9, 87000 <anon.18d3f1f317091c7eeaf7c365eb201f34.15.llvm.3855770260100345529+0x38>
   810d0:	3dc0d520 	ldr	q0, [x9, #848]
   810d4:	91008274 	add	x20, x19, #0x20
   810d8:	089ffe9f 	stlrb	wzr, [x20]
   810dc:	9102e3e8 	add	x8, sp, #0xb8
   810e0:	3d8017e0 	str	q0, [sp, #80]
   810e4:	39406269 	ldrb	w9, [x19, #24]
   810e8:	d000002a 	adrp	x10, 87000 <anon.18d3f1f317091c7eeaf7c365eb201f34.15.llvm.3855770260100345529+0x38>
   810ec:	f90083e8 	str	x8, [sp, #256]
   810f0:	a94523eb 	ldp	x11, x8, [sp, #80]
   810f4:	f941d54a 	ldr	x10, [x10, #936]
   810f8:	7100093f 	cmp	w9, #0x2
   810fc:	d0000029 	adrp	x9, 87000 <anon.18d3f1f317091c7eeaf7c365eb201f34.15.llvm.3855770260100345529+0x38>
   81100:	910ee129 	add	x9, x9, #0x3b8
   81104:	a9137fff 	stp	xzr, xzr, [sp, #304]
   81108:	a914ffff 	stp	xzr, xzr, [sp, #328]
   8110c:	a9122be9 	stp	x9, x10, [sp, #288]
   81110:	a910a3eb 	stp	x11, x8, [sp, #264]
   81114:	f9008ff7 	str	x23, [sp, #280]
   81118:	f900a3ea 	str	x10, [sp, #320]
   8111c:	54001ba0 	b.eq	81490 <main+0xa7c>  // b.none
   81120:	aa1303e0 	mov	x0, x19
   81124:	94000395 	bl	81f78 <_ZN8graph_os8platform6raspi34uart14UARTController12update_debug17h647d6e6964032dd1E.llvm.5130275823303334094>
   81128:	d0000028 	adrp	x8, 87000 <anon.18d3f1f317091c7eeaf7c365eb201f34.15.llvm.3855770260100345529+0x38>
   8112c:	d0000021 	adrp	x1, 87000 <anon.18d3f1f317091c7eeaf7c365eb201f34.15.llvm.3855770260100345529+0x38>
   81130:	91088108 	add	x8, x8, #0x220
   81134:	52800029 	mov	w9, #0x1                   	// #1
   81138:	911e2021 	add	x1, x1, #0x788
   8113c:	910563e2 	add	x2, sp, #0x158
   81140:	aa1303e0 	mov	x0, x19
   81144:	a916ffff 	stp	xzr, xzr, [sp, #360]
   81148:	a915a7e8 	stp	x8, x9, [sp, #344]
   8114c:	a917fff5 	stp	x21, xzr, [sp, #376]
   81150:	94001269 	bl	85af4 <_ZN4core3fmt5write17hb5f6a3bd29bb9808E>
   81154:	aa1303e0 	mov	x0, x19
   81158:	9400031a 	bl	81dc0 <_ZN8graph_os8platform6raspi34uart14UARTController7newline17h3bac0dbadd4d9f97E>
   8115c:	089ffe9f 	stlrb	wzr, [x20]
   81160:	a95487e8 	ldp	x8, x1, [sp, #328]
   81164:	a915ffff 	stp	xzr, xzr, [sp, #344]
   81168:	eb08003f 	cmp	x1, x8
   8116c:	54000b80 	b.eq	812dc <main+0x8c8>  // b.none
   81170:	f940a3e8 	ldr	x8, [sp, #320]
   81174:	d000002b 	adrp	x11, 87000 <anon.18d3f1f317091c7eeaf7c365eb201f34.15.llvm.3855770260100345529+0x38>
   81178:	a955abe9 	ldp	x9, x10, [sp, #344]
   8117c:	3dc0d960 	ldr	q0, [x11, #864]
   81180:	5280050b 	mov	w11, #0x28                  	// #40
   81184:	9b0b2028 	madd	x8, x1, x11, x8
   81188:	a9002909 	stp	x9, x10, [x8]
   8118c:	3d8013e0 	str	q0, [sp, #64]
   81190:	f94027e9 	ldr	x9, [sp, #72]
   81194:	52801fea 	mov	w10, #0xff                  	// #255
   81198:	72a0154a 	movk	w10, #0xaa, lsl #16
   8119c:	f9000d09 	str	x9, [x8, #24]
   811a0:	f94023e9 	ldr	x9, [sp, #64]
   811a4:	b900210a 	str	w10, [x8, #32]
   811a8:	f9000909 	str	x9, [x8, #16]
   811ac:	a954a3e9 	ldp	x9, x8, [sp, #328]
   811b0:	91000501 	add	x1, x8, #0x1
   811b4:	eb09003f 	cmp	x1, x9
   811b8:	f900abe1 	str	x1, [sp, #336]
   811bc:	540009c0 	b.eq	812f4 <main+0x8e0>  // b.none
   811c0:	f940a3e8 	ldr	x8, [sp, #320]
   811c4:	3d800fe0 	str	q0, [sp, #48]
   811c8:	f9401fe9 	ldr	x9, [sp, #56]
   811cc:	5280050a 	mov	w10, #0x28                  	// #40
   811d0:	9b0a2028 	madd	x8, x1, x10, x8
   811d4:	d000002a 	adrp	x10, 87000 <anon.18d3f1f317091c7eeaf7c365eb201f34.15.llvm.3855770260100345529+0x38>
   811d8:	f9000509 	str	x9, [x8, #8]
   811dc:	f9401be9 	ldr	x9, [sp, #48]
   811e0:	3dc0dd40 	ldr	q0, [x10, #880]
   811e4:	52955fea 	mov	w10, #0xaaff                	// #43775
   811e8:	f9000109 	str	x9, [x8]
   811ec:	3d800be0 	str	q0, [sp, #32]
   811f0:	f94017e9 	ldr	x9, [sp, #40]
   811f4:	f9000d09 	str	x9, [x8, #24]
   811f8:	f94013e9 	ldr	x9, [sp, #32]
   811fc:	b900210a 	str	w10, [x8, #32]
   81200:	f9000909 	str	x9, [x8, #16]
   81204:	f940abe8 	ldr	x8, [sp, #336]
   81208:	a95307e9 	ldp	x9, x1, [sp, #304]
   8120c:	91000508 	add	x8, x8, #0x1
   81210:	eb09003f 	cmp	x1, x9
   81214:	f900abe8 	str	x8, [sp, #336]
   81218:	540007e0 	b.eq	81314 <main+0x900>  // b.none
   8121c:	d0000028 	adrp	x8, 87000 <anon.18d3f1f317091c7eeaf7c365eb201f34.15.llvm.3855770260100345529+0x38>
   81220:	3dc0e100 	ldr	q0, [x8, #896]
   81224:	f94097e8 	ldr	x8, [sp, #296]
   81228:	5280030a 	mov	w10, #0x18                  	// #24
   8122c:	3d8007e0 	str	q0, [sp, #16]
   81230:	f9400fe9 	ldr	x9, [sp, #24]
   81234:	9b0a2028 	madd	x8, x1, x10, x8
   81238:	529fe00a 	mov	w10, #0xff00                	// #65280
   8123c:	f9000509 	str	x9, [x8, #8]
   81240:	f9400be9 	ldr	x9, [sp, #16]
   81244:	b900110a 	str	w10, [x8, #16]
   81248:	f9000109 	str	x9, [x8]
   8124c:	f9409fe8 	ldr	x8, [sp, #312]
   81250:	396d62c9 	ldrb	w9, [x22, #2904]
   81254:	91000508 	add	x8, x8, #0x1
   81258:	7100093f 	cmp	w9, #0x2
   8125c:	f9009fe8 	str	x8, [sp, #312]
   81260:	54001220 	b.eq	814a4 <main+0xa90>  // b.none
   81264:	aa1303e0 	mov	x0, x19
   81268:	94000344 	bl	81f78 <_ZN8graph_os8platform6raspi34uart14UARTController12update_debug17h647d6e6964032dd1E.llvm.5130275823303334094>
   8126c:	d0000028 	adrp	x8, 87000 <anon.18d3f1f317091c7eeaf7c365eb201f34.15.llvm.3855770260100345529+0x38>
   81270:	d0000021 	adrp	x1, 87000 <anon.18d3f1f317091c7eeaf7c365eb201f34.15.llvm.3855770260100345529+0x38>
   81274:	91096108 	add	x8, x8, #0x258
   81278:	52800029 	mov	w9, #0x1                   	// #1
   8127c:	911e2021 	add	x1, x1, #0x788
   81280:	910563e2 	add	x2, sp, #0x158
   81284:	aa1303e0 	mov	x0, x19
   81288:	a916ffff 	stp	xzr, xzr, [sp, #360]
   8128c:	a915a7e8 	stp	x8, x9, [sp, #344]
   81290:	a917fff5 	stp	x21, xzr, [sp, #376]
   81294:	94001218 	bl	85af4 <_ZN4core3fmt5write17hb5f6a3bd29bb9808E>
   81298:	aa1303e0 	mov	x0, x19
   8129c:	940002c9 	bl	81dc0 <_ZN8graph_os8platform6raspi34uart14UARTController7newline17h3bac0dbadd4d9f97E>
   812a0:	91008268 	add	x8, x19, #0x20
   812a4:	d2dc0009 	mov	x9, #0xe00000000000        	// #246290604621824
   812a8:	d2dc000b 	mov	x11, #0xe00000000000        	// #246290604621824
   812ac:	089ffd1f 	stlrb	wzr, [x8]
   812b0:	d2f811c8 	mov	x8, #0xc08e000000000000    	// #-4571716571734474752
   812b4:	f2f81009 	movk	x9, #0xc080, lsl #48
   812b8:	d2e813ca 	mov	x10, #0x409e000000000000    	// #4656159064747671552
   812bc:	f2e8120b 	movk	x11, #0x4090, lsl #48
   812c0:	910403e0 	add	x0, sp, #0x100
   812c4:	9e670100 	fmov	d0, x8
   812c8:	9e670121 	fmov	d1, x9
   812cc:	9e670142 	fmov	d2, x10
   812d0:	9e670163 	fmov	d3, x11
   812d4:	94000080 	bl	814d4 <_ZN8graph_os6canvas8canvas2d17Canvas2D$LT$T$GT$4draw17h9cb0ba311b7ebce3E>
   812d8:	14000000 	b	812d8 <main+0x8c4>
   812dc:	910403e8 	add	x8, sp, #0x100
   812e0:	91010100 	add	x0, x8, #0x40
   812e4:	52800022 	mov	w2, #0x1                   	// #1
   812e8:	97fffcc5 	bl	805fc <_ZN5alloc7raw_vec19RawVec$LT$T$C$A$GT$7reserve21do_reserve_and_handle17hceaf2668c4fffe86E>
   812ec:	f940abe1 	ldr	x1, [sp, #336]
   812f0:	17ffffa0 	b	81170 <main+0x75c>
   812f4:	910403e8 	add	x8, sp, #0x100
   812f8:	91010100 	add	x0, x8, #0x40
   812fc:	52800022 	mov	w2, #0x1                   	// #1
   81300:	3d8003e0 	str	q0, [sp]
   81304:	97fffcbe 	bl	805fc <_ZN5alloc7raw_vec19RawVec$LT$T$C$A$GT$7reserve21do_reserve_and_handle17hceaf2668c4fffe86E>
   81308:	3dc003e0 	ldr	q0, [sp]
   8130c:	f940abe1 	ldr	x1, [sp, #336]
   81310:	17ffffac 	b	811c0 <main+0x7ac>
   81314:	910403e8 	add	x8, sp, #0x100
   81318:	9100a100 	add	x0, x8, #0x28
   8131c:	52800022 	mov	w2, #0x1                   	// #1
   81320:	97fffced 	bl	806d4 <_ZN5alloc7raw_vec19RawVec$LT$T$C$A$GT$7reserve21do_reserve_and_handle17hd732b3eb16c04cb9E>
   81324:	f9409fe1 	ldr	x1, [sp, #312]
   81328:	17ffffbd 	b	8121c <main+0x808>
   8132c:	d0000020 	adrp	x0, 87000 <anon.18d3f1f317091c7eeaf7c365eb201f34.15.llvm.3855770260100345529+0x38>
   81330:	d0000022 	adrp	x2, 87000 <anon.18d3f1f317091c7eeaf7c365eb201f34.15.llvm.3855770260100345529+0x38>
   81334:	910b6000 	add	x0, x0, #0x2d8
   81338:	910c0042 	add	x2, x2, #0x300
   8133c:	528004a1 	mov	w1, #0x25                  	// #37
   81340:	94000d66 	bl	848d8 <_ZN4core9panicking5panic17h44d2e7d60b187585E>
   81344:	d4200020 	brk	#0x1
   81348:	b0000020 	adrp	x0, 86000 <_ZN4core3fmt9Formatter12pad_integral17hd76664d265795836E+0x310>
   8134c:	b0000022 	adrp	x2, 86000 <_ZN4core3fmt9Formatter12pad_integral17hd76664d265795836E+0x310>
   81350:	91398000 	add	x0, x0, #0xe60
   81354:	913a8042 	add	x2, x2, #0xea0
   81358:	14000057 	b	814b4 <main+0xaa0>
   8135c:	b0000020 	adrp	x0, 86000 <_ZN4core3fmt9Formatter12pad_integral17hd76664d265795836E+0x310>
   81360:	b0000022 	adrp	x2, 86000 <_ZN4core3fmt9Formatter12pad_integral17hd76664d265795836E+0x310>
   81364:	91398000 	add	x0, x0, #0xe60
   81368:	913ae042 	add	x2, x2, #0xeb8
   8136c:	14000052 	b	814b4 <main+0xaa0>
   81370:	b0000020 	adrp	x0, 86000 <_ZN4core3fmt9Formatter12pad_integral17hd76664d265795836E+0x310>
   81374:	b0000022 	adrp	x2, 86000 <_ZN4core3fmt9Formatter12pad_integral17hd76664d265795836E+0x310>
   81378:	91398000 	add	x0, x0, #0xe60
   8137c:	913c0042 	add	x2, x2, #0xf00
   81380:	1400004d 	b	814b4 <main+0xaa0>
   81384:	b0000020 	adrp	x0, 86000 <_ZN4core3fmt9Formatter12pad_integral17hd76664d265795836E+0x310>
   81388:	b0000022 	adrp	x2, 86000 <_ZN4core3fmt9Formatter12pad_integral17hd76664d265795836E+0x310>
   8138c:	91398000 	add	x0, x0, #0xe60
   81390:	913c6042 	add	x2, x2, #0xf18
   81394:	14000048 	b	814b4 <main+0xaa0>
   81398:	b0000020 	adrp	x0, 86000 <_ZN4core3fmt9Formatter12pad_integral17hd76664d265795836E+0x310>
   8139c:	b0000022 	adrp	x2, 86000 <_ZN4core3fmt9Formatter12pad_integral17hd76664d265795836E+0x310>
   813a0:	91398000 	add	x0, x0, #0xe60
   813a4:	913d8042 	add	x2, x2, #0xf60
   813a8:	14000043 	b	814b4 <main+0xaa0>
   813ac:	d0000020 	adrp	x0, 87000 <anon.18d3f1f317091c7eeaf7c365eb201f34.15.llvm.3855770260100345529+0x38>
   813b0:	d0000022 	adrp	x2, 87000 <anon.18d3f1f317091c7eeaf7c365eb201f34.15.llvm.3855770260100345529+0x38>
   813b4:	9113a400 	add	x0, x0, #0x4e9
   813b8:	91146042 	add	x2, x2, #0x518
   813bc:	52800581 	mov	w1, #0x2c                  	// #44
   813c0:	94000d46 	bl	848d8 <_ZN4core9panicking5panic17h44d2e7d60b187585E>
   813c4:	d4200020 	brk	#0x1
   813c8:	b0000020 	adrp	x0, 86000 <_ZN4core3fmt9Formatter12pad_integral17hd76664d265795836E+0x310>
   813cc:	d0000022 	adrp	x2, 87000 <anon.18d3f1f317091c7eeaf7c365eb201f34.15.llvm.3855770260100345529+0x38>
   813d0:	91398000 	add	x0, x0, #0xe60
   813d4:	9100e042 	add	x2, x2, #0x38
   813d8:	14000037 	b	814b4 <main+0xaa0>
   813dc:	b0000020 	adrp	x0, 86000 <_ZN4core3fmt9Formatter12pad_integral17hd76664d265795836E+0x310>
   813e0:	d0000022 	adrp	x2, 87000 <anon.18d3f1f317091c7eeaf7c365eb201f34.15.llvm.3855770260100345529+0x38>
   813e4:	91398000 	add	x0, x0, #0xe60
   813e8:	91014042 	add	x2, x2, #0x50
   813ec:	14000032 	b	814b4 <main+0xaa0>
   813f0:	b0000020 	adrp	x0, 86000 <_ZN4core3fmt9Formatter12pad_integral17hd76664d265795836E+0x310>
   813f4:	d0000022 	adrp	x2, 87000 <anon.18d3f1f317091c7eeaf7c365eb201f34.15.llvm.3855770260100345529+0x38>
   813f8:	91398000 	add	x0, x0, #0xe60
   813fc:	91026042 	add	x2, x2, #0x98
   81400:	1400002d 	b	814b4 <main+0xaa0>
   81404:	b0000020 	adrp	x0, 86000 <_ZN4core3fmt9Formatter12pad_integral17hd76664d265795836E+0x310>
   81408:	d0000022 	adrp	x2, 87000 <anon.18d3f1f317091c7eeaf7c365eb201f34.15.llvm.3855770260100345529+0x38>
   8140c:	91398000 	add	x0, x0, #0xe60
   81410:	91036042 	add	x2, x2, #0xd8
   81414:	14000028 	b	814b4 <main+0xaa0>
   81418:	b0000020 	adrp	x0, 86000 <_ZN4core3fmt9Formatter12pad_integral17hd76664d265795836E+0x310>
   8141c:	d0000022 	adrp	x2, 87000 <anon.18d3f1f317091c7eeaf7c365eb201f34.15.llvm.3855770260100345529+0x38>
   81420:	91398000 	add	x0, x0, #0xe60
   81424:	9103c042 	add	x2, x2, #0xf0
   81428:	14000023 	b	814b4 <main+0xaa0>
   8142c:	b0000020 	adrp	x0, 86000 <_ZN4core3fmt9Formatter12pad_integral17hd76664d265795836E+0x310>
   81430:	d0000022 	adrp	x2, 87000 <anon.18d3f1f317091c7eeaf7c365eb201f34.15.llvm.3855770260100345529+0x38>
   81434:	91398000 	add	x0, x0, #0xe60
   81438:	9104a042 	add	x2, x2, #0x128
   8143c:	1400001e 	b	814b4 <main+0xaa0>
   81440:	b0000020 	adrp	x0, 86000 <_ZN4core3fmt9Formatter12pad_integral17hd76664d265795836E+0x310>
   81444:	d0000022 	adrp	x2, 87000 <anon.18d3f1f317091c7eeaf7c365eb201f34.15.llvm.3855770260100345529+0x38>
   81448:	91398000 	add	x0, x0, #0xe60
   8144c:	9105c042 	add	x2, x2, #0x170
   81450:	14000019 	b	814b4 <main+0xaa0>
   81454:	b0000020 	adrp	x0, 86000 <_ZN4core3fmt9Formatter12pad_integral17hd76664d265795836E+0x310>
   81458:	d0000022 	adrp	x2, 87000 <anon.18d3f1f317091c7eeaf7c365eb201f34.15.llvm.3855770260100345529+0x38>
   8145c:	91398000 	add	x0, x0, #0xe60
   81460:	91066042 	add	x2, x2, #0x198
   81464:	14000014 	b	814b4 <main+0xaa0>
   81468:	b0000020 	adrp	x0, 86000 <_ZN4core3fmt9Formatter12pad_integral17hd76664d265795836E+0x310>
   8146c:	d0000022 	adrp	x2, 87000 <anon.18d3f1f317091c7eeaf7c365eb201f34.15.llvm.3855770260100345529+0x38>
   81470:	91398000 	add	x0, x0, #0xe60
   81474:	9106c042 	add	x2, x2, #0x1b0
   81478:	1400000f 	b	814b4 <main+0xaa0>
   8147c:	b0000020 	adrp	x0, 86000 <_ZN4core3fmt9Formatter12pad_integral17hd76664d265795836E+0x310>
   81480:	d0000022 	adrp	x2, 87000 <anon.18d3f1f317091c7eeaf7c365eb201f34.15.llvm.3855770260100345529+0x38>
   81484:	91398000 	add	x0, x0, #0xe60
   81488:	9107c042 	add	x2, x2, #0x1f0
   8148c:	1400000a 	b	814b4 <main+0xaa0>
   81490:	b0000020 	adrp	x0, 86000 <_ZN4core3fmt9Formatter12pad_integral17hd76664d265795836E+0x310>
   81494:	d0000022 	adrp	x2, 87000 <anon.18d3f1f317091c7eeaf7c365eb201f34.15.llvm.3855770260100345529+0x38>
   81498:	91398000 	add	x0, x0, #0xe60
   8149c:	9108c042 	add	x2, x2, #0x230
   814a0:	14000005 	b	814b4 <main+0xaa0>
   814a4:	b0000020 	adrp	x0, 86000 <_ZN4core3fmt9Formatter12pad_integral17hd76664d265795836E+0x310>
   814a8:	d0000022 	adrp	x2, 87000 <anon.18d3f1f317091c7eeaf7c365eb201f34.15.llvm.3855770260100345529+0x38>
   814ac:	91398000 	add	x0, x0, #0xe60
   814b0:	9109a042 	add	x2, x2, #0x268
   814b4:	528003c1 	mov	w1, #0x1e                  	// #30
   814b8:	94000d08 	bl	848d8 <_ZN4core9panicking5panic17h44d2e7d60b187585E>
   814bc:	d4200020 	brk	#0x1

00000000000814c0 <_ZN4core3ops8function6FnOnce40call_once$u7b$$u7b$vtable.shim$u7d$$u7d$17h08c75199c644f943E.llvm.2060999182684745314>:
   814c0:	2a1f03e0 	mov	w0, wzr
   814c4:	d65f03c0 	ret

00000000000814c8 <_ZN4core3ptr145drop_in_place$LT$graph_os..canvas..canvas2d..Canvas2D$LT$graph_os..platform..raspi3..gpu..GPUController$GT$..new..$u7b$$u7b$closure$u7d$$u7d$$GT$17h6a64e1b0e3c2676cE.llvm.2060999182684745314>:
   814c8:	d65f03c0 	ret

00000000000814cc <_ZN8graph_os6canvas8canvas2d17Canvas2D$LT$T$GT$3new28_$u7b$$u7b$closure$u7d$$u7d$17h618a407d87e9da26E.llvm.2060999182684745314>:
   814cc:	2a1f03e0 	mov	w0, wzr
   814d0:	d65f03c0 	ret

00000000000814d4 <_ZN8graph_os6canvas8canvas2d17Canvas2D$LT$T$GT$4draw17h9cb0ba311b7ebce3E>:
   814d4:	6d409404 	ldp	d4, d5, [x0, #8]
   814d8:	f9401c08 	ldr	x8, [x0, #56]
   814dc:	7e61d884 	ucvtf	d4, d4
   814e0:	7e61d8a5 	ucvtf	d5, d5
   814e4:	1e621884 	fdiv	d4, d4, d2
   814e8:	1e6318a5 	fdiv	d5, d5, d3
   814ec:	b4000608 	cbz	x8, 815ac <_ZN8graph_os6canvas8canvas2d17Canvas2D$LT$T$GT$4draw17h9cb0ba311b7ebce3E+0xd8>
   814f0:	f9401409 	ldr	x9, [x0, #40]
   814f4:	f940000a 	ldr	x10, [x0]
   814f8:	5280030b 	mov	w11, #0x18                  	// #24
   814fc:	9e6703e6 	fmov	d6, xzr
   81500:	9b0b250b 	madd	x11, x8, x11, x9
   81504:	92f7820c 	mov	x12, #0x43efffffffffffff    	// #4895412794951729151
   81508:	14000004 	b	81518 <_ZN8graph_os6canvas8canvas2d17Canvas2D$LT$T$GT$4draw17h9cb0ba311b7ebce3E+0x44>
   8150c:	91006129 	add	x9, x9, #0x18
   81510:	eb0b013f 	cmp	x9, x11
   81514:	540004c0 	b.eq	815ac <_ZN8graph_os6canvas8canvas2d17Canvas2D$LT$T$GT$4draw17h9cb0ba311b7ebce3E+0xd8>  // b.none
   81518:	6d404527 	ldp	d7, d17, [x9]
   8151c:	1e6038f0 	fsub	d16, d7, d0
   81520:	1e613a31 	fsub	d17, d17, d1
   81524:	1e700887 	fmul	d7, d4, d16
   81528:	1e660a32 	fmul	d18, d17, d6
   8152c:	1e7228e7 	fadd	d7, d7, d18
   81530:	1e6020e8 	fcmp	d7, #0.0
   81534:	54fffecb 	b.lt	8150c <_ZN8graph_os6canvas8canvas2d17Canvas2D$LT$T$GT$4draw17h9cb0ba311b7ebce3E+0x38>  // b.tstop
   81538:	1e660a10 	fmul	d16, d16, d6
   8153c:	1e7108b1 	fmul	d17, d5, d17
   81540:	1e712a10 	fadd	d16, d16, d17
   81544:	1e602208 	fcmp	d16, #0.0
   81548:	54fffe2b 	b.lt	8150c <_ZN8graph_os6canvas8canvas2d17Canvas2D$LT$T$GT$4draw17h9cb0ba311b7ebce3E+0x38>  // b.tstop
   8154c:	1e6220e0 	fcmp	d7, d2
   81550:	54fffde5 	b.pl	8150c <_ZN8graph_os6canvas8canvas2d17Canvas2D$LT$T$GT$4draw17h9cb0ba311b7ebce3E+0x38>  // b.nfrst
   81554:	1e632200 	fcmp	d16, d3
   81558:	54fffda5 	b.pl	8150c <_ZN8graph_os6canvas8canvas2d17Canvas2D$LT$T$GT$4draw17h9cb0ba311b7ebce3E+0x38>  // b.nfrst
   8155c:	9e7900e8 	fcvtzu	x8, d7
   81560:	1e6020e8 	fcmp	d7, #0.0
   81564:	9e670191 	fmov	d17, x12
   81568:	b940294e 	ldr	w14, [x10, #40]
   8156c:	9a88b3e8 	csel	x8, xzr, x8, lt  // lt = tstop
   81570:	1e7120e0 	fcmp	d7, d17
   81574:	9e79020d 	fcvtzu	x13, d16
   81578:	f9400d41 	ldr	x1, [x10, #24]
   8157c:	da9fd108 	csinv	x8, x8, xzr, le
   81580:	1e602208 	fcmp	d16, #0.0
   81584:	9a8db3ed 	csel	x13, xzr, x13, lt  // lt = tstop
   81588:	1e712200 	fcmp	d16, d17
   8158c:	da9fd1ad 	csinv	x13, x13, xzr, le
   81590:	9b0e21a8 	madd	x8, x13, x14, x8
   81594:	eb01011f 	cmp	x8, x1
   81598:	54000ba2 	b.cs	8170c <_ZN8graph_os6canvas8canvas2d17Canvas2D$LT$T$GT$4draw17h9cb0ba311b7ebce3E+0x238>  // b.hs, b.nlast
   8159c:	b940112d 	ldr	w13, [x9, #16]
   815a0:	f940094e 	ldr	x14, [x10, #16]
   815a4:	b82879cd 	str	w13, [x14, x8, lsl #2]
   815a8:	17ffffd9 	b	8150c <_ZN8graph_os6canvas8canvas2d17Canvas2D$LT$T$GT$4draw17h9cb0ba311b7ebce3E+0x38>
   815ac:	f940280a 	ldr	x10, [x0, #80]
   815b0:	b4000a2a 	cbz	x10, 816f4 <_ZN8graph_os6canvas8canvas2d17Canvas2D$LT$T$GT$4draw17h9cb0ba311b7ebce3E+0x220>
   815b4:	f9402008 	ldr	x8, [x0, #64]
   815b8:	f9400009 	ldr	x9, [x0]
   815bc:	5280050b 	mov	w11, #0x28                  	// #40
   815c0:	9e6703e2 	fmov	d2, xzr
   815c4:	9b0b214a 	madd	x10, x10, x11, x8
   815c8:	92f7820b 	mov	x11, #0x43efffffffffffff    	// #4895412794951729151
   815cc:	14000004 	b	815dc <_ZN8graph_os6canvas8canvas2d17Canvas2D$LT$T$GT$4draw17h9cb0ba311b7ebce3E+0x108>
   815d0:	9100a108 	add	x8, x8, #0x28
   815d4:	eb0a011f 	cmp	x8, x10
   815d8:	540008e0 	b.eq	816f4 <_ZN8graph_os6canvas8canvas2d17Canvas2D$LT$T$GT$4draw17h9cb0ba311b7ebce3E+0x220>  // b.none
   815dc:	6d401903 	ldp	d3, d6, [x8]
   815e0:	6d414107 	ldp	d7, d16, [x8, #16]
   815e4:	1e603863 	fsub	d3, d3, d0
   815e8:	1e6138c6 	fsub	d6, d6, d1
   815ec:	1e6038e7 	fsub	d7, d7, d0
   815f0:	1e613a10 	fsub	d16, d16, d1
   815f4:	1e630891 	fmul	d17, d4, d3
   815f8:	1e6208d2 	fmul	d18, d6, d2
   815fc:	1e620863 	fmul	d3, d3, d2
   81600:	1e6608a6 	fmul	d6, d5, d6
   81604:	1e722a31 	fadd	d17, d17, d18
   81608:	1e670892 	fmul	d18, d4, d7
   8160c:	1e662863 	fadd	d3, d3, d6
   81610:	1e620a06 	fmul	d6, d16, d2
   81614:	1e662a46 	fadd	d6, d18, d6
   81618:	1e6208e7 	fmul	d7, d7, d2
   8161c:	1e7008b0 	fmul	d16, d5, d16
   81620:	1e7120c0 	fcmp	d6, d17
   81624:	1e7028e7 	fadd	d7, d7, d16
   81628:	1e714cd0 	fcsel	d16, d6, d17, mi  // mi = first
   8162c:	9e670172 	fmov	d18, x11
   81630:	1e664e26 	fcsel	d6, d17, d6, mi  // mi = first
   81634:	1e634cf1 	fcsel	d17, d7, d3, mi  // mi = first
   81638:	1e674c63 	fcsel	d3, d3, d7, mi  // mi = first
   8163c:	9e79020c 	fcvtzu	x12, d16
   81640:	1e602208 	fcmp	d16, #0.0
   81644:	9a8cb3ec 	csel	x12, xzr, x12, lt  // lt = tstop
   81648:	1e722200 	fcmp	d16, d18
   8164c:	9e79022d 	fcvtzu	x13, d17
   81650:	da9fd18c 	csinv	x12, x12, xzr, le
   81654:	1e602228 	fcmp	d17, #0.0
   81658:	9a8db3ed 	csel	x13, xzr, x13, lt  // lt = tstop
   8165c:	1e722220 	fcmp	d17, d18
   81660:	9e7900ce 	fcvtzu	x14, d6
   81664:	da9fd1ad 	csinv	x13, x13, xzr, le
   81668:	1e6020c8 	fcmp	d6, #0.0
   8166c:	9a8eb3ee 	csel	x14, xzr, x14, lt  // lt = tstop
   81670:	1e7220c0 	fcmp	d6, d18
   81674:	9e79006f 	fcvtzu	x15, d3
   81678:	da9fd1ce 	csinv	x14, x14, xzr, le
   8167c:	1e602068 	fcmp	d3, #0.0
   81680:	9a8fb3ef 	csel	x15, xzr, x15, lt  // lt = tstop
   81684:	1e722060 	fcmp	d3, d18
   81688:	da9fd1f0 	csinv	x16, x15, xzr, le
   8168c:	eb0c01cf 	subs	x15, x14, x12
   81690:	54fffa09 	b.ls	815d0 <_ZN8graph_os6canvas8canvas2d17Canvas2D$LT$T$GT$4draw17h9cb0ba311b7ebce3E+0xfc>  // b.plast
   81694:	eb0d021f 	cmp	x16, x13
   81698:	54fff9c9 	b.ls	815d0 <_ZN8graph_os6canvas8canvas2d17Canvas2D$LT$T$GT$4draw17h9cb0ba311b7ebce3E+0xfc>  // b.plast
   8169c:	cb0d0210 	sub	x16, x16, x13
   816a0:	eb0f0211 	subs	x17, x16, x15
   816a4:	54fff962 	b.cs	815d0 <_ZN8graph_os6canvas8canvas2d17Canvas2D$LT$T$GT$4draw17h9cb0ba311b7ebce3E+0xfc>  // b.hs, b.nlast
   816a8:	b9402112 	ldr	w18, [x8, #32]
   816ac:	f9400d21 	ldr	x1, [x9, #24]
   816b0:	b9402920 	ldr	w0, [x9, #40]
   816b4:	aa1f03e2 	mov	x2, xzr
   816b8:	9b0031a3 	madd	x3, x13, x0, x12
   816bc:	eb01007f 	cmp	x3, x1
   816c0:	540001c2 	b.cs	816f8 <_ZN8graph_os6canvas8canvas2d17Canvas2D$LT$T$GT$4draw17h9cb0ba311b7ebce3E+0x224>  // b.hs, b.nlast
   816c4:	f9400924 	ldr	x4, [x9, #16]
   816c8:	8b100045 	add	x5, x2, x16
   816cc:	d37ff8a6 	lsl	x6, x5, #1
   816d0:	9100058c 	add	x12, x12, #0x1
   816d4:	8b020222 	add	x2, x17, x2
   816d8:	eb0f00df 	cmp	x6, x15
   816dc:	9a8230a2 	csel	x2, x5, x2, cc  // cc = lo, ul, last
   816e0:	9a8d35ad 	cinc	x13, x13, cs  // cs = hs, nlast
   816e4:	eb0c01df 	cmp	x14, x12
   816e8:	b8237892 	str	w18, [x4, x3, lsl #2]
   816ec:	54fffe61 	b.ne	816b8 <_ZN8graph_os6canvas8canvas2d17Canvas2D$LT$T$GT$4draw17h9cb0ba311b7ebce3E+0x1e4>  // b.any
   816f0:	17ffffb8 	b	815d0 <_ZN8graph_os6canvas8canvas2d17Canvas2D$LT$T$GT$4draw17h9cb0ba311b7ebce3E+0xfc>
   816f4:	d65f03c0 	ret
   816f8:	d0000022 	adrp	x2, 87000 <anon.18d3f1f317091c7eeaf7c365eb201f34.15.llvm.3855770260100345529+0x38>
   816fc:	9b0d3000 	madd	x0, x0, x13, x12
   81700:	911b0042 	add	x2, x2, #0x6c0
   81704:	94000c82 	bl	8490c <_ZN4core9panicking18panic_bounds_check17h9ccd95bf49c400c4E>
   81708:	d4200020 	brk	#0x1
   8170c:	d0000022 	adrp	x2, 87000 <anon.18d3f1f317091c7eeaf7c365eb201f34.15.llvm.3855770260100345529+0x38>
   81710:	911b0042 	add	x2, x2, #0x6c0
   81714:	aa0803e0 	mov	x0, x8
   81718:	94000c7d 	bl	8490c <_ZN4core9panicking18panic_bounds_check17h9ccd95bf49c400c4E>
   8171c:	d4200020 	brk	#0x1

0000000000081720 <_ZN42_$LT$$RF$T$u20$as$u20$core..fmt..Debug$GT$3fmt17h7187ae96fc62ceb3E>:
   81720:	d100c3ff 	sub	sp, sp, #0x30
   81724:	f9400009 	ldr	x9, [x0]
   81728:	a9024ff4 	stp	x20, x19, [sp, #32]
   8172c:	aa0103e8 	mov	x8, x1
   81730:	d0000021 	adrp	x1, 87000 <anon.18d3f1f317091c7eeaf7c365eb201f34.15.llvm.3855770260100345529+0x38>
   81734:	f9400133 	ldr	x19, [x9]
   81738:	91192021 	add	x1, x1, #0x648
   8173c:	52800122 	mov	w2, #0x9                   	// #9
   81740:	aa0803e0 	mov	x0, x8
   81744:	f9000bfe 	str	x30, [sp, #16]
   81748:	91002274 	add	x20, x19, #0x8
   8174c:	9400136e 	bl	86504 <_ZN4core3fmt9Formatter12debug_struct17ha099bc2c3542888fE>
   81750:	a90007e0 	stp	x0, x1, [sp]
   81754:	d0000021 	adrp	x1, 87000 <anon.18d3f1f317091c7eeaf7c365eb201f34.15.llvm.3855770260100345529+0x38>
   81758:	d0000024 	adrp	x4, 87000 <anon.18d3f1f317091c7eeaf7c365eb201f34.15.llvm.3855770260100345529+0x38>
   8175c:	91194421 	add	x1, x1, #0x651
   81760:	91198084 	add	x4, x4, #0x660
   81764:	910003e0 	mov	x0, sp
   81768:	910063e3 	add	x3, sp, #0x18
   8176c:	52800082 	mov	w2, #0x4                   	// #4
   81770:	f9000ff3 	str	x19, [sp, #24]
   81774:	94000a7a 	bl	8415c <_ZN4core3fmt8builders11DebugStruct5field17h9e0dae53a1c9bd69E>
   81778:	d0000021 	adrp	x1, 87000 <anon.18d3f1f317091c7eeaf7c365eb201f34.15.llvm.3855770260100345529+0x38>
   8177c:	d0000024 	adrp	x4, 87000 <anon.18d3f1f317091c7eeaf7c365eb201f34.15.llvm.3855770260100345529+0x38>
   81780:	91195421 	add	x1, x1, #0x655
   81784:	911a0084 	add	x4, x4, #0x680
   81788:	910003e0 	mov	x0, sp
   8178c:	910063e3 	add	x3, sp, #0x18
   81790:	52800082 	mov	w2, #0x4                   	// #4
   81794:	f9000ff4 	str	x20, [sp, #24]
   81798:	94000a71 	bl	8415c <_ZN4core3fmt8builders11DebugStruct5field17h9e0dae53a1c9bd69E>
   8179c:	910003e0 	mov	x0, sp
   817a0:	94000ae1 	bl	84324 <_ZN4core3fmt8builders11DebugStruct6finish17h3a651c6e351ea651E>
   817a4:	a9424ff4 	ldp	x20, x19, [sp, #32]
   817a8:	f9400bfe 	ldr	x30, [sp, #16]
   817ac:	9100c3ff 	add	sp, sp, #0x30
   817b0:	d65f03c0 	ret

00000000000817b4 <_ZN42_$LT$$RF$T$u20$as$u20$core..fmt..Debug$GT$3fmt17h7a601a9018743adeE.llvm.8677008616706921210>:
   817b4:	d100c3ff 	sub	sp, sp, #0x30
   817b8:	a9024ff4 	stp	x20, x19, [sp, #32]
   817bc:	f9400013 	ldr	x19, [x0]
   817c0:	aa0103e8 	mov	x8, x1
   817c4:	d0000021 	adrp	x1, 87000 <anon.18d3f1f317091c7eeaf7c365eb201f34.15.llvm.3855770260100345529+0x38>
   817c8:	91192021 	add	x1, x1, #0x648
   817cc:	52800122 	mov	w2, #0x9                   	// #9
   817d0:	aa0803e0 	mov	x0, x8
   817d4:	f9000bfe 	str	x30, [sp, #16]
   817d8:	91002274 	add	x20, x19, #0x8
   817dc:	9400134a 	bl	86504 <_ZN4core3fmt9Formatter12debug_struct17ha099bc2c3542888fE>
   817e0:	a90007e0 	stp	x0, x1, [sp]
   817e4:	d0000021 	adrp	x1, 87000 <anon.18d3f1f317091c7eeaf7c365eb201f34.15.llvm.3855770260100345529+0x38>
   817e8:	d0000024 	adrp	x4, 87000 <anon.18d3f1f317091c7eeaf7c365eb201f34.15.llvm.3855770260100345529+0x38>
   817ec:	91194421 	add	x1, x1, #0x651
   817f0:	91198084 	add	x4, x4, #0x660
   817f4:	910003e0 	mov	x0, sp
   817f8:	910063e3 	add	x3, sp, #0x18
   817fc:	52800082 	mov	w2, #0x4                   	// #4
   81800:	f9000ff3 	str	x19, [sp, #24]
   81804:	94000a56 	bl	8415c <_ZN4core3fmt8builders11DebugStruct5field17h9e0dae53a1c9bd69E>
   81808:	d0000021 	adrp	x1, 87000 <anon.18d3f1f317091c7eeaf7c365eb201f34.15.llvm.3855770260100345529+0x38>
   8180c:	d0000024 	adrp	x4, 87000 <anon.18d3f1f317091c7eeaf7c365eb201f34.15.llvm.3855770260100345529+0x38>
   81810:	91195421 	add	x1, x1, #0x655
   81814:	911a0084 	add	x4, x4, #0x680
   81818:	910003e0 	mov	x0, sp
   8181c:	910063e3 	add	x3, sp, #0x18
   81820:	52800082 	mov	w2, #0x4                   	// #4
   81824:	f9000ff4 	str	x20, [sp, #24]
   81828:	94000a4d 	bl	8415c <_ZN4core3fmt8builders11DebugStruct5field17h9e0dae53a1c9bd69E>
   8182c:	910003e0 	mov	x0, sp
   81830:	94000abd 	bl	84324 <_ZN4core3fmt8builders11DebugStruct6finish17h3a651c6e351ea651E>
   81834:	a9424ff4 	ldp	x20, x19, [sp, #32]
   81838:	f9400bfe 	ldr	x30, [sp, #16]
   8183c:	9100c3ff 	add	sp, sp, #0x30
   81840:	d65f03c0 	ret

0000000000081844 <_ZN4core3ptr53drop_in_place$LT$core..alloc..layout..LayoutError$GT$17hec8456105ee5cddfE.llvm.8677008616706921210>:
   81844:	d65f03c0 	ret

0000000000081848 <_ZN42_$LT$$RF$T$u20$as$u20$core..fmt..Debug$GT$3fmt17hc492306d84ce20a8E>:
   81848:	d101c3ff 	sub	sp, sp, #0x70
   8184c:	a9064ff4 	stp	x20, x19, [sp, #96]
   81850:	f9400013 	ldr	x19, [x0]
   81854:	aa0103e8 	mov	x8, x1
   81858:	d0000021 	adrp	x1, 87000 <anon.18d3f1f317091c7eeaf7c365eb201f34.15.llvm.3855770260100345529+0x38>
   8185c:	911b6021 	add	x1, x1, #0x6d8
   81860:	52800102 	mov	w2, #0x8                   	// #8
   81864:	aa0803e0 	mov	x0, x8
   81868:	a9026ffe 	stp	x30, x27, [sp, #32]
   8186c:	a90367fa 	stp	x26, x25, [sp, #48]
   81870:	a9045ff8 	stp	x24, x23, [sp, #64]
   81874:	a90557f6 	stp	x22, x21, [sp, #80]
   81878:	91001279 	add	x25, x19, #0x4
   8187c:	9100227a 	add	x26, x19, #0x8
   81880:	9100327b 	add	x27, x19, #0xc
   81884:	91004278 	add	x24, x19, #0x10
   81888:	91005277 	add	x23, x19, #0x14
   8188c:	91006276 	add	x22, x19, #0x18
   81890:	91007275 	add	x21, x19, #0x1c
   81894:	91008274 	add	x20, x19, #0x20
   81898:	9400131b 	bl	86504 <_ZN4core3fmt9Formatter12debug_struct17ha099bc2c3542888fE>
   8189c:	f9000ff3 	str	x19, [sp, #24]
   818a0:	d0000033 	adrp	x19, 87000 <anon.18d3f1f317091c7eeaf7c365eb201f34.15.llvm.3855770260100345529+0x38>
   818a4:	a90007e0 	stp	x0, x1, [sp]
   818a8:	d0000021 	adrp	x1, 87000 <anon.18d3f1f317091c7eeaf7c365eb201f34.15.llvm.3855770260100345529+0x38>
   818ac:	911bc273 	add	x19, x19, #0x6f0
   818b0:	911b8021 	add	x1, x1, #0x6e0
   818b4:	910003e0 	mov	x0, sp
   818b8:	910063e3 	add	x3, sp, #0x18
   818bc:	52800122 	mov	w2, #0x9                   	// #9
   818c0:	aa1303e4 	mov	x4, x19
   818c4:	94000a26 	bl	8415c <_ZN4core3fmt8builders11DebugStruct5field17h9e0dae53a1c9bd69E>
   818c8:	d0000021 	adrp	x1, 87000 <anon.18d3f1f317091c7eeaf7c365eb201f34.15.llvm.3855770260100345529+0x38>
   818cc:	911c4021 	add	x1, x1, #0x710
   818d0:	910003e0 	mov	x0, sp
   818d4:	910063e3 	add	x3, sp, #0x18
   818d8:	52800142 	mov	w2, #0xa                   	// #10
   818dc:	aa1303e4 	mov	x4, x19
   818e0:	f9000ff9 	str	x25, [sp, #24]
   818e4:	94000a1e 	bl	8415c <_ZN4core3fmt8builders11DebugStruct5field17h9e0dae53a1c9bd69E>
   818e8:	d0000021 	adrp	x1, 87000 <anon.18d3f1f317091c7eeaf7c365eb201f34.15.llvm.3855770260100345529+0x38>
   818ec:	911c6821 	add	x1, x1, #0x71a
   818f0:	910003e0 	mov	x0, sp
   818f4:	910063e3 	add	x3, sp, #0x18
   818f8:	52800122 	mov	w2, #0x9                   	// #9
   818fc:	aa1303e4 	mov	x4, x19
   81900:	f9000ffa 	str	x26, [sp, #24]
   81904:	94000a16 	bl	8415c <_ZN4core3fmt8builders11DebugStruct5field17h9e0dae53a1c9bd69E>
   81908:	d0000021 	adrp	x1, 87000 <anon.18d3f1f317091c7eeaf7c365eb201f34.15.llvm.3855770260100345529+0x38>
   8190c:	911c8c21 	add	x1, x1, #0x723
   81910:	910003e0 	mov	x0, sp
   81914:	910063e3 	add	x3, sp, #0x18
   81918:	52800142 	mov	w2, #0xa                   	// #10
   8191c:	aa1303e4 	mov	x4, x19
   81920:	f9000ffb 	str	x27, [sp, #24]
   81924:	94000a0e 	bl	8415c <_ZN4core3fmt8builders11DebugStruct5field17h9e0dae53a1c9bd69E>
   81928:	d0000021 	adrp	x1, 87000 <anon.18d3f1f317091c7eeaf7c365eb201f34.15.llvm.3855770260100345529+0x38>
   8192c:	911cb421 	add	x1, x1, #0x72d
   81930:	910003e0 	mov	x0, sp
   81934:	910063e3 	add	x3, sp, #0x18
   81938:	52800122 	mov	w2, #0x9                   	// #9
   8193c:	aa1303e4 	mov	x4, x19
   81940:	f9000ff8 	str	x24, [sp, #24]
   81944:	94000a06 	bl	8415c <_ZN4core3fmt8builders11DebugStruct5field17h9e0dae53a1c9bd69E>
   81948:	d0000021 	adrp	x1, 87000 <anon.18d3f1f317091c7eeaf7c365eb201f34.15.llvm.3855770260100345529+0x38>
   8194c:	911cd821 	add	x1, x1, #0x736
   81950:	910003e0 	mov	x0, sp
   81954:	910063e3 	add	x3, sp, #0x18
   81958:	52800142 	mov	w2, #0xa                   	// #10
   8195c:	aa1303e4 	mov	x4, x19
   81960:	f9000ff7 	str	x23, [sp, #24]
   81964:	940009fe 	bl	8415c <_ZN4core3fmt8builders11DebugStruct5field17h9e0dae53a1c9bd69E>
   81968:	d0000021 	adrp	x1, 87000 <anon.18d3f1f317091c7eeaf7c365eb201f34.15.llvm.3855770260100345529+0x38>
   8196c:	911d0021 	add	x1, x1, #0x740
   81970:	910003e0 	mov	x0, sp
   81974:	910063e3 	add	x3, sp, #0x18
   81978:	528000a2 	mov	w2, #0x5                   	// #5
   8197c:	aa1303e4 	mov	x4, x19
   81980:	f9000ff6 	str	x22, [sp, #24]
   81984:	940009f6 	bl	8415c <_ZN4core3fmt8builders11DebugStruct5field17h9e0dae53a1c9bd69E>
   81988:	d0000021 	adrp	x1, 87000 <anon.18d3f1f317091c7eeaf7c365eb201f34.15.llvm.3855770260100345529+0x38>
   8198c:	911d1421 	add	x1, x1, #0x745
   81990:	910003e0 	mov	x0, sp
   81994:	910063e3 	add	x3, sp, #0x18
   81998:	52800122 	mov	w2, #0x9                   	// #9
   8199c:	aa1303e4 	mov	x4, x19
   819a0:	f9000ff5 	str	x21, [sp, #24]
   819a4:	940009ee 	bl	8415c <_ZN4core3fmt8builders11DebugStruct5field17h9e0dae53a1c9bd69E>
   819a8:	d0000021 	adrp	x1, 87000 <anon.18d3f1f317091c7eeaf7c365eb201f34.15.llvm.3855770260100345529+0x38>
   819ac:	911d3821 	add	x1, x1, #0x74e
   819b0:	910003e0 	mov	x0, sp
   819b4:	910063e3 	add	x3, sp, #0x18
   819b8:	528000a2 	mov	w2, #0x5                   	// #5
   819bc:	aa1303e4 	mov	x4, x19
   819c0:	f9000ff4 	str	x20, [sp, #24]
   819c4:	940009e6 	bl	8415c <_ZN4core3fmt8builders11DebugStruct5field17h9e0dae53a1c9bd69E>
   819c8:	910003e0 	mov	x0, sp
   819cc:	94000a56 	bl	84324 <_ZN4core3fmt8builders11DebugStruct6finish17h3a651c6e351ea651E>
   819d0:	a9464ff4 	ldp	x20, x19, [sp, #96]
   819d4:	a94557f6 	ldp	x22, x21, [sp, #80]
   819d8:	a9445ff8 	ldp	x24, x23, [sp, #64]
   819dc:	a94367fa 	ldp	x26, x25, [sp, #48]
   819e0:	a9426ffe 	ldp	x30, x27, [sp, #32]
   819e4:	9101c3ff 	add	sp, sp, #0x70
   819e8:	d65f03c0 	ret

00000000000819ec <_ZN4core3ptr28drop_in_place$LT$$RF$u32$GT$17hdcb01ce988628407E>:
   819ec:	d65f03c0 	ret

00000000000819f0 <_ZN4core3fmt5Write10write_char17h9f4acd8d4fa5d751E.llvm.5130275823303334094>:
   819f0:	f81f0ffe 	str	x30, [sp, #-16]!
   819f4:	7102003f 	cmp	w1, #0x80
   819f8:	b9000fff 	str	wzr, [sp, #12]
   819fc:	54000082 	b.cs	81a0c <_ZN4core3fmt5Write10write_char17h9f4acd8d4fa5d751E.llvm.5130275823303334094+0x1c>  // b.hs, b.nlast
   81a00:	390033e1 	strb	w1, [sp, #12]
   81a04:	52800022 	mov	w2, #0x1                   	// #1
   81a08:	14000025 	b	81a9c <_ZN4core3fmt5Write10write_char17h9f4acd8d4fa5d751E.llvm.5130275823303334094+0xac>
   81a0c:	7120003f 	cmp	w1, #0x800
   81a10:	54000122 	b.cs	81a34 <_ZN4core3fmt5Write10write_char17h9f4acd8d4fa5d751E.llvm.5130275823303334094+0x44>  // b.hs, b.nlast
   81a14:	53067c28 	lsr	w8, w1, #6
   81a18:	52801009 	mov	w9, #0x80                  	// #128
   81a1c:	321a0508 	orr	w8, w8, #0xc0
   81a20:	33001429 	bfxil	w9, w1, #0, #6
   81a24:	390033e8 	strb	w8, [sp, #12]
   81a28:	390037e9 	strb	w9, [sp, #13]
   81a2c:	52800042 	mov	w2, #0x2                   	// #2
   81a30:	1400001b 	b	81a9c <_ZN4core3fmt5Write10write_char17h9f4acd8d4fa5d751E.llvm.5130275823303334094+0xac>
   81a34:	7140403f 	cmp	w1, #0x10, lsl #12
   81a38:	54000182 	b.cs	81a68 <_ZN4core3fmt5Write10write_char17h9f4acd8d4fa5d751E.llvm.5130275823303334094+0x78>  // b.hs, b.nlast
   81a3c:	530c7c28 	lsr	w8, w1, #12
   81a40:	52801009 	mov	w9, #0x80                  	// #128
   81a44:	5280100a 	mov	w10, #0x80                  	// #128
   81a48:	321b0908 	orr	w8, w8, #0xe0
   81a4c:	33062c2a 	bfxil	w10, w1, #6, #6
   81a50:	33001429 	bfxil	w9, w1, #0, #6
   81a54:	390033e8 	strb	w8, [sp, #12]
   81a58:	390037ea 	strb	w10, [sp, #13]
   81a5c:	39003be9 	strb	w9, [sp, #14]
   81a60:	52800062 	mov	w2, #0x3                   	// #3
   81a64:	1400000e 	b	81a9c <_ZN4core3fmt5Write10write_char17h9f4acd8d4fa5d751E.llvm.5130275823303334094+0xac>
   81a68:	53127c28 	lsr	w8, w1, #18
   81a6c:	52801009 	mov	w9, #0x80                  	// #128
   81a70:	5280100a 	mov	w10, #0x80                  	// #128
   81a74:	5280100b 	mov	w11, #0x80                  	// #128
   81a78:	321c0d08 	orr	w8, w8, #0xf0
   81a7c:	330c442a 	bfxil	w10, w1, #12, #6
   81a80:	33062c2b 	bfxil	w11, w1, #6, #6
   81a84:	33001429 	bfxil	w9, w1, #0, #6
   81a88:	52800082 	mov	w2, #0x4                   	// #4
   81a8c:	390033e8 	strb	w8, [sp, #12]
   81a90:	390037ea 	strb	w10, [sp, #13]
   81a94:	39003beb 	strb	w11, [sp, #14]
   81a98:	39003fe9 	strb	w9, [sp, #15]
   81a9c:	f9400400 	ldr	x0, [x0, #8]
   81aa0:	910033e1 	add	x1, sp, #0xc
   81aa4:	940000ed 	bl	81e58 <_ZN8graph_os8platform6raspi34uart14UARTController5write17h14e13fbd0204fec3E.llvm.5130275823303334094>
   81aa8:	2a1f03e0 	mov	w0, wzr
   81aac:	f84107fe 	ldr	x30, [sp], #16
   81ab0:	d65f03c0 	ret

0000000000081ab4 <_ZN4core3fmt5Write9write_fmt17h0ea9dafc119e2e3fE.llvm.5130275823303334094>:
   81ab4:	d10103ff 	sub	sp, sp, #0x40
   81ab8:	a90303fe 	stp	x30, x0, [sp, #48]
   81abc:	910003e0 	mov	x0, sp
   81ac0:	52800602 	mov	w2, #0x30                  	// #48
   81ac4:	94001414 	bl	86b14 <memcpy>
   81ac8:	d0000021 	adrp	x1, 87000 <anon.18d3f1f317091c7eeaf7c365eb201f34.15.llvm.3855770260100345529+0x38>
   81acc:	911d6021 	add	x1, x1, #0x758
   81ad0:	9100e3e0 	add	x0, sp, #0x38
   81ad4:	910003e2 	mov	x2, sp
   81ad8:	94001007 	bl	85af4 <_ZN4core3fmt5write17hb5f6a3bd29bb9808E>
   81adc:	f9401bfe 	ldr	x30, [sp, #48]
   81ae0:	910103ff 	add	sp, sp, #0x40
   81ae4:	d65f03c0 	ret

0000000000081ae8 <_ZN4core3ptr29drop_in_place$LT$$LP$$RP$$GT$17h9059fd73c1f28b3bE.llvm.5130275823303334094>:
   81ae8:	d65f03c0 	ret

0000000000081aec <_ZN50_$LT$$RF$mut$u20$W$u20$as$u20$core..fmt..Write$GT$10write_char17h2210d1eabe8bd62eE>:
   81aec:	f81f0ffe 	str	x30, [sp, #-16]!
   81af0:	f9400008 	ldr	x8, [x0]
   81af4:	7102003f 	cmp	w1, #0x80
   81af8:	b9000fff 	str	wzr, [sp, #12]
   81afc:	54000082 	b.cs	81b0c <_ZN50_$LT$$RF$mut$u20$W$u20$as$u20$core..fmt..Write$GT$10write_char17h2210d1eabe8bd62eE+0x20>  // b.hs, b.nlast
   81b00:	390033e1 	strb	w1, [sp, #12]
   81b04:	52800022 	mov	w2, #0x1                   	// #1
   81b08:	14000025 	b	81b9c <_ZN50_$LT$$RF$mut$u20$W$u20$as$u20$core..fmt..Write$GT$10write_char17h2210d1eabe8bd62eE+0xb0>
   81b0c:	7120003f 	cmp	w1, #0x800
   81b10:	54000122 	b.cs	81b34 <_ZN50_$LT$$RF$mut$u20$W$u20$as$u20$core..fmt..Write$GT$10write_char17h2210d1eabe8bd62eE+0x48>  // b.hs, b.nlast
   81b14:	53067c29 	lsr	w9, w1, #6
   81b18:	5280100a 	mov	w10, #0x80                  	// #128
   81b1c:	321a0529 	orr	w9, w9, #0xc0
   81b20:	3300142a 	bfxil	w10, w1, #0, #6
   81b24:	390033e9 	strb	w9, [sp, #12]
   81b28:	390037ea 	strb	w10, [sp, #13]
   81b2c:	52800042 	mov	w2, #0x2                   	// #2
   81b30:	1400001b 	b	81b9c <_ZN50_$LT$$RF$mut$u20$W$u20$as$u20$core..fmt..Write$GT$10write_char17h2210d1eabe8bd62eE+0xb0>
   81b34:	7140403f 	cmp	w1, #0x10, lsl #12
   81b38:	54000182 	b.cs	81b68 <_ZN50_$LT$$RF$mut$u20$W$u20$as$u20$core..fmt..Write$GT$10write_char17h2210d1eabe8bd62eE+0x7c>  // b.hs, b.nlast
   81b3c:	530c7c29 	lsr	w9, w1, #12
   81b40:	5280100a 	mov	w10, #0x80                  	// #128
   81b44:	5280100b 	mov	w11, #0x80                  	// #128
   81b48:	321b0929 	orr	w9, w9, #0xe0
   81b4c:	33062c2b 	bfxil	w11, w1, #6, #6
   81b50:	3300142a 	bfxil	w10, w1, #0, #6
   81b54:	390033e9 	strb	w9, [sp, #12]
   81b58:	390037eb 	strb	w11, [sp, #13]
   81b5c:	39003bea 	strb	w10, [sp, #14]
   81b60:	52800062 	mov	w2, #0x3                   	// #3
   81b64:	1400000e 	b	81b9c <_ZN50_$LT$$RF$mut$u20$W$u20$as$u20$core..fmt..Write$GT$10write_char17h2210d1eabe8bd62eE+0xb0>
   81b68:	53127c29 	lsr	w9, w1, #18
   81b6c:	5280100a 	mov	w10, #0x80                  	// #128
   81b70:	5280100b 	mov	w11, #0x80                  	// #128
   81b74:	5280100c 	mov	w12, #0x80                  	// #128
   81b78:	321c0d29 	orr	w9, w9, #0xf0
   81b7c:	330c442b 	bfxil	w11, w1, #12, #6
   81b80:	33062c2c 	bfxil	w12, w1, #6, #6
   81b84:	3300142a 	bfxil	w10, w1, #0, #6
   81b88:	52800082 	mov	w2, #0x4                   	// #4
   81b8c:	390033e9 	strb	w9, [sp, #12]
   81b90:	390037eb 	strb	w11, [sp, #13]
   81b94:	39003bec 	strb	w12, [sp, #14]
   81b98:	39003fea 	strb	w10, [sp, #15]
   81b9c:	f9400500 	ldr	x0, [x8, #8]
   81ba0:	910033e1 	add	x1, sp, #0xc
   81ba4:	940000ad 	bl	81e58 <_ZN8graph_os8platform6raspi34uart14UARTController5write17h14e13fbd0204fec3E.llvm.5130275823303334094>
   81ba8:	2a1f03e0 	mov	w0, wzr
   81bac:	f84107fe 	ldr	x30, [sp], #16
   81bb0:	d65f03c0 	ret

0000000000081bb4 <_ZN50_$LT$$RF$mut$u20$W$u20$as$u20$core..fmt..Write$GT$9write_fmt17h3a141ae5690efff5E>:
   81bb4:	d10103ff 	sub	sp, sp, #0x40
   81bb8:	f9400008 	ldr	x8, [x0]
   81bbc:	910003e0 	mov	x0, sp
   81bc0:	52800602 	mov	w2, #0x30                  	// #48
   81bc4:	a90323fe 	stp	x30, x8, [sp, #48]
   81bc8:	940013d3 	bl	86b14 <memcpy>
   81bcc:	d0000021 	adrp	x1, 87000 <anon.18d3f1f317091c7eeaf7c365eb201f34.15.llvm.3855770260100345529+0x38>
   81bd0:	911d6021 	add	x1, x1, #0x758
   81bd4:	9100e3e0 	add	x0, sp, #0x38
   81bd8:	910003e2 	mov	x2, sp
   81bdc:	94000fc6 	bl	85af4 <_ZN4core3fmt5write17hb5f6a3bd29bb9808E>
   81be0:	f9401bfe 	ldr	x30, [sp, #48]
   81be4:	910103ff 	add	sp, sp, #0x40
   81be8:	d65f03c0 	ret

0000000000081bec <_ZN50_$LT$$RF$mut$u20$W$u20$as$u20$core..fmt..Write$GT$9write_str17h2a8c964aeab67024E>:
   81bec:	f81f0ffe 	str	x30, [sp, #-16]!
   81bf0:	f9400008 	ldr	x8, [x0]
   81bf4:	f9400500 	ldr	x0, [x8, #8]
   81bf8:	94000098 	bl	81e58 <_ZN8graph_os8platform6raspi34uart14UARTController5write17h14e13fbd0204fec3E.llvm.5130275823303334094>
   81bfc:	2a1f03e0 	mov	w0, wzr
   81c00:	f84107fe 	ldr	x30, [sp], #16
   81c04:	d65f03c0 	ret

0000000000081c08 <_ZN85_$LT$graph_os..platform..raspi3..uart..UARTController$u20$as$u20$core..fmt..Write$GT$9write_str17h140e0b088704102eE.llvm.5130275823303334094>:
   81c08:	f81f0ffe 	str	x30, [sp, #-16]!
   81c0c:	f9400400 	ldr	x0, [x0, #8]
   81c10:	94000092 	bl	81e58 <_ZN8graph_os8platform6raspi34uart14UARTController5write17h14e13fbd0204fec3E.llvm.5130275823303334094>
   81c14:	2a1f03e0 	mov	w0, wzr
   81c18:	f84107fe 	ldr	x30, [sp], #16
   81c1c:	d65f03c0 	ret

0000000000081c20 <_ZN8graph_os8platform6raspi34uart14UARTController4init17hc6243bd3960c6e87E>:
   81c20:	f940042a 	ldr	x10, [x1, #8]
   81c24:	52800089 	mov	w9, #0x4                   	// #4
   81c28:	528a000b 	mov	w11, #0x5000                	// #20480
   81c2c:	72a00409 	movk	w9, #0x20, lsl #16
   81c30:	72a0002b 	movk	w11, #0x1, lsl #16
   81c34:	aa0b012b 	orr	x11, x9, x11
   81c38:	eb0b015f 	cmp	x10, x11
   81c3c:	54000b43 	b.cc	81da4 <_ZN8graph_os8platform6raspi34uart14UARTController4init17hc6243bd3960c6e87E+0x184>  // b.lo, b.ul, b.last
   81c40:	f940002a 	ldr	x10, [x1]
   81c44:	8b0a012a 	add	x10, x9, x10
   81c48:	9140554a 	add	x10, x10, #0x15, lsl #12
   81c4c:	b940014b 	ldr	w11, [x10]
   81c50:	3200016b 	orr	w11, w11, #0x1
   81c54:	b900014b 	str	w11, [x10]
   81c58:	f940042b 	ldr	x11, [x1, #8]
   81c5c:	528a0c0a 	mov	w10, #0x5060                	// #20576
   81c60:	72a0042a 	movk	w10, #0x21, lsl #16
   81c64:	eb0a017f 	cmp	x11, x10
   81c68:	54000903 	b.cc	81d88 <_ZN8graph_os8platform6raspi34uart14UARTController4init17hc6243bd3960c6e87E+0x168>  // b.lo, b.ul, b.last
   81c6c:	f940002b 	ldr	x11, [x1]
   81c70:	d100514c 	sub	x12, x10, #0x14
   81c74:	b82a697f 	str	wzr, [x11, x10]
   81c78:	f940042b 	ldr	x11, [x1, #8]
   81c7c:	eb0c017f 	cmp	x11, x12
   81c80:	54000843 	b.cc	81d88 <_ZN8graph_os8platform6raspi34uart14UARTController4init17hc6243bd3960c6e87E+0x168>  // b.lo, b.ul, b.last
   81c84:	f940002b 	ldr	x11, [x1]
   81c88:	5280006c 	mov	w12, #0x3                   	// #3
   81c8c:	8b0b014b 	add	x11, x10, x11
   81c90:	b81ec16c 	stur	w12, [x11, #-20]
   81c94:	f940042b 	ldr	x11, [x1, #8]
   81c98:	d100414c 	sub	x12, x10, #0x10
   81c9c:	eb0c017f 	cmp	x11, x12
   81ca0:	54000743 	b.cc	81d88 <_ZN8graph_os8platform6raspi34uart14UARTController4init17hc6243bd3960c6e87E+0x168>  // b.lo, b.ul, b.last
   81ca4:	f940002b 	ldr	x11, [x1]
   81ca8:	d100714c 	sub	x12, x10, #0x1c
   81cac:	8b0b014b 	add	x11, x10, x11
   81cb0:	b81f017f 	stur	wzr, [x11, #-16]
   81cb4:	f940042b 	ldr	x11, [x1, #8]
   81cb8:	eb0c017f 	cmp	x11, x12
   81cbc:	54000663 	b.cc	81d88 <_ZN8graph_os8platform6raspi34uart14UARTController4init17hc6243bd3960c6e87E+0x168>  // b.lo, b.ul, b.last
   81cc0:	f940002b 	ldr	x11, [x1]
   81cc4:	d100614c 	sub	x12, x10, #0x18
   81cc8:	8b0b014b 	add	x11, x10, x11
   81ccc:	b81e417f 	stur	wzr, [x11, #-28]
   81cd0:	f940042b 	ldr	x11, [x1, #8]
   81cd4:	eb0c017f 	cmp	x11, x12
   81cd8:	54000583 	b.cc	81d88 <_ZN8graph_os8platform6raspi34uart14UARTController4init17hc6243bd3960c6e87E+0x168>  // b.lo, b.ul, b.last
   81cdc:	f940002b 	ldr	x11, [x1]
   81ce0:	528018cc 	mov	w12, #0xc6                  	// #198
   81ce4:	8b0b014b 	add	x11, x10, x11
   81ce8:	b81e816c 	stur	w12, [x11, #-24]
   81cec:	f940042b 	ldr	x11, [x1, #8]
   81cf0:	9100214c 	add	x12, x10, #0x8
   81cf4:	eb0c017f 	cmp	x11, x12
   81cf8:	54000483 	b.cc	81d88 <_ZN8graph_os8platform6raspi34uart14UARTController4init17hc6243bd3960c6e87E+0x168>  // b.lo, b.ul, b.last
   81cfc:	f940002b 	ldr	x11, [x1]
   81d00:	528021cc 	mov	w12, #0x10e                 	// #270
   81d04:	8b0b014b 	add	x11, x10, x11
   81d08:	b900096c 	str	w12, [x11, #8]
   81d0c:	f940000b 	ldr	x11, [x0]
   81d10:	f940056c 	ldr	x12, [x11, #8]
   81d14:	eb09019f 	cmp	x12, x9
   81d18:	54000463 	b.cc	81da4 <_ZN8graph_os8platform6raspi34uart14UARTController4init17hc6243bd3960c6e87E+0x184>  // b.lo, b.ul, b.last
   81d1c:	f940016c 	ldr	x12, [x11]
   81d20:	528fffeb 	mov	w11, #0x7fff                	// #32767
   81d24:	72bff90b 	movk	w11, #0xffc8, lsl #16
   81d28:	114c256e 	add	w14, w11, #0x309, lsl #12
   81d2c:	b869698d 	ldr	w13, [x12, x9]
   81d30:	0a0e01ad 	and	w13, w13, w14
   81d34:	321301ad 	orr	w13, w13, #0x2000
   81d38:	b829698d 	str	w13, [x12, x9]
   81d3c:	f940000c 	ldr	x12, [x0]
   81d40:	f940058d 	ldr	x13, [x12, #8]
   81d44:	eb0901bf 	cmp	x13, x9
   81d48:	540002e3 	b.cc	81da4 <_ZN8graph_os8platform6raspi34uart14UARTController4init17hc6243bd3960c6e87E+0x184>  // b.lo, b.ul, b.last
   81d4c:	f940018c 	ldr	x12, [x12]
   81d50:	b869698d 	ldr	w13, [x12, x9]
   81d54:	0a0b01ab 	and	w11, w13, w11
   81d58:	3210016b 	orr	w11, w11, #0x10000
   81d5c:	b829698b 	str	w11, [x12, x9]
   81d60:	f9400429 	ldr	x9, [x1, #8]
   81d64:	eb0a013f 	cmp	x9, x10
   81d68:	54000103 	b.cc	81d88 <_ZN8graph_os8platform6raspi34uart14UARTController4init17hc6243bd3960c6e87E+0x168>  // b.lo, b.ul, b.last
   81d6c:	f9400029 	ldr	x9, [x1]
   81d70:	5280006b 	mov	w11, #0x3                   	// #3
   81d74:	b82a692b 	str	w11, [x9, x10]
   81d78:	a9000500 	stp	x0, x1, [x8]
   81d7c:	f900091f 	str	xzr, [x8, #16]
   81d80:	3900611f 	strb	wzr, [x8, #24]
   81d84:	d65f03c0 	ret
   81d88:	d0000020 	adrp	x0, 87000 <anon.18d3f1f317091c7eeaf7c365eb201f34.15.llvm.3855770260100345529+0x38>
   81d8c:	d0000022 	adrp	x2, 87000 <anon.18d3f1f317091c7eeaf7c365eb201f34.15.llvm.3855770260100345529+0x38>
   81d90:	910a0000 	add	x0, x0, #0x280
   81d94:	910b0042 	add	x2, x2, #0x2c0
   81d98:	52800481 	mov	w1, #0x24                  	// #36
   81d9c:	94000acf 	bl	848d8 <_ZN4core9panicking5panic17h44d2e7d60b187585E>
   81da0:	d4200020 	brk	#0x1
   81da4:	d0000020 	adrp	x0, 87000 <anon.18d3f1f317091c7eeaf7c365eb201f34.15.llvm.3855770260100345529+0x38>
   81da8:	d0000022 	adrp	x2, 87000 <anon.18d3f1f317091c7eeaf7c365eb201f34.15.llvm.3855770260100345529+0x38>
   81dac:	910b6000 	add	x0, x0, #0x2d8
   81db0:	910c0042 	add	x2, x2, #0x300
   81db4:	528004a1 	mov	w1, #0x25                  	// #37
   81db8:	94000ac8 	bl	848d8 <_ZN4core9panicking5panic17h44d2e7d60b187585E>
   81dbc:	d4200020 	brk	#0x1

0000000000081dc0 <_ZN8graph_os8platform6raspi34uart14UARTController7newline17h3bac0dbadd4d9f97E>:
   81dc0:	f9400409 	ldr	x9, [x0, #8]
   81dc4:	528a0a88 	mov	w8, #0x5054                	// #20564
   81dc8:	72a00428 	movk	w8, #0x21, lsl #16
   81dcc:	f940052a 	ldr	x10, [x9, #8]
   81dd0:	eb08015f 	cmp	x10, x8
   81dd4:	54000103 	b.cc	81df4 <_ZN8graph_os8platform6raspi34uart14UARTController7newline17h3bac0dbadd4d9f97E+0x34>  // b.lo, b.ul, b.last
   81dd8:	f940012a 	ldr	x10, [x9]
   81ddc:	b868694b 	ldr	w11, [x10, x8]
   81de0:	3728018b 	tbnz	w11, #5, 81e10 <_ZN8graph_os8platform6raspi34uart14UARTController7newline17h3bac0dbadd4d9f97E+0x50>
   81de4:	d503201f 	nop
   81de8:	f940052a 	ldr	x10, [x9, #8]
   81dec:	eb08015f 	cmp	x10, x8
   81df0:	54ffff42 	b.cs	81dd8 <_ZN8graph_os8platform6raspi34uart14UARTController7newline17h3bac0dbadd4d9f97E+0x18>  // b.hs, b.nlast
   81df4:	d0000020 	adrp	x0, 87000 <anon.18d3f1f317091c7eeaf7c365eb201f34.15.llvm.3855770260100345529+0x38>
   81df8:	d0000022 	adrp	x2, 87000 <anon.18d3f1f317091c7eeaf7c365eb201f34.15.llvm.3855770260100345529+0x38>
   81dfc:	910b6000 	add	x0, x0, #0x2d8
   81e00:	910c0042 	add	x2, x2, #0x300
   81e04:	528004a1 	mov	w1, #0x25                  	// #37
   81e08:	94000ab4 	bl	848d8 <_ZN4core9panicking5panic17h44d2e7d60b187585E>
   81e0c:	d4200020 	brk	#0x1
   81e10:	8b0a010a 	add	x10, x8, x10
   81e14:	5280014b 	mov	w11, #0xa                   	// #10
   81e18:	b81ec14b 	stur	w11, [x10, #-20]
   81e1c:	f940052a 	ldr	x10, [x9, #8]
   81e20:	eb08015f 	cmp	x10, x8
   81e24:	54fffe83 	b.cc	81df4 <_ZN8graph_os8platform6raspi34uart14UARTController7newline17h3bac0dbadd4d9f97E+0x34>  // b.lo, b.ul, b.last
   81e28:	f940012a 	ldr	x10, [x9]
   81e2c:	b868694b 	ldr	w11, [x10, x8]
   81e30:	372800cb 	tbnz	w11, #5, 81e48 <_ZN8graph_os8platform6raspi34uart14UARTController7newline17h3bac0dbadd4d9f97E+0x88>
   81e34:	d503201f 	nop
   81e38:	f940052a 	ldr	x10, [x9, #8]
   81e3c:	eb08015f 	cmp	x10, x8
   81e40:	54ffff42 	b.cs	81e28 <_ZN8graph_os8platform6raspi34uart14UARTController7newline17h3bac0dbadd4d9f97E+0x68>  // b.hs, b.nlast
   81e44:	17ffffec 	b	81df4 <_ZN8graph_os8platform6raspi34uart14UARTController7newline17h3bac0dbadd4d9f97E+0x34>
   81e48:	8b0a0108 	add	x8, x8, x10
   81e4c:	528001a9 	mov	w9, #0xd                   	// #13
   81e50:	b81ec109 	stur	w9, [x8, #-20]
   81e54:	d65f03c0 	ret

0000000000081e58 <_ZN8graph_os8platform6raspi34uart14UARTController5write17h14e13fbd0204fec3E.llvm.5130275823303334094>:
   81e58:	b4000802 	cbz	x2, 81f58 <_ZN8graph_os8platform6raspi34uart14UARTController5write17h14e13fbd0204fec3E.llvm.5130275823303334094+0x100>
   81e5c:	528a0a89 	mov	w9, #0x5054                	// #20564
   81e60:	8b020028 	add	x8, x1, x2
   81e64:	72a00429 	movk	w9, #0x21, lsl #16
   81e68:	aa0103eb 	mov	x11, x1
   81e6c:	38c0156c 	ldrsb	w12, [x11], #1
   81e70:	12001d8a 	and	w10, w12, #0xff
   81e74:	37f8006c 	tbnz	w12, #31, 81e80 <_ZN8graph_os8platform6raspi34uart14UARTController5write17h14e13fbd0204fec3E.llvm.5130275823303334094+0x28>
   81e78:	aa0b03e1 	mov	x1, x11
   81e7c:	1400002d 	b	81f30 <_ZN8graph_os8platform6raspi34uart14UARTController5write17h14e13fbd0204fec3E.llvm.5130275823303334094+0xd8>
   81e80:	eb08017f 	cmp	x11, x8
   81e84:	54000260 	b.eq	81ed0 <_ZN8graph_os8platform6raspi34uart14UARTController5write17h14e13fbd0204fec3E.llvm.5130275823303334094+0x78>  // b.none
   81e88:	3940042b 	ldrb	w11, [x1, #1]
   81e8c:	91000821 	add	x1, x1, #0x2
   81e90:	1200156d 	and	w13, w11, #0x3f
   81e94:	71037d5f 	cmp	w10, #0xdf
   81e98:	1200114b 	and	w11, w10, #0x1f
   81e9c:	54000249 	b.ls	81ee4 <_ZN8graph_os8platform6raspi34uart14UARTController5write17h14e13fbd0204fec3E.llvm.5130275823303334094+0x8c>  // b.plast
   81ea0:	eb08003f 	cmp	x1, x8
   81ea4:	54000260 	b.eq	81ef0 <_ZN8graph_os8platform6raspi34uart14UARTController5write17h14e13fbd0204fec3E.llvm.5130275823303334094+0x98>  // b.none
   81ea8:	3840142c 	ldrb	w12, [x1], #1
   81eac:	1200158c 	and	w12, w12, #0x3f
   81eb0:	7103c15f 	cmp	w10, #0xf0
   81eb4:	331a15ac 	bfi	w12, w13, #6, #6
   81eb8:	54000263 	b.cc	81f04 <_ZN8graph_os8platform6raspi34uart14UARTController5write17h14e13fbd0204fec3E.llvm.5130275823303334094+0xac>  // b.lo, b.ul, b.last
   81ebc:	eb08003f 	cmp	x1, x8
   81ec0:	54000280 	b.eq	81f10 <_ZN8graph_os8platform6raspi34uart14UARTController5write17h14e13fbd0204fec3E.llvm.5130275823303334094+0xb8>  // b.none
   81ec4:	3840142a 	ldrb	w10, [x1], #1
   81ec8:	1200154a 	and	w10, w10, #0x3f
   81ecc:	14000012 	b	81f14 <_ZN8graph_os8platform6raspi34uart14UARTController5write17h14e13fbd0204fec3E.llvm.5130275823303334094+0xbc>
   81ed0:	2a1f03ed 	mov	w13, wzr
   81ed4:	aa0803e1 	mov	x1, x8
   81ed8:	71037d5f 	cmp	w10, #0xdf
   81edc:	1200114b 	and	w11, w10, #0x1f
   81ee0:	54fffe08 	b.hi	81ea0 <_ZN8graph_os8platform6raspi34uart14UARTController5write17h14e13fbd0204fec3E.llvm.5130275823303334094+0x48>  // b.pmore
   81ee4:	331a116d 	bfi	w13, w11, #6, #5
   81ee8:	2a0d03ea 	mov	w10, w13
   81eec:	14000011 	b	81f30 <_ZN8graph_os8platform6raspi34uart14UARTController5write17h14e13fbd0204fec3E.llvm.5130275823303334094+0xd8>
   81ef0:	2a1f03ec 	mov	w12, wzr
   81ef4:	aa0803e1 	mov	x1, x8
   81ef8:	7103c15f 	cmp	w10, #0xf0
   81efc:	331a15ac 	bfi	w12, w13, #6, #6
   81f00:	54fffde2 	b.cs	81ebc <_ZN8graph_os8platform6raspi34uart14UARTController5write17h14e13fbd0204fec3E.llvm.5130275823303334094+0x64>  // b.hs, b.nlast
   81f04:	3314116c 	bfi	w12, w11, #12, #5
   81f08:	2a0c03ea 	mov	w10, w12
   81f0c:	14000009 	b	81f30 <_ZN8graph_os8platform6raspi34uart14UARTController5write17h14e13fbd0204fec3E.llvm.5130275823303334094+0xd8>
   81f10:	2a1f03ea 	mov	w10, wzr
   81f14:	530e096b 	ubfiz	w11, w11, #18, #3
   81f18:	331a2d8b 	bfi	w11, w12, #6, #12
   81f1c:	2a0a016a 	orr	w10, w11, w10
   81f20:	7144415f 	cmp	w10, #0x110, lsl #12
   81f24:	54000061 	b.ne	81f30 <_ZN8graph_os8platform6raspi34uart14UARTController5write17h14e13fbd0204fec3E.llvm.5130275823303334094+0xd8>  // b.any
   81f28:	1400000c 	b	81f58 <_ZN8graph_os8platform6raspi34uart14UARTController5write17h14e13fbd0204fec3E.llvm.5130275823303334094+0x100>
   81f2c:	d503201f 	nop
   81f30:	f940040b 	ldr	x11, [x0, #8]
   81f34:	eb09017f 	cmp	x11, x9
   81f38:	54000123 	b.cc	81f5c <_ZN8graph_os8platform6raspi34uart14UARTController5write17h14e13fbd0204fec3E.llvm.5130275823303334094+0x104>  // b.lo, b.ul, b.last
   81f3c:	f940000b 	ldr	x11, [x0]
   81f40:	b869696c 	ldr	w12, [x11, x9]
   81f44:	362fff4c 	tbz	w12, #5, 81f2c <_ZN8graph_os8platform6raspi34uart14UARTController5write17h14e13fbd0204fec3E.llvm.5130275823303334094+0xd4>
   81f48:	8b0b012b 	add	x11, x9, x11
   81f4c:	eb08003f 	cmp	x1, x8
   81f50:	b81ec16a 	stur	w10, [x11, #-20]
   81f54:	54fff8a1 	b.ne	81e68 <_ZN8graph_os8platform6raspi34uart14UARTController5write17h14e13fbd0204fec3E.llvm.5130275823303334094+0x10>  // b.any
   81f58:	d65f03c0 	ret
   81f5c:	d0000020 	adrp	x0, 87000 <anon.18d3f1f317091c7eeaf7c365eb201f34.15.llvm.3855770260100345529+0x38>
   81f60:	d0000022 	adrp	x2, 87000 <anon.18d3f1f317091c7eeaf7c365eb201f34.15.llvm.3855770260100345529+0x38>
   81f64:	910b6000 	add	x0, x0, #0x2d8
   81f68:	910c0042 	add	x2, x2, #0x300
   81f6c:	528004a1 	mov	w1, #0x25                  	// #37
   81f70:	94000a5a 	bl	848d8 <_ZN4core9panicking5panic17h44d2e7d60b187585E>
   81f74:	d4200020 	brk	#0x1

0000000000081f78 <_ZN8graph_os8platform6raspi34uart14UARTController12update_debug17h647d6e6964032dd1E.llvm.5130275823303334094>:
   81f78:	d10203ff 	sub	sp, sp, #0x80
   81f7c:	f9400808 	ldr	x8, [x0, #16]
   81f80:	39406009 	ldrb	w9, [x0, #24]
   81f84:	f9003bfe 	str	x30, [sp, #112]
   81f88:	91000508 	add	x8, x8, #0x1
   81f8c:	7100053f 	cmp	w9, #0x1
   81f90:	f9000808 	str	x8, [x0, #16]
   81f94:	540003c1 	b.ne	8200c <_ZN8graph_os8platform6raspi34uart14UARTController12update_debug17h647d6e6964032dd1E.llvm.5130275823303334094+0x94>  // b.any
   81f98:	f90003e8 	str	x8, [sp]
   81f9c:	d538424a 	mrs	x10, currentel
   81fa0:	90000029 	adrp	x9, 85000 <_ZN4core7unicode9printable5check17h3df87d4e8e554ccdE.llvm.5445877691761700591+0x4c>
   81fa4:	d3420d4a 	ubfx	x10, x10, #2, #2
   81fa8:	910003e8 	mov	x8, sp
   81fac:	91098129 	add	x9, x9, #0x260
   81fb0:	f9001fea 	str	x10, [sp, #56]
   81fb4:	d53800aa 	mrs	x10, mpidr_el1
   81fb8:	a900a7e8 	stp	x8, x9, [sp, #8]
   81fbc:	d0000028 	adrp	x8, 87000 <anon.18d3f1f317091c7eeaf7c365eb201f34.15.llvm.3855770260100345529+0x38>
   81fc0:	911f0108 	add	x8, x8, #0x7c0
   81fc4:	52800089 	mov	w9, #0x4                   	// #4
   81fc8:	9000002c 	adrp	x12, 85000 <_ZN4core7unicode9printable5check17h3df87d4e8e554ccdE.llvm.5445877691761700591+0x4c>
   81fcc:	a90427e8 	stp	x8, x9, [sp, #64]
   81fd0:	92401d49 	and	x9, x10, #0xff
   81fd4:	d0000021 	adrp	x1, 87000 <anon.18d3f1f317091c7eeaf7c365eb201f34.15.llvm.3855770260100345529+0x38>
   81fd8:	9100e3eb 	add	x11, sp, #0x38
   81fdc:	9109818c 	add	x12, x12, #0x260
   81fe0:	9101e3ed 	add	x13, sp, #0x78
   81fe4:	910023e8 	add	x8, sp, #0x8
   81fe8:	f9003fe9 	str	x9, [sp, #120]
   81fec:	52800069 	mov	w9, #0x3                   	// #3
   81ff0:	911e2021 	add	x1, x1, #0x788
   81ff4:	910103e2 	add	x2, sp, #0x40
   81ff8:	a901b3eb 	stp	x11, x12, [sp, #24]
   81ffc:	a902b3ed 	stp	x13, x12, [sp, #40]
   82000:	a9057fff 	stp	xzr, xzr, [sp, #80]
   82004:	a90627e8 	stp	x8, x9, [sp, #96]
   82008:	94000ebb 	bl	85af4 <_ZN4core3fmt5write17hb5f6a3bd29bb9808E>
   8200c:	f9403bfe 	ldr	x30, [sp, #112]
   82010:	910203ff 	add	sp, sp, #0x80
   82014:	d65f03c0 	ret

0000000000082018 <rust_begin_unwind>:
   82018:	d10443ff 	sub	sp, sp, #0x110
   8201c:	b0000028 	adrp	x8, 87000 <anon.18d3f1f317091c7eeaf7c365eb201f34.15.llvm.3855770260100345529+0x38>
   82020:	3dc0d100 	ldr	q0, [x8, #832]
   82024:	910003e8 	mov	x8, sp
   82028:	a9104ff4 	stp	x20, x19, [sp, #256]
   8202c:	aa0003f3 	mov	x19, x0
   82030:	52800114 	mov	w20, #0x8                   	// #8
   82034:	f9000be8 	str	x8, [sp, #16]
   82038:	910063e8 	add	x8, sp, #0x18
   8203c:	910043e0 	add	x0, sp, #0x10
   82040:	910003e1 	mov	x1, sp
   82044:	f90073fd 	str	x29, [sp, #224]
   82048:	a90f57fe 	stp	x30, x21, [sp, #240]
   8204c:	72a00414 	movk	w20, #0x20, lsl #16
   82050:	3d8003e0 	str	q0, [sp]
   82054:	97fffef3 	bl	81c20 <_ZN8graph_os8platform6raspi34uart14UARTController4init17hc6243bd3960c6e87E>
   82058:	f9400be8 	ldr	x8, [sp, #16]
   8205c:	d100128a 	sub	x10, x20, #0x4
   82060:	f9400509 	ldr	x9, [x8, #8]
   82064:	eb0a013f 	cmp	x9, x10
   82068:	54002be3 	b.cc	825e4 <rust_begin_unwind+0x5cc>  // b.lo, b.ul, b.last
   8206c:	f9400109 	ldr	x9, [x8]
   82070:	8b09028a 	add	x10, x20, x9
   82074:	b85fc14b 	ldur	w11, [x10, #-4]
   82078:	12a1bc09 	mov	w9, #0xf21fffff            	// #-232783873
   8207c:	0a09016b 	and	w11, w11, w9
   82080:	320b016b 	orr	w11, w11, #0x200000
   82084:	b81fc14b 	stur	w11, [x10, #-4]
   82088:	f940050a 	ldr	x10, [x8, #8]
   8208c:	eb14015f 	cmp	x10, x20
   82090:	54002aa3 	b.cc	825e4 <rust_begin_unwind+0x5cc>  // b.lo, b.ul, b.last
   82094:	f940010a 	ldr	x10, [x8]
   82098:	b874694b 	ldr	w11, [x10, x20]
   8209c:	0a090169 	and	w9, w11, w9
   820a0:	320b0129 	orr	w9, w9, #0x200000
   820a4:	b8346949 	str	w9, [x10, x20]
   820a8:	f9400509 	ldr	x9, [x8, #8]
   820ac:	eb14013f 	cmp	x9, x20
   820b0:	540029a3 	b.cc	825e4 <rust_begin_unwind+0x5cc>  // b.lo, b.ul, b.last
   820b4:	f9400108 	ldr	x8, [x8]
   820b8:	1283780a 	mov	w10, #0xffffe43f            	// #-7105
   820bc:	b8746909 	ldr	w9, [x8, x20]
   820c0:	0a0a0129 	and	w9, w9, w10
   820c4:	321a0129 	orr	w9, w9, #0x40
   820c8:	b8346909 	str	w9, [x8, x20]
   820cc:	f9400be9 	ldr	x9, [sp, #16]
   820d0:	91008288 	add	x8, x20, #0x20
   820d4:	f940052a 	ldr	x10, [x9, #8]
   820d8:	eb08015f 	cmp	x10, x8
   820dc:	54002843 	b.cc	825e4 <rust_begin_unwind+0x5cc>  // b.lo, b.ul, b.last
   820e0:	f9400129 	ldr	x9, [x9]
   820e4:	b868692a 	ldr	w10, [x9, x8]
   820e8:	3205014a 	orr	w10, w10, #0x8000000
   820ec:	b828692a 	str	w10, [x9, x8]
   820f0:	f9400be9 	ldr	x9, [sp, #16]
   820f4:	f940052a 	ldr	x10, [x9, #8]
   820f8:	eb08015f 	cmp	x10, x8
   820fc:	54002743 	b.cc	825e4 <rust_begin_unwind+0x5cc>  // b.lo, b.ul, b.last
   82100:	f9400128 	ldr	x8, [x9]
   82104:	9100528a 	add	x10, x20, #0x14
   82108:	8b080288 	add	x8, x20, x8
   8210c:	b9402109 	ldr	w9, [x8, #32]
   82110:	320a0129 	orr	w9, w9, #0x400000
   82114:	b9002109 	str	w9, [x8, #32]
   82118:	f9400be8 	ldr	x8, [sp, #16]
   8211c:	f9400509 	ldr	x9, [x8, #8]
   82120:	eb0a013f 	cmp	x9, x10
   82124:	54002603 	b.cc	825e4 <rust_begin_unwind+0x5cc>  // b.lo, b.ul, b.last
   82128:	f9400108 	ldr	x8, [x8]
   8212c:	8b080288 	add	x8, x20, x8
   82130:	b9401509 	ldr	w9, [x8, #20]
   82134:	320f0129 	orr	w9, w9, #0x20000
   82138:	b9001509 	str	w9, [x8, #20]
   8213c:	f94017e8 	ldr	x8, [sp, #40]
   82140:	3940c3e9 	ldrb	w9, [sp, #48]
   82144:	91000508 	add	x8, x8, #0x1
   82148:	7100053f 	cmp	w9, #0x1
   8214c:	f90017e8 	str	x8, [sp, #40]
   82150:	540003e1 	b.ne	821cc <rust_begin_unwind+0x1b4>  // b.any
   82154:	f90077e8 	str	x8, [sp, #232]
   82158:	d538424a 	mrs	x10, currentel
   8215c:	f0000009 	adrp	x9, 85000 <_ZN4core7unicode9printable5check17h3df87d4e8e554ccdE.llvm.5445877691761700591+0x4c>
   82160:	d3420d4a 	ubfx	x10, x10, #2, #2
   82164:	9103a3e8 	add	x8, sp, #0xe8
   82168:	91098129 	add	x9, x9, #0x260
   8216c:	f9002fea 	str	x10, [sp, #88]
   82170:	d53800aa 	mrs	x10, mpidr_el1
   82174:	a90727e8 	stp	x8, x9, [sp, #112]
   82178:	b0000028 	adrp	x8, 87000 <anon.18d3f1f317091c7eeaf7c365eb201f34.15.llvm.3855770260100345529+0x38>
   8217c:	911f0108 	add	x8, x8, #0x7c0
   82180:	52800089 	mov	w9, #0x4                   	// #4
   82184:	f000000c 	adrp	x12, 85000 <_ZN4core7unicode9printable5check17h3df87d4e8e554ccdE.llvm.5445877691761700591+0x4c>
   82188:	a90b27e8 	stp	x8, x9, [sp, #176]
   8218c:	92401d49 	and	x9, x10, #0xff
   82190:	b0000021 	adrp	x1, 87000 <anon.18d3f1f317091c7eeaf7c365eb201f34.15.llvm.3855770260100345529+0x38>
   82194:	910163eb 	add	x11, sp, #0x58
   82198:	9109818c 	add	x12, x12, #0x260
   8219c:	9100e3ed 	add	x13, sp, #0x38
   821a0:	9101c3e8 	add	x8, sp, #0x70
   821a4:	f9001fe9 	str	x9, [sp, #56]
   821a8:	52800069 	mov	w9, #0x3                   	// #3
   821ac:	911e2021 	add	x1, x1, #0x788
   821b0:	910063e0 	add	x0, sp, #0x18
   821b4:	9102c3e2 	add	x2, sp, #0xb0
   821b8:	a90833eb 	stp	x11, x12, [sp, #128]
   821bc:	a90933ed 	stp	x13, x12, [sp, #144]
   821c0:	a90c7fff 	stp	xzr, xzr, [sp, #192]
   821c4:	a90d27e8 	stp	x8, x9, [sp, #208]
   821c8:	94000e4b 	bl	85af4 <_ZN4core3fmt5write17hb5f6a3bd29bb9808E>
   821cc:	f94013e0 	ldr	x0, [sp, #32]
   821d0:	b0000021 	adrp	x1, 87000 <anon.18d3f1f317091c7eeaf7c365eb201f34.15.llvm.3855770260100345529+0x38>
   821d4:	91200021 	add	x1, x1, #0x800
   821d8:	aa1f03e2 	mov	x2, xzr
   821dc:	97ffff1f 	bl	81e58 <_ZN8graph_os8platform6raspi34uart14UARTController5write17h14e13fbd0204fec3E.llvm.5130275823303334094>
   821e0:	910063e0 	add	x0, sp, #0x18
   821e4:	97fffef7 	bl	81dc0 <_ZN8graph_os8platform6raspi34uart14UARTController7newline17h3bac0dbadd4d9f97E>
   821e8:	f94017e8 	ldr	x8, [sp, #40]
   821ec:	3940c3e9 	ldrb	w9, [sp, #48]
   821f0:	91000508 	add	x8, x8, #0x1
   821f4:	7100053f 	cmp	w9, #0x1
   821f8:	f90017e8 	str	x8, [sp, #40]
   821fc:	540003e1 	b.ne	82278 <rust_begin_unwind+0x260>  // b.any
   82200:	f90077e8 	str	x8, [sp, #232]
   82204:	d538424a 	mrs	x10, currentel
   82208:	f0000009 	adrp	x9, 85000 <_ZN4core7unicode9printable5check17h3df87d4e8e554ccdE.llvm.5445877691761700591+0x4c>
   8220c:	d3420d4a 	ubfx	x10, x10, #2, #2
   82210:	9103a3e8 	add	x8, sp, #0xe8
   82214:	91098129 	add	x9, x9, #0x260
   82218:	f9002fea 	str	x10, [sp, #88]
   8221c:	d53800aa 	mrs	x10, mpidr_el1
   82220:	a90727e8 	stp	x8, x9, [sp, #112]
   82224:	b0000028 	adrp	x8, 87000 <anon.18d3f1f317091c7eeaf7c365eb201f34.15.llvm.3855770260100345529+0x38>
   82228:	911f0108 	add	x8, x8, #0x7c0
   8222c:	52800089 	mov	w9, #0x4                   	// #4
   82230:	f000000c 	adrp	x12, 85000 <_ZN4core7unicode9printable5check17h3df87d4e8e554ccdE.llvm.5445877691761700591+0x4c>
   82234:	a90b27e8 	stp	x8, x9, [sp, #176]
   82238:	92401d49 	and	x9, x10, #0xff
   8223c:	b0000021 	adrp	x1, 87000 <anon.18d3f1f317091c7eeaf7c365eb201f34.15.llvm.3855770260100345529+0x38>
   82240:	910163eb 	add	x11, sp, #0x58
   82244:	9109818c 	add	x12, x12, #0x260
   82248:	9100e3ed 	add	x13, sp, #0x38
   8224c:	9101c3e8 	add	x8, sp, #0x70
   82250:	f9001fe9 	str	x9, [sp, #56]
   82254:	52800069 	mov	w9, #0x3                   	// #3
   82258:	911e2021 	add	x1, x1, #0x788
   8225c:	910063e0 	add	x0, sp, #0x18
   82260:	9102c3e2 	add	x2, sp, #0xb0
   82264:	a90833eb 	stp	x11, x12, [sp, #128]
   82268:	a90933ed 	stp	x13, x12, [sp, #144]
   8226c:	a90c7fff 	stp	xzr, xzr, [sp, #192]
   82270:	a90d27e8 	stp	x8, x9, [sp, #208]
   82274:	94000e20 	bl	85af4 <_ZN4core3fmt5write17hb5f6a3bd29bb9808E>
   82278:	f94013e0 	ldr	x0, [sp, #32]
   8227c:	b0000021 	adrp	x1, 87000 <anon.18d3f1f317091c7eeaf7c365eb201f34.15.llvm.3855770260100345529+0x38>
   82280:	91200021 	add	x1, x1, #0x800
   82284:	52800382 	mov	w2, #0x1c                  	// #28
   82288:	97fffef4 	bl	81e58 <_ZN8graph_os8platform6raspi34uart14UARTController5write17h14e13fbd0204fec3E.llvm.5130275823303334094>
   8228c:	910063e0 	add	x0, sp, #0x18
   82290:	97fffecc 	bl	81dc0 <_ZN8graph_os8platform6raspi34uart14UARTController7newline17h3bac0dbadd4d9f97E>
   82294:	aa1303e0 	mov	x0, x19
   82298:	94000a03 	bl	84aa4 <_ZN4core5panic9PanicInfo7message17ha3e34dc3062522eeE>
   8229c:	b4000c20 	cbz	x0, 82420 <rust_begin_unwind+0x408>
   822a0:	f9400409 	ldr	x9, [x0, #8]
   822a4:	f9401408 	ldr	x8, [x0, #40]
   822a8:	f100053f 	cmp	x9, #0x1
   822ac:	540000e0 	b.eq	822c8 <rust_begin_unwind+0x2b0>  // b.none
   822b0:	b50000e9 	cbnz	x9, 822cc <rust_begin_unwind+0x2b4>
   822b4:	b50000c8 	cbnz	x8, 822cc <rust_begin_unwind+0x2b4>
   822b8:	b0000035 	adrp	x21, 87000 <anon.18d3f1f317091c7eeaf7c365eb201f34.15.llvm.3855770260100345529+0x38>
   822bc:	aa1f03f4 	mov	x20, xzr
   822c0:	912002b5 	add	x21, x21, #0x800
   822c4:	1400002d 	b	82378 <rust_begin_unwind+0x360>
   822c8:	b4000548 	cbz	x8, 82370 <rust_begin_unwind+0x358>
   822cc:	f94017e8 	ldr	x8, [sp, #40]
   822d0:	3940c3e9 	ldrb	w9, [sp, #48]
   822d4:	91000508 	add	x8, x8, #0x1
   822d8:	7100053f 	cmp	w9, #0x1
   822dc:	f90017e8 	str	x8, [sp, #40]
   822e0:	540003e1 	b.ne	8235c <rust_begin_unwind+0x344>  // b.any
   822e4:	f90077e8 	str	x8, [sp, #232]
   822e8:	d538424a 	mrs	x10, currentel
   822ec:	f0000009 	adrp	x9, 85000 <_ZN4core7unicode9printable5check17h3df87d4e8e554ccdE.llvm.5445877691761700591+0x4c>
   822f0:	d3420d4a 	ubfx	x10, x10, #2, #2
   822f4:	9103a3e8 	add	x8, sp, #0xe8
   822f8:	91098129 	add	x9, x9, #0x260
   822fc:	f9002fea 	str	x10, [sp, #88]
   82300:	d53800aa 	mrs	x10, mpidr_el1
   82304:	a90727e8 	stp	x8, x9, [sp, #112]
   82308:	b0000028 	adrp	x8, 87000 <anon.18d3f1f317091c7eeaf7c365eb201f34.15.llvm.3855770260100345529+0x38>
   8230c:	911f0108 	add	x8, x8, #0x7c0
   82310:	52800089 	mov	w9, #0x4                   	// #4
   82314:	f000000c 	adrp	x12, 85000 <_ZN4core7unicode9printable5check17h3df87d4e8e554ccdE.llvm.5445877691761700591+0x4c>
   82318:	a90b27e8 	stp	x8, x9, [sp, #176]
   8231c:	92401d49 	and	x9, x10, #0xff
   82320:	b0000021 	adrp	x1, 87000 <anon.18d3f1f317091c7eeaf7c365eb201f34.15.llvm.3855770260100345529+0x38>
   82324:	910163eb 	add	x11, sp, #0x58
   82328:	9109818c 	add	x12, x12, #0x260
   8232c:	9100e3ed 	add	x13, sp, #0x38
   82330:	9101c3e8 	add	x8, sp, #0x70
   82334:	f9001fe9 	str	x9, [sp, #56]
   82338:	52800069 	mov	w9, #0x3                   	// #3
   8233c:	911e2021 	add	x1, x1, #0x788
   82340:	910063e0 	add	x0, sp, #0x18
   82344:	9102c3e2 	add	x2, sp, #0xb0
   82348:	a90833eb 	stp	x11, x12, [sp, #128]
   8234c:	a90933ed 	stp	x13, x12, [sp, #144]
   82350:	a90c7fff 	stp	xzr, xzr, [sp, #192]
   82354:	a90d27e8 	stp	x8, x9, [sp, #208]
   82358:	94000de7 	bl	85af4 <_ZN4core3fmt5write17hb5f6a3bd29bb9808E>
   8235c:	f94013e0 	ldr	x0, [sp, #32]
   82360:	b0000021 	adrp	x1, 87000 <anon.18d3f1f317091c7eeaf7c365eb201f34.15.llvm.3855770260100345529+0x38>
   82364:	91207021 	add	x1, x1, #0x81c
   82368:	52800262 	mov	w2, #0x13                  	// #19
   8236c:	1400002a 	b	82414 <rust_begin_unwind+0x3fc>
   82370:	f9400008 	ldr	x8, [x0]
   82374:	a9405115 	ldp	x21, x20, [x8]
   82378:	f94017e8 	ldr	x8, [sp, #40]
   8237c:	3940c3e9 	ldrb	w9, [sp, #48]
   82380:	91000508 	add	x8, x8, #0x1
   82384:	7100053f 	cmp	w9, #0x1
   82388:	f90017e8 	str	x8, [sp, #40]
   8238c:	540003e1 	b.ne	82408 <rust_begin_unwind+0x3f0>  // b.any
   82390:	f90077e8 	str	x8, [sp, #232]
   82394:	d538424a 	mrs	x10, currentel
   82398:	f0000009 	adrp	x9, 85000 <_ZN4core7unicode9printable5check17h3df87d4e8e554ccdE.llvm.5445877691761700591+0x4c>
   8239c:	d3420d4a 	ubfx	x10, x10, #2, #2
   823a0:	9103a3e8 	add	x8, sp, #0xe8
   823a4:	91098129 	add	x9, x9, #0x260
   823a8:	f9002fea 	str	x10, [sp, #88]
   823ac:	d53800aa 	mrs	x10, mpidr_el1
   823b0:	a90727e8 	stp	x8, x9, [sp, #112]
   823b4:	b0000028 	adrp	x8, 87000 <anon.18d3f1f317091c7eeaf7c365eb201f34.15.llvm.3855770260100345529+0x38>
   823b8:	911f0108 	add	x8, x8, #0x7c0
   823bc:	52800089 	mov	w9, #0x4                   	// #4
   823c0:	f000000c 	adrp	x12, 85000 <_ZN4core7unicode9printable5check17h3df87d4e8e554ccdE.llvm.5445877691761700591+0x4c>
   823c4:	a90b27e8 	stp	x8, x9, [sp, #176]
   823c8:	92401d49 	and	x9, x10, #0xff
   823cc:	b0000021 	adrp	x1, 87000 <anon.18d3f1f317091c7eeaf7c365eb201f34.15.llvm.3855770260100345529+0x38>
   823d0:	910163eb 	add	x11, sp, #0x58
   823d4:	9109818c 	add	x12, x12, #0x260
   823d8:	9100e3ed 	add	x13, sp, #0x38
   823dc:	9101c3e8 	add	x8, sp, #0x70
   823e0:	f9001fe9 	str	x9, [sp, #56]
   823e4:	52800069 	mov	w9, #0x3                   	// #3
   823e8:	911e2021 	add	x1, x1, #0x788
   823ec:	910063e0 	add	x0, sp, #0x18
   823f0:	9102c3e2 	add	x2, sp, #0xb0
   823f4:	a90833eb 	stp	x11, x12, [sp, #128]
   823f8:	a90933ed 	stp	x13, x12, [sp, #144]
   823fc:	a90c7fff 	stp	xzr, xzr, [sp, #192]
   82400:	a90d27e8 	stp	x8, x9, [sp, #208]
   82404:	94000dbc 	bl	85af4 <_ZN4core3fmt5write17hb5f6a3bd29bb9808E>
   82408:	f94013e0 	ldr	x0, [sp, #32]
   8240c:	aa1503e1 	mov	x1, x21
   82410:	aa1403e2 	mov	x2, x20
   82414:	97fffe91 	bl	81e58 <_ZN8graph_os8platform6raspi34uart14UARTController5write17h14e13fbd0204fec3E.llvm.5130275823303334094>
   82418:	910063e0 	add	x0, sp, #0x18
   8241c:	97fffe69 	bl	81dc0 <_ZN8graph_os8platform6raspi34uart14UARTController7newline17h3bac0dbadd4d9f97E>
   82420:	aa1303e0 	mov	x0, x19
   82424:	940009a2 	bl	84aac <_ZN4core5panic9PanicInfo8location17hf5c21144beeed54cE>
   82428:	b40006a0 	cbz	x0, 824fc <rust_begin_unwind+0x4e4>
   8242c:	aa0003f3 	mov	x19, x0
   82430:	940009a1 	bl	84ab4 <_ZN4core5panic8Location4file17h237dd86184e47232E>
   82434:	a90587e0 	stp	x0, x1, [sp, #88]
   82438:	aa1303e0 	mov	x0, x19
   8243c:	940009a1 	bl	84ac0 <_ZN4core5panic8Location4line17h9bf8d130953fcd1cE>
   82440:	f94017ec 	ldr	x12, [sp, #40]
   82444:	3940c3ed 	ldrb	w13, [sp, #48]
   82448:	d0ffffe9 	adrp	x9, 80000 <_start>
   8244c:	910163e8 	add	x8, sp, #0x58
   82450:	91255129 	add	x9, x9, #0x954
   82454:	f000000b 	adrp	x11, 85000 <_ZN4core7unicode9printable5check17h3df87d4e8e554ccdE.llvm.5445877691761700591+0x4c>
   82458:	9101b3ea 	add	x10, sp, #0x6c
   8245c:	9103a16b 	add	x11, x11, #0xe8
   82460:	a903a7e8 	stp	x8, x9, [sp, #56]
   82464:	91000588 	add	x8, x12, #0x1
   82468:	710005bf 	cmp	w13, #0x1
   8246c:	b9006fe0 	str	w0, [sp, #108]
   82470:	a904afea 	stp	x10, x11, [sp, #72]
   82474:	f90017e8 	str	x8, [sp, #40]
   82478:	54000961 	b.ne	825a4 <rust_begin_unwind+0x58c>  // b.any
   8247c:	f90053e8 	str	x8, [sp, #160]
   82480:	d538424b 	mrs	x11, currentel
   82484:	f0000009 	adrp	x9, 85000 <_ZN4core7unicode9printable5check17h3df87d4e8e554ccdE.llvm.5445877691761700591+0x4c>
   82488:	d3420d6b 	ubfx	x11, x11, #2, #2
   8248c:	910283e8 	add	x8, sp, #0xa0
   82490:	91098129 	add	x9, x9, #0x260
   82494:	f90057eb 	str	x11, [sp, #168]
   82498:	d53800ab 	mrs	x11, mpidr_el1
   8249c:	a90727e8 	stp	x8, x9, [sp, #112]
   824a0:	b0000028 	adrp	x8, 87000 <anon.18d3f1f317091c7eeaf7c365eb201f34.15.llvm.3855770260100345529+0x38>
   824a4:	911f0108 	add	x8, x8, #0x7c0
   824a8:	52800089 	mov	w9, #0x4                   	// #4
   824ac:	f000000c 	adrp	x12, 85000 <_ZN4core7unicode9printable5check17h3df87d4e8e554ccdE.llvm.5445877691761700591+0x4c>
   824b0:	a90b27e8 	stp	x8, x9, [sp, #176]
   824b4:	92401d69 	and	x9, x11, #0xff
   824b8:	b0000021 	adrp	x1, 87000 <anon.18d3f1f317091c7eeaf7c365eb201f34.15.llvm.3855770260100345529+0x38>
   824bc:	9102a3ea 	add	x10, sp, #0xa8
   824c0:	9109818c 	add	x12, x12, #0x260
   824c4:	9103a3ed 	add	x13, sp, #0xe8
   824c8:	9101c3e8 	add	x8, sp, #0x70
   824cc:	f90077e9 	str	x9, [sp, #232]
   824d0:	52800069 	mov	w9, #0x3                   	// #3
   824d4:	911e2021 	add	x1, x1, #0x788
   824d8:	910063e0 	add	x0, sp, #0x18
   824dc:	9102c3e2 	add	x2, sp, #0xb0
   824e0:	910063f3 	add	x19, sp, #0x18
   824e4:	a90833ea 	stp	x10, x12, [sp, #128]
   824e8:	a90933ed 	stp	x13, x12, [sp, #144]
   824ec:	a90c7fff 	stp	xzr, xzr, [sp, #192]
   824f0:	a90d27e8 	stp	x8, x9, [sp, #208]
   824f4:	94000d80 	bl	85af4 <_ZN4core3fmt5write17hb5f6a3bd29bb9808E>
   824f8:	1400002c 	b	825a8 <rust_begin_unwind+0x590>
   824fc:	f94017e8 	ldr	x8, [sp, #40]
   82500:	3940c3e9 	ldrb	w9, [sp, #48]
   82504:	91000508 	add	x8, x8, #0x1
   82508:	7100053f 	cmp	w9, #0x1
   8250c:	f90017e8 	str	x8, [sp, #40]
   82510:	540003e1 	b.ne	8258c <rust_begin_unwind+0x574>  // b.any
   82514:	f90077e8 	str	x8, [sp, #232]
   82518:	d538424a 	mrs	x10, currentel
   8251c:	f0000009 	adrp	x9, 85000 <_ZN4core7unicode9printable5check17h3df87d4e8e554ccdE.llvm.5445877691761700591+0x4c>
   82520:	d3420d4a 	ubfx	x10, x10, #2, #2
   82524:	9103a3e8 	add	x8, sp, #0xe8
   82528:	91098129 	add	x9, x9, #0x260
   8252c:	f9002fea 	str	x10, [sp, #88]
   82530:	d53800aa 	mrs	x10, mpidr_el1
   82534:	a90727e8 	stp	x8, x9, [sp, #112]
   82538:	b0000028 	adrp	x8, 87000 <anon.18d3f1f317091c7eeaf7c365eb201f34.15.llvm.3855770260100345529+0x38>
   8253c:	911f0108 	add	x8, x8, #0x7c0
   82540:	52800089 	mov	w9, #0x4                   	// #4
   82544:	f000000c 	adrp	x12, 85000 <_ZN4core7unicode9printable5check17h3df87d4e8e554ccdE.llvm.5445877691761700591+0x4c>
   82548:	a90b27e8 	stp	x8, x9, [sp, #176]
   8254c:	92401d49 	and	x9, x10, #0xff
   82550:	b0000021 	adrp	x1, 87000 <anon.18d3f1f317091c7eeaf7c365eb201f34.15.llvm.3855770260100345529+0x38>
   82554:	910163eb 	add	x11, sp, #0x58
   82558:	9109818c 	add	x12, x12, #0x260
   8255c:	9100e3ed 	add	x13, sp, #0x38
   82560:	9101c3e8 	add	x8, sp, #0x70
   82564:	f9001fe9 	str	x9, [sp, #56]
   82568:	52800069 	mov	w9, #0x3                   	// #3
   8256c:	911e2021 	add	x1, x1, #0x788
   82570:	910063e0 	add	x0, sp, #0x18
   82574:	9102c3e2 	add	x2, sp, #0xb0
   82578:	a90833eb 	stp	x11, x12, [sp, #128]
   8257c:	a90933ed 	stp	x13, x12, [sp, #144]
   82580:	a90c7fff 	stp	xzr, xzr, [sp, #192]
   82584:	a90d27e8 	stp	x8, x9, [sp, #208]
   82588:	94000d5b 	bl	85af4 <_ZN4core3fmt5write17hb5f6a3bd29bb9808E>
   8258c:	f94013e0 	ldr	x0, [sp, #32]
   82590:	b0000021 	adrp	x1, 87000 <anon.18d3f1f317091c7eeaf7c365eb201f34.15.llvm.3855770260100345529+0x38>
   82594:	9120bc21 	add	x1, x1, #0x82f
   82598:	52800222 	mov	w2, #0x11                  	// #17
   8259c:	97fffe2f 	bl	81e58 <_ZN8graph_os8platform6raspi34uart14UARTController5write17h14e13fbd0204fec3E.llvm.5130275823303334094>
   825a0:	1400000e 	b	825d8 <rust_begin_unwind+0x5c0>
   825a4:	910063f3 	add	x19, sp, #0x18
   825a8:	b0000028 	adrp	x8, 87000 <anon.18d3f1f317091c7eeaf7c365eb201f34.15.llvm.3855770260100345529+0x38>
   825ac:	b0000021 	adrp	x1, 87000 <anon.18d3f1f317091c7eeaf7c365eb201f34.15.llvm.3855770260100345529+0x38>
   825b0:	91212108 	add	x8, x8, #0x848
   825b4:	52800049 	mov	w9, #0x2                   	// #2
   825b8:	9100e3ea 	add	x10, sp, #0x38
   825bc:	911e2021 	add	x1, x1, #0x788
   825c0:	9102c3e2 	add	x2, sp, #0xb0
   825c4:	aa1303e0 	mov	x0, x19
   825c8:	a90c7fff 	stp	xzr, xzr, [sp, #192]
   825cc:	a90b27e8 	stp	x8, x9, [sp, #176]
   825d0:	a90d27ea 	stp	x10, x9, [sp, #208]
   825d4:	94000d48 	bl	85af4 <_ZN4core3fmt5write17hb5f6a3bd29bb9808E>
   825d8:	910063e0 	add	x0, sp, #0x18
   825dc:	97fffdf9 	bl	81dc0 <_ZN8graph_os8platform6raspi34uart14UARTController7newline17h3bac0dbadd4d9f97E>
   825e0:	14000000 	b	825e0 <rust_begin_unwind+0x5c8>
   825e4:	b0000020 	adrp	x0, 87000 <anon.18d3f1f317091c7eeaf7c365eb201f34.15.llvm.3855770260100345529+0x38>
   825e8:	b0000022 	adrp	x2, 87000 <anon.18d3f1f317091c7eeaf7c365eb201f34.15.llvm.3855770260100345529+0x38>
   825ec:	910b6000 	add	x0, x0, #0x2d8
   825f0:	910c0042 	add	x2, x2, #0x300
   825f4:	528004a1 	mov	w1, #0x25                  	// #37
   825f8:	940008b8 	bl	848d8 <_ZN4core9panicking5panic17h44d2e7d60b187585E>
   825fc:	d4200020 	brk	#0x1

0000000000082600 <rust_oom>:
   82600:	d103c3ff 	sub	sp, sp, #0xf0
   82604:	b0000028 	adrp	x8, 87000 <anon.18d3f1f317091c7eeaf7c365eb201f34.15.llvm.3855770260100345529+0x38>
   82608:	3dc0d100 	ldr	q0, [x8, #832]
   8260c:	910043e8 	add	x8, sp, #0x10
   82610:	a90e4ffe 	stp	x30, x19, [sp, #224]
   82614:	52800113 	mov	w19, #0x8                   	// #8
   82618:	a90007e0 	stp	x0, x1, [sp]
   8261c:	f90013e8 	str	x8, [sp, #32]
   82620:	9100a3e8 	add	x8, sp, #0x28
   82624:	910083e0 	add	x0, sp, #0x20
   82628:	910043e1 	add	x1, sp, #0x10
   8262c:	72a00413 	movk	w19, #0x20, lsl #16
   82630:	3d8007e0 	str	q0, [sp, #16]
   82634:	97fffd7b 	bl	81c20 <_ZN8graph_os8platform6raspi34uart14UARTController4init17hc6243bd3960c6e87E>
   82638:	f94013e8 	ldr	x8, [sp, #32]
   8263c:	d100126a 	sub	x10, x19, #0x4
   82640:	f9400509 	ldr	x9, [x8, #8]
   82644:	eb0a013f 	cmp	x9, x10
   82648:	540013e3 	b.cc	828c4 <rust_oom+0x2c4>  // b.lo, b.ul, b.last
   8264c:	f9400109 	ldr	x9, [x8]
   82650:	8b09026a 	add	x10, x19, x9
   82654:	b85fc14b 	ldur	w11, [x10, #-4]
   82658:	12a1bc09 	mov	w9, #0xf21fffff            	// #-232783873
   8265c:	0a09016b 	and	w11, w11, w9
   82660:	320b016b 	orr	w11, w11, #0x200000
   82664:	b81fc14b 	stur	w11, [x10, #-4]
   82668:	f940050a 	ldr	x10, [x8, #8]
   8266c:	eb13015f 	cmp	x10, x19
   82670:	540012a3 	b.cc	828c4 <rust_oom+0x2c4>  // b.lo, b.ul, b.last
   82674:	f940010a 	ldr	x10, [x8]
   82678:	b873694b 	ldr	w11, [x10, x19]
   8267c:	0a090169 	and	w9, w11, w9
   82680:	320b0129 	orr	w9, w9, #0x200000
   82684:	b8336949 	str	w9, [x10, x19]
   82688:	f9400509 	ldr	x9, [x8, #8]
   8268c:	eb13013f 	cmp	x9, x19
   82690:	540011a3 	b.cc	828c4 <rust_oom+0x2c4>  // b.lo, b.ul, b.last
   82694:	f9400108 	ldr	x8, [x8]
   82698:	1283780a 	mov	w10, #0xffffe43f            	// #-7105
   8269c:	b8736909 	ldr	w9, [x8, x19]
   826a0:	0a0a0129 	and	w9, w9, w10
   826a4:	321a0129 	orr	w9, w9, #0x40
   826a8:	b8336909 	str	w9, [x8, x19]
   826ac:	f94013e9 	ldr	x9, [sp, #32]
   826b0:	91008268 	add	x8, x19, #0x20
   826b4:	f940052a 	ldr	x10, [x9, #8]
   826b8:	eb08015f 	cmp	x10, x8
   826bc:	54001043 	b.cc	828c4 <rust_oom+0x2c4>  // b.lo, b.ul, b.last
   826c0:	f9400129 	ldr	x9, [x9]
   826c4:	b868692a 	ldr	w10, [x9, x8]
   826c8:	3205014a 	orr	w10, w10, #0x8000000
   826cc:	b828692a 	str	w10, [x9, x8]
   826d0:	f94013e9 	ldr	x9, [sp, #32]
   826d4:	f940052a 	ldr	x10, [x9, #8]
   826d8:	eb08015f 	cmp	x10, x8
   826dc:	54000f43 	b.cc	828c4 <rust_oom+0x2c4>  // b.lo, b.ul, b.last
   826e0:	f9400128 	ldr	x8, [x9]
   826e4:	9100526a 	add	x10, x19, #0x14
   826e8:	8b080268 	add	x8, x19, x8
   826ec:	b9402109 	ldr	w9, [x8, #32]
   826f0:	320a0129 	orr	w9, w9, #0x400000
   826f4:	b9002109 	str	w9, [x8, #32]
   826f8:	f94013e8 	ldr	x8, [sp, #32]
   826fc:	f9400509 	ldr	x9, [x8, #8]
   82700:	eb0a013f 	cmp	x9, x10
   82704:	54000e03 	b.cc	828c4 <rust_oom+0x2c4>  // b.lo, b.ul, b.last
   82708:	f9400108 	ldr	x8, [x8]
   8270c:	8b080268 	add	x8, x19, x8
   82710:	b9401509 	ldr	w9, [x8, #20]
   82714:	320f0129 	orr	w9, w9, #0x20000
   82718:	b9001509 	str	w9, [x8, #20]
   8271c:	f9401fe8 	ldr	x8, [sp, #56]
   82720:	394103e9 	ldrb	w9, [sp, #64]
   82724:	91000508 	add	x8, x8, #0x1
   82728:	7100053f 	cmp	w9, #0x1
   8272c:	f9001fe8 	str	x8, [sp, #56]
   82730:	540003e1 	b.ne	827ac <rust_oom+0x1ac>  // b.any
   82734:	f90053e8 	str	x8, [sp, #160]
   82738:	d538424a 	mrs	x10, currentel
   8273c:	f0000009 	adrp	x9, 85000 <_ZN4core7unicode9printable5check17h3df87d4e8e554ccdE.llvm.5445877691761700591+0x4c>
   82740:	d3420d4a 	ubfx	x10, x10, #2, #2
   82744:	910283e8 	add	x8, sp, #0xa0
   82748:	91098129 	add	x9, x9, #0x260
   8274c:	f90057ea 	str	x10, [sp, #168]
   82750:	d53800aa 	mrs	x10, mpidr_el1
   82754:	a90727e8 	stp	x8, x9, [sp, #112]
   82758:	b0000028 	adrp	x8, 87000 <anon.18d3f1f317091c7eeaf7c365eb201f34.15.llvm.3855770260100345529+0x38>
   8275c:	911f0108 	add	x8, x8, #0x7c0
   82760:	52800089 	mov	w9, #0x4                   	// #4
   82764:	f000000c 	adrp	x12, 85000 <_ZN4core7unicode9printable5check17h3df87d4e8e554ccdE.llvm.5445877691761700591+0x4c>
   82768:	a90b27e8 	stp	x8, x9, [sp, #176]
   8276c:	92401d49 	and	x9, x10, #0xff
   82770:	b0000021 	adrp	x1, 87000 <anon.18d3f1f317091c7eeaf7c365eb201f34.15.llvm.3855770260100345529+0x38>
   82774:	9102a3eb 	add	x11, sp, #0xa8
   82778:	9109818c 	add	x12, x12, #0x260
   8277c:	910123ed 	add	x13, sp, #0x48
   82780:	9101c3e8 	add	x8, sp, #0x70
   82784:	f90027e9 	str	x9, [sp, #72]
   82788:	52800069 	mov	w9, #0x3                   	// #3
   8278c:	911e2021 	add	x1, x1, #0x788
   82790:	9100a3e0 	add	x0, sp, #0x28
   82794:	9102c3e2 	add	x2, sp, #0xb0
   82798:	a90833eb 	stp	x11, x12, [sp, #128]
   8279c:	a90933ed 	stp	x13, x12, [sp, #144]
   827a0:	a90c7fff 	stp	xzr, xzr, [sp, #192]
   827a4:	a90d27e8 	stp	x8, x9, [sp, #208]
   827a8:	94000cd3 	bl	85af4 <_ZN4core3fmt5write17hb5f6a3bd29bb9808E>
   827ac:	f9401be0 	ldr	x0, [sp, #48]
   827b0:	b0000021 	adrp	x1, 87000 <anon.18d3f1f317091c7eeaf7c365eb201f34.15.llvm.3855770260100345529+0x38>
   827b4:	9121a021 	add	x1, x1, #0x868
   827b8:	52800402 	mov	w2, #0x20                  	// #32
   827bc:	97fffda7 	bl	81e58 <_ZN8graph_os8platform6raspi34uart14UARTController5write17h14e13fbd0204fec3E.llvm.5130275823303334094>
   827c0:	9100a3e0 	add	x0, sp, #0x28
   827c4:	97fffd7f 	bl	81dc0 <_ZN8graph_os8platform6raspi34uart14UARTController7newline17h3bac0dbadd4d9f97E>
   827c8:	f9401fec 	ldr	x12, [sp, #56]
   827cc:	394103ed 	ldrb	w13, [sp, #64]
   827d0:	d0000009 	adrp	x9, 84000 <_ZN68_$LT$core..fmt..builders..PadAdapter$u20$as$u20$core..fmt..Write$GT$9write_str17h664f3ba9611891cdE+0x1b0>
   827d4:	910003e8 	mov	x8, sp
   827d8:	911f3129 	add	x9, x9, #0x7cc
   827dc:	d000002a 	adrp	x10, 88000 <anon.57ef2e3c02ffeaf529e6c598bd0b036c.16.llvm.5445877691761700591+0x10e>
   827e0:	d0ffffeb 	adrp	x11, 80000 <_start>
   827e4:	912dc14a 	add	x10, x10, #0xb70
   827e8:	9113e16b 	add	x11, x11, #0x4f8
   827ec:	a904a7e8 	stp	x8, x9, [sp, #72]
   827f0:	91000588 	add	x8, x12, #0x1
   827f4:	710005bf 	cmp	w13, #0x1
   827f8:	a905afea 	stp	x10, x11, [sp, #88]
   827fc:	f9001fe8 	str	x8, [sp, #56]
   82800:	54000421 	b.ne	82884 <rust_oom+0x284>  // b.any
   82804:	f90037e8 	str	x8, [sp, #104]
   82808:	d538424b 	mrs	x11, currentel
   8280c:	f0000009 	adrp	x9, 85000 <_ZN4core7unicode9printable5check17h3df87d4e8e554ccdE.llvm.5445877691761700591+0x4c>
   82810:	d3420d6b 	ubfx	x11, x11, #2, #2
   82814:	9101a3e8 	add	x8, sp, #0x68
   82818:	91098129 	add	x9, x9, #0x260
   8281c:	f90053eb 	str	x11, [sp, #160]
   82820:	d53800ab 	mrs	x11, mpidr_el1
   82824:	a90727e8 	stp	x8, x9, [sp, #112]
   82828:	b0000028 	adrp	x8, 87000 <anon.18d3f1f317091c7eeaf7c365eb201f34.15.llvm.3855770260100345529+0x38>
   8282c:	911f0108 	add	x8, x8, #0x7c0
   82830:	52800089 	mov	w9, #0x4                   	// #4
   82834:	f000000c 	adrp	x12, 85000 <_ZN4core7unicode9printable5check17h3df87d4e8e554ccdE.llvm.5445877691761700591+0x4c>
   82838:	a90b27e8 	stp	x8, x9, [sp, #176]
   8283c:	92401d69 	and	x9, x11, #0xff
   82840:	b0000021 	adrp	x1, 87000 <anon.18d3f1f317091c7eeaf7c365eb201f34.15.llvm.3855770260100345529+0x38>
   82844:	910283ea 	add	x10, sp, #0xa0
   82848:	9109818c 	add	x12, x12, #0x260
   8284c:	9102a3ed 	add	x13, sp, #0xa8
   82850:	9101c3e8 	add	x8, sp, #0x70
   82854:	f90057e9 	str	x9, [sp, #168]
   82858:	52800069 	mov	w9, #0x3                   	// #3
   8285c:	911e2021 	add	x1, x1, #0x788
   82860:	9100a3e0 	add	x0, sp, #0x28
   82864:	9102c3e2 	add	x2, sp, #0xb0
   82868:	9100a3f3 	add	x19, sp, #0x28
   8286c:	a90833ea 	stp	x10, x12, [sp, #128]
   82870:	a90933ed 	stp	x13, x12, [sp, #144]
   82874:	a90c7fff 	stp	xzr, xzr, [sp, #192]
   82878:	a90d27e8 	stp	x8, x9, [sp, #208]
   8287c:	94000c9e 	bl	85af4 <_ZN4core3fmt5write17hb5f6a3bd29bb9808E>
   82880:	14000002 	b	82888 <rust_oom+0x288>
   82884:	9100a3f3 	add	x19, sp, #0x28
   82888:	b0000028 	adrp	x8, 87000 <anon.18d3f1f317091c7eeaf7c365eb201f34.15.llvm.3855770260100345529+0x38>
   8288c:	b0000021 	adrp	x1, 87000 <anon.18d3f1f317091c7eeaf7c365eb201f34.15.llvm.3855770260100345529+0x38>
   82890:	9122c108 	add	x8, x8, #0x8b0
   82894:	52800049 	mov	w9, #0x2                   	// #2
   82898:	910123ea 	add	x10, sp, #0x48
   8289c:	911e2021 	add	x1, x1, #0x788
   828a0:	9102c3e2 	add	x2, sp, #0xb0
   828a4:	aa1303e0 	mov	x0, x19
   828a8:	a90c7fff 	stp	xzr, xzr, [sp, #192]
   828ac:	a90b27e8 	stp	x8, x9, [sp, #176]
   828b0:	a90d27ea 	stp	x10, x9, [sp, #208]
   828b4:	94000c90 	bl	85af4 <_ZN4core3fmt5write17hb5f6a3bd29bb9808E>
   828b8:	9100a3e0 	add	x0, sp, #0x28
   828bc:	97fffd41 	bl	81dc0 <_ZN8graph_os8platform6raspi34uart14UARTController7newline17h3bac0dbadd4d9f97E>
   828c0:	14000000 	b	828c0 <rust_oom+0x2c0>
   828c4:	b0000020 	adrp	x0, 87000 <anon.18d3f1f317091c7eeaf7c365eb201f34.15.llvm.3855770260100345529+0x38>
   828c8:	b0000022 	adrp	x2, 87000 <anon.18d3f1f317091c7eeaf7c365eb201f34.15.llvm.3855770260100345529+0x38>
   828cc:	910b6000 	add	x0, x0, #0x2d8
   828d0:	910c0042 	add	x2, x2, #0x300
   828d4:	528004a1 	mov	w1, #0x25                  	// #37
   828d8:	94000800 	bl	848d8 <_ZN4core9panicking5panic17h44d2e7d60b187585E>
   828dc:	d4200020 	brk	#0x1
	...

0000000000083000 <_exception_vector>:
   83000:	d2800000 	mov	x0, #0x0                   	// #0
   83004:	d2800001 	mov	x1, #0x0                   	// #0
   83008:	d5385202 	mrs	x2, esr_el1
   8300c:	d5384023 	mrs	x3, elr_el1
   83010:	d5384004 	mrs	x4, spsr_el1
   83014:	d5386005 	mrs	x5, far_el1
   83018:	910003e6 	mov	x6, sp
   8301c:	140001e1 	b	837a0 <handle_exception>
	...
   83080:	d2800000 	mov	x0, #0x0                   	// #0
   83084:	d2800021 	mov	x1, #0x1                   	// #1
   83088:	d5385202 	mrs	x2, esr_el1
   8308c:	d5384023 	mrs	x3, elr_el1
   83090:	d5384004 	mrs	x4, spsr_el1
   83094:	d5386005 	mrs	x5, far_el1
   83098:	910003e6 	mov	x6, sp
   8309c:	140001c1 	b	837a0 <handle_exception>
	...
   83100:	d2800000 	mov	x0, #0x0                   	// #0
   83104:	d2800041 	mov	x1, #0x2                   	// #2
   83108:	d5385202 	mrs	x2, esr_el1
   8310c:	d5384023 	mrs	x3, elr_el1
   83110:	d5384004 	mrs	x4, spsr_el1
   83114:	d5386005 	mrs	x5, far_el1
   83118:	910003e6 	mov	x6, sp
   8311c:	140001a1 	b	837a0 <handle_exception>
	...
   83180:	d2800000 	mov	x0, #0x0                   	// #0
   83184:	d2800061 	mov	x1, #0x3                   	// #3
   83188:	d5385202 	mrs	x2, esr_el1
   8318c:	d5384023 	mrs	x3, elr_el1
   83190:	d5384004 	mrs	x4, spsr_el1
   83194:	d5386005 	mrs	x5, far_el1
   83198:	910003e6 	mov	x6, sp
   8319c:	14000181 	b	837a0 <handle_exception>
	...
   83200:	d2800020 	mov	x0, #0x1                   	// #1
   83204:	d2800001 	mov	x1, #0x0                   	// #0
   83208:	d5385202 	mrs	x2, esr_el1
   8320c:	d5384023 	mrs	x3, elr_el1
   83210:	d5384004 	mrs	x4, spsr_el1
   83214:	d5386005 	mrs	x5, far_el1
   83218:	910003e6 	mov	x6, sp
   8321c:	14000161 	b	837a0 <handle_exception>
	...
   83280:	d2800020 	mov	x0, #0x1                   	// #1
   83284:	d2800021 	mov	x1, #0x1                   	// #1
   83288:	d5385202 	mrs	x2, esr_el1
   8328c:	d5384023 	mrs	x3, elr_el1
   83290:	d5384004 	mrs	x4, spsr_el1
   83294:	d5386005 	mrs	x5, far_el1
   83298:	910003e6 	mov	x6, sp
   8329c:	14000141 	b	837a0 <handle_exception>
	...
   83300:	d2800020 	mov	x0, #0x1                   	// #1
   83304:	d2800041 	mov	x1, #0x2                   	// #2
   83308:	d5385202 	mrs	x2, esr_el1
   8330c:	d5384023 	mrs	x3, elr_el1
   83310:	d5384004 	mrs	x4, spsr_el1
   83314:	d5386005 	mrs	x5, far_el1
   83318:	910003e6 	mov	x6, sp
   8331c:	14000121 	b	837a0 <handle_exception>
	...
   83380:	d2800020 	mov	x0, #0x1                   	// #1
   83384:	d2800061 	mov	x1, #0x3                   	// #3
   83388:	d5385202 	mrs	x2, esr_el1
   8338c:	d5384023 	mrs	x3, elr_el1
   83390:	d5384004 	mrs	x4, spsr_el1
   83394:	d5386005 	mrs	x5, far_el1
   83398:	910003e6 	mov	x6, sp
   8339c:	14000101 	b	837a0 <handle_exception>
	...
   83400:	d2800040 	mov	x0, #0x2                   	// #2
   83404:	d2800001 	mov	x1, #0x0                   	// #0
   83408:	d5385202 	mrs	x2, esr_el1
   8340c:	d5384023 	mrs	x3, elr_el1
   83410:	d5384004 	mrs	x4, spsr_el1
   83414:	d5386005 	mrs	x5, far_el1
   83418:	910003e6 	mov	x6, sp
   8341c:	140000e1 	b	837a0 <handle_exception>
	...
   83480:	d2800040 	mov	x0, #0x2                   	// #2
   83484:	d2800021 	mov	x1, #0x1                   	// #1
   83488:	d5385202 	mrs	x2, esr_el1
   8348c:	d5384023 	mrs	x3, elr_el1
   83490:	d5384004 	mrs	x4, spsr_el1
   83494:	d5386005 	mrs	x5, far_el1
   83498:	910003e6 	mov	x6, sp
   8349c:	140000c1 	b	837a0 <handle_exception>
	...
   83500:	d2800040 	mov	x0, #0x2                   	// #2
   83504:	d2800041 	mov	x1, #0x2                   	// #2
   83508:	d5385202 	mrs	x2, esr_el1
   8350c:	d5384023 	mrs	x3, elr_el1
   83510:	d5384004 	mrs	x4, spsr_el1
   83514:	d5386005 	mrs	x5, far_el1
   83518:	910003e6 	mov	x6, sp
   8351c:	140000a1 	b	837a0 <handle_exception>
	...
   83580:	d2800040 	mov	x0, #0x2                   	// #2
   83584:	d2800061 	mov	x1, #0x3                   	// #3
   83588:	d5385202 	mrs	x2, esr_el1
   8358c:	d5384023 	mrs	x3, elr_el1
   83590:	d5384004 	mrs	x4, spsr_el1
   83594:	d5386005 	mrs	x5, far_el1
   83598:	910003e6 	mov	x6, sp
   8359c:	14000081 	b	837a0 <handle_exception>
	...
   83600:	d2800060 	mov	x0, #0x3                   	// #3
   83604:	d2800001 	mov	x1, #0x0                   	// #0
   83608:	d5385202 	mrs	x2, esr_el1
   8360c:	d5384023 	mrs	x3, elr_el1
   83610:	d5384004 	mrs	x4, spsr_el1
   83614:	d5386005 	mrs	x5, far_el1
   83618:	910003e6 	mov	x6, sp
   8361c:	14000061 	b	837a0 <handle_exception>
	...
   83680:	d2800060 	mov	x0, #0x3                   	// #3
   83684:	d2800021 	mov	x1, #0x1                   	// #1
   83688:	d5385202 	mrs	x2, esr_el1
   8368c:	d5384023 	mrs	x3, elr_el1
   83690:	d5384004 	mrs	x4, spsr_el1
   83694:	d5386005 	mrs	x5, far_el1
   83698:	910003e6 	mov	x6, sp
   8369c:	14000041 	b	837a0 <handle_exception>
	...
   83700:	d2800060 	mov	x0, #0x3                   	// #3
   83704:	d2800041 	mov	x1, #0x2                   	// #2
   83708:	d5385202 	mrs	x2, esr_el1
   8370c:	d5384023 	mrs	x3, elr_el1
   83710:	d5384004 	mrs	x4, spsr_el1
   83714:	d5386005 	mrs	x5, far_el1
   83718:	910003e6 	mov	x6, sp
   8371c:	14000021 	b	837a0 <handle_exception>
	...
   83780:	d2800060 	mov	x0, #0x3                   	// #3
   83784:	d2800061 	mov	x1, #0x3                   	// #3
   83788:	d5385202 	mrs	x2, esr_el1
   8378c:	d5384023 	mrs	x3, elr_el1
   83790:	d5384004 	mrs	x4, spsr_el1
   83794:	d5386005 	mrs	x5, far_el1
   83798:	910003e6 	mov	x6, sp
   8379c:	14000001 	b	837a0 <handle_exception>

00000000000837a0 <handle_exception>:
   837a0:	52800388 	mov	w8, #0x1c                  	// #28
   837a4:	72a7e408 	movk	w8, #0x3f20, lsl #16
   837a8:	b85e8109 	ldur	w9, [x8, #-24]
   837ac:	12a1bc0b 	mov	w11, #0xf21fffff            	// #-232783873
   837b0:	1283780e 	mov	w14, #0xffffe43f            	// #-7105
   837b4:	5284b40a 	mov	w10, #0x25a0                	// #9632
   837b8:	0a0b0129 	and	w9, w9, w11
   837bc:	320b0129 	orr	w9, w9, #0x200000
   837c0:	b81e8109 	stur	w9, [x8, #-24]
   837c4:	b85ec10c 	ldur	w12, [x8, #-20]
   837c8:	52860089 	mov	w9, #0x3004                	// #12292
   837cc:	72a7e009 	movk	w9, #0x3f00, lsl #16
   837d0:	72a004ca 	movk	w10, #0x26, lsl #16
   837d4:	0a0b018b 	and	w11, w12, w11
   837d8:	320b016b 	orr	w11, w11, #0x200000
   837dc:	b81ec10b 	stur	w11, [x8, #-20]
   837e0:	b85ec10c 	ldur	w12, [x8, #-20]
   837e4:	5288480b 	mov	w11, #0x4240                	// #16960
   837e8:	72a001eb 	movk	w11, #0xf, lsl #16
   837ec:	b100140d 	adds	x13, x0, #0x5
   837f0:	0a0e018c 	and	w12, w12, w14
   837f4:	321a018c 	orr	w12, w12, #0x40
   837f8:	b81ec10c 	stur	w12, [x8, #-20]
   837fc:	9100142c 	add	x12, x1, #0x5
   83800:	54001060 	b.eq	83a0c <handle_exception+0x26c>  // b.none
   83804:	aa1f03ee 	mov	x14, xzr
   83808:	b940010f 	ldr	w15, [x8]
   8380c:	320a01ef 	orr	w15, w15, #0x400000
   83810:	b900010f 	str	w15, [x8]
   83814:	b940012f 	ldr	w15, [x9]
   83818:	b9400530 	ldr	w16, [x9, #4]
   8381c:	8b0b01ef 	add	x15, x15, x11
   83820:	8b1081ef 	add	x15, x15, x16, lsl #32
   83824:	b9400130 	ldr	w16, [x9]
   83828:	b9400531 	ldr	w17, [x9, #4]
   8382c:	b3607e30 	bfi	x16, x17, #32, #32
   83830:	eb0f021f 	cmp	x16, x15
   83834:	54ffff83 	b.cc	83824 <handle_exception+0x84>  // b.lo, b.ul, b.last
   83838:	b9400d0f 	ldr	w15, [x8, #12]
   8383c:	320a01ef 	orr	w15, w15, #0x400000
   83840:	b9000d0f 	str	w15, [x8, #12]
   83844:	b940012f 	ldr	w15, [x9]
   83848:	b9400530 	ldr	w16, [x9, #4]
   8384c:	8b0b01ef 	add	x15, x15, x11
   83850:	8b1081ef 	add	x15, x15, x16, lsl #32
   83854:	b9400130 	ldr	w16, [x9]
   83858:	b9400531 	ldr	w17, [x9, #4]
   8385c:	b3607e30 	bfi	x16, x17, #32, #32
   83860:	eb0f021f 	cmp	x16, x15
   83864:	54ffff83 	b.cc	83854 <handle_exception+0xb4>  // b.lo, b.ul, b.last
   83868:	910005ce 	add	x14, x14, #0x1
   8386c:	eb0d01df 	cmp	x14, x13
   83870:	54fffcc1 	b.ne	83808 <handle_exception+0x68>  // b.any
   83874:	b940012e 	ldr	w14, [x9]
   83878:	b940052f 	ldr	w15, [x9, #4]
   8387c:	8b0a01ce 	add	x14, x14, x10
   83880:	8b0f81ce 	add	x14, x14, x15, lsl #32
   83884:	b940012f 	ldr	w15, [x9]
   83888:	b9400530 	ldr	w16, [x9, #4]
   8388c:	b3607e0f 	bfi	x15, x16, #32, #32
   83890:	eb0e01ff 	cmp	x15, x14
   83894:	54ffff83 	b.cc	83884 <handle_exception+0xe4>  // b.lo, b.ul, b.last
   83898:	b40003ac 	cbz	x12, 8390c <handle_exception+0x16c>
   8389c:	aa1f03ee 	mov	x14, xzr
   838a0:	b940010f 	ldr	w15, [x8]
   838a4:	320f01ef 	orr	w15, w15, #0x20000
   838a8:	b900010f 	str	w15, [x8]
   838ac:	b940012f 	ldr	w15, [x9]
   838b0:	b9400530 	ldr	w16, [x9, #4]
   838b4:	8b0b01ef 	add	x15, x15, x11
   838b8:	8b1081ef 	add	x15, x15, x16, lsl #32
   838bc:	b9400130 	ldr	w16, [x9]
   838c0:	b9400531 	ldr	w17, [x9, #4]
   838c4:	b3607e30 	bfi	x16, x17, #32, #32
   838c8:	eb0f021f 	cmp	x16, x15
   838cc:	54ffff83 	b.cc	838bc <handle_exception+0x11c>  // b.lo, b.ul, b.last
   838d0:	b9400d0f 	ldr	w15, [x8, #12]
   838d4:	320f01ef 	orr	w15, w15, #0x20000
   838d8:	b9000d0f 	str	w15, [x8, #12]
   838dc:	b940012f 	ldr	w15, [x9]
   838e0:	b9400530 	ldr	w16, [x9, #4]
   838e4:	8b0b01ef 	add	x15, x15, x11
   838e8:	8b1081ef 	add	x15, x15, x16, lsl #32
   838ec:	b9400130 	ldr	w16, [x9]
   838f0:	b9400531 	ldr	w17, [x9, #4]
   838f4:	b3607e30 	bfi	x16, x17, #32, #32
   838f8:	eb0f021f 	cmp	x16, x15
   838fc:	54ffff83 	b.cc	838ec <handle_exception+0x14c>  // b.lo, b.ul, b.last
   83900:	910005ce 	add	x14, x14, #0x1
   83904:	eb0c01df 	cmp	x14, x12
   83908:	54fffcc1 	b.ne	838a0 <handle_exception+0x100>  // b.any
   8390c:	b940012e 	ldr	w14, [x9]
   83910:	b940052f 	ldr	w15, [x9, #4]
   83914:	8b0a01ce 	add	x14, x14, x10
   83918:	8b0f81ce 	add	x14, x14, x15, lsl #32
   8391c:	b940012f 	ldr	w15, [x9]
   83920:	b9400530 	ldr	w16, [x9, #4]
   83924:	b3607e0f 	bfi	x15, x16, #32, #32
   83928:	eb0e01ff 	cmp	x15, x14
   8392c:	54ffff83 	b.cc	8391c <handle_exception+0x17c>  // b.lo, b.ul, b.last
   83930:	2a1f03ee 	mov	w14, wzr
   83934:	b940010f 	ldr	w15, [x8]
   83938:	4b0e03f0 	neg	w16, w14
   8393c:	9ad02470 	lsr	x16, x3, x16
   83940:	360001d0 	tbz	w16, #0, 83978 <handle_exception+0x1d8>
   83944:	320501ef 	orr	w15, w15, #0x8000000
   83948:	b900010f 	str	w15, [x8]
   8394c:	b940012f 	ldr	w15, [x9]
   83950:	b9400530 	ldr	w16, [x9, #4]
   83954:	8b0b01ef 	add	x15, x15, x11
   83958:	8b1081ef 	add	x15, x15, x16, lsl #32
   8395c:	b9400130 	ldr	w16, [x9]
   83960:	b9400531 	ldr	w17, [x9, #4]
   83964:	b3607e30 	bfi	x16, x17, #32, #32
   83968:	eb0f021f 	cmp	x16, x15
   8396c:	54ffff83 	b.cc	8395c <handle_exception+0x1bc>  // b.lo, b.ul, b.last
   83970:	52a1000f 	mov	w15, #0x8000000             	// #134217728
   83974:	1400000d 	b	839a8 <handle_exception+0x208>
   83978:	320a01ef 	orr	w15, w15, #0x400000
   8397c:	b900010f 	str	w15, [x8]
   83980:	b940012f 	ldr	w15, [x9]
   83984:	b9400530 	ldr	w16, [x9, #4]
   83988:	8b0b01ef 	add	x15, x15, x11
   8398c:	8b1081ef 	add	x15, x15, x16, lsl #32
   83990:	b9400130 	ldr	w16, [x9]
   83994:	b9400531 	ldr	w17, [x9, #4]
   83998:	b3607e30 	bfi	x16, x17, #32, #32
   8399c:	eb0f021f 	cmp	x16, x15
   839a0:	54ffff83 	b.cc	83990 <handle_exception+0x1f0>  // b.lo, b.ul, b.last
   839a4:	52a0080f 	mov	w15, #0x400000              	// #4194304
   839a8:	b9400d10 	ldr	w16, [x8, #12]
   839ac:	110005ce 	add	w14, w14, #0x1
   839b0:	2a0f020f 	orr	w15, w16, w15
   839b4:	b9000d0f 	str	w15, [x8, #12]
   839b8:	b940012f 	ldr	w15, [x9]
   839bc:	b9400530 	ldr	w16, [x9, #4]
   839c0:	8b0b01ef 	add	x15, x15, x11
   839c4:	8b1081ef 	add	x15, x15, x16, lsl #32
   839c8:	b9400130 	ldr	w16, [x9]
   839cc:	b9400531 	ldr	w17, [x9, #4]
   839d0:	b3607e30 	bfi	x16, x17, #32, #32
   839d4:	eb0f021f 	cmp	x16, x15
   839d8:	54ffff83 	b.cc	839c8 <handle_exception+0x228>  // b.lo, b.ul, b.last
   839dc:	710101df 	cmp	w14, #0x40
   839e0:	54fffaa1 	b.ne	83934 <handle_exception+0x194>  // b.any
   839e4:	b940012e 	ldr	w14, [x9]
   839e8:	b940052f 	ldr	w15, [x9, #4]
   839ec:	8b0a01ce 	add	x14, x14, x10
   839f0:	8b0f81ce 	add	x14, x14, x15, lsl #32
   839f4:	b940012f 	ldr	w15, [x9]
   839f8:	b9400530 	ldr	w16, [x9, #4]
   839fc:	b3607e0f 	bfi	x15, x16, #32, #32
   83a00:	eb0e01ff 	cmp	x15, x14
   83a04:	54ffff83 	b.cc	839f4 <handle_exception+0x254>  // b.lo, b.ul, b.last
   83a08:	17ffff7f 	b	83804 <handle_exception+0x64>
   83a0c:	b940012d 	ldr	w13, [x9]
   83a10:	b940052e 	ldr	w14, [x9, #4]
   83a14:	8b0a01ad 	add	x13, x13, x10
   83a18:	8b0e81ad 	add	x13, x13, x14, lsl #32
   83a1c:	b940012e 	ldr	w14, [x9]
   83a20:	b940052f 	ldr	w15, [x9, #4]
   83a24:	b3607dee 	bfi	x14, x15, #32, #32
   83a28:	eb0d01df 	cmp	x14, x13
   83a2c:	54ffff83 	b.cc	83a1c <handle_exception+0x27c>  // b.lo, b.ul, b.last
   83a30:	b40003ac 	cbz	x12, 83aa4 <handle_exception+0x304>
   83a34:	aa1f03ed 	mov	x13, xzr
   83a38:	b940010e 	ldr	w14, [x8]
   83a3c:	320f01ce 	orr	w14, w14, #0x20000
   83a40:	b900010e 	str	w14, [x8]
   83a44:	b940012e 	ldr	w14, [x9]
   83a48:	b940052f 	ldr	w15, [x9, #4]
   83a4c:	8b0b01ce 	add	x14, x14, x11
   83a50:	8b0f81ce 	add	x14, x14, x15, lsl #32
   83a54:	b940012f 	ldr	w15, [x9]
   83a58:	b9400530 	ldr	w16, [x9, #4]
   83a5c:	b3607e0f 	bfi	x15, x16, #32, #32
   83a60:	eb0e01ff 	cmp	x15, x14
   83a64:	54ffff83 	b.cc	83a54 <handle_exception+0x2b4>  // b.lo, b.ul, b.last
   83a68:	b9400d0e 	ldr	w14, [x8, #12]
   83a6c:	320f01ce 	orr	w14, w14, #0x20000
   83a70:	b9000d0e 	str	w14, [x8, #12]
   83a74:	b940012e 	ldr	w14, [x9]
   83a78:	b940052f 	ldr	w15, [x9, #4]
   83a7c:	8b0b01ce 	add	x14, x14, x11
   83a80:	8b0f81ce 	add	x14, x14, x15, lsl #32
   83a84:	b940012f 	ldr	w15, [x9]
   83a88:	b9400530 	ldr	w16, [x9, #4]
   83a8c:	b3607e0f 	bfi	x15, x16, #32, #32
   83a90:	eb0e01ff 	cmp	x15, x14
   83a94:	54ffff83 	b.cc	83a84 <handle_exception+0x2e4>  // b.lo, b.ul, b.last
   83a98:	910005ad 	add	x13, x13, #0x1
   83a9c:	eb0c01bf 	cmp	x13, x12
   83aa0:	54fffcc1 	b.ne	83a38 <handle_exception+0x298>  // b.any
   83aa4:	b940012d 	ldr	w13, [x9]
   83aa8:	b940052e 	ldr	w14, [x9, #4]
   83aac:	8b0a01ad 	add	x13, x13, x10
   83ab0:	8b0e81ad 	add	x13, x13, x14, lsl #32
   83ab4:	b940012e 	ldr	w14, [x9]
   83ab8:	b940052f 	ldr	w15, [x9, #4]
   83abc:	b3607dee 	bfi	x14, x15, #32, #32
   83ac0:	eb0d01df 	cmp	x14, x13
   83ac4:	54ffff83 	b.cc	83ab4 <handle_exception+0x314>  // b.lo, b.ul, b.last
   83ac8:	2a1f03ed 	mov	w13, wzr
   83acc:	b940010e 	ldr	w14, [x8]
   83ad0:	4b0d03ef 	neg	w15, w13
   83ad4:	9acf246f 	lsr	x15, x3, x15
   83ad8:	360001cf 	tbz	w15, #0, 83b10 <handle_exception+0x370>
   83adc:	320501ce 	orr	w14, w14, #0x8000000
   83ae0:	b900010e 	str	w14, [x8]
   83ae4:	b940012e 	ldr	w14, [x9]
   83ae8:	b940052f 	ldr	w15, [x9, #4]
   83aec:	8b0b01ce 	add	x14, x14, x11
   83af0:	8b0f81ce 	add	x14, x14, x15, lsl #32
   83af4:	b940012f 	ldr	w15, [x9]
   83af8:	b9400530 	ldr	w16, [x9, #4]
   83afc:	b3607e0f 	bfi	x15, x16, #32, #32
   83b00:	eb0e01ff 	cmp	x15, x14
   83b04:	54ffff83 	b.cc	83af4 <handle_exception+0x354>  // b.lo, b.ul, b.last
   83b08:	52a1000e 	mov	w14, #0x8000000             	// #134217728
   83b0c:	1400000d 	b	83b40 <handle_exception+0x3a0>
   83b10:	320a01ce 	orr	w14, w14, #0x400000
   83b14:	b900010e 	str	w14, [x8]
   83b18:	b940012e 	ldr	w14, [x9]
   83b1c:	b940052f 	ldr	w15, [x9, #4]
   83b20:	8b0b01ce 	add	x14, x14, x11
   83b24:	8b0f81ce 	add	x14, x14, x15, lsl #32
   83b28:	b940012f 	ldr	w15, [x9]
   83b2c:	b9400530 	ldr	w16, [x9, #4]
   83b30:	b3607e0f 	bfi	x15, x16, #32, #32
   83b34:	eb0e01ff 	cmp	x15, x14
   83b38:	54ffff83 	b.cc	83b28 <handle_exception+0x388>  // b.lo, b.ul, b.last
   83b3c:	52a0080e 	mov	w14, #0x400000              	// #4194304
   83b40:	b9400d0f 	ldr	w15, [x8, #12]
   83b44:	110005ad 	add	w13, w13, #0x1
   83b48:	2a0e01ee 	orr	w14, w15, w14
   83b4c:	b9000d0e 	str	w14, [x8, #12]
   83b50:	b940012e 	ldr	w14, [x9]
   83b54:	b940052f 	ldr	w15, [x9, #4]
   83b58:	8b0b01ce 	add	x14, x14, x11
   83b5c:	8b0f81ce 	add	x14, x14, x15, lsl #32
   83b60:	b940012f 	ldr	w15, [x9]
   83b64:	b9400530 	ldr	w16, [x9, #4]
   83b68:	b3607e0f 	bfi	x15, x16, #32, #32
   83b6c:	eb0e01ff 	cmp	x15, x14
   83b70:	54ffff83 	b.cc	83b60 <handle_exception+0x3c0>  // b.lo, b.ul, b.last
   83b74:	710101bf 	cmp	w13, #0x40
   83b78:	54fffaa1 	b.ne	83acc <handle_exception+0x32c>  // b.any
   83b7c:	b940012d 	ldr	w13, [x9]
   83b80:	b940052e 	ldr	w14, [x9, #4]
   83b84:	8b0a01ad 	add	x13, x13, x10
   83b88:	8b0e81ad 	add	x13, x13, x14, lsl #32
   83b8c:	b940012e 	ldr	w14, [x9]
   83b90:	b940052f 	ldr	w15, [x9, #4]
   83b94:	b3607dee 	bfi	x14, x15, #32, #32
   83b98:	eb0d01df 	cmp	x14, x13
   83b9c:	54ffff83 	b.cc	83b8c <handle_exception+0x3ec>  // b.lo, b.ul, b.last
   83ba0:	17ffff9b 	b	83a0c <handle_exception+0x26c>

0000000000083ba4 <__rust_alloc>:
   83ba4:	17fff371 	b	80968 <__rg_alloc>

0000000000083ba8 <__rust_realloc>:
   83ba8:	17fff376 	b	80980 <__rg_realloc>

0000000000083bac <__rust_alloc_error_handler>:
   83bac:	1400000a 	b	83bd4 <__rg_oom>

0000000000083bb0 <_ZN5alloc7raw_vec17capacity_overflow17h82225545098ac3bcE>:
   83bb0:	90000020 	adrp	x0, 87000 <anon.18d3f1f317091c7eeaf7c365eb201f34.15.llvm.3855770260100345529+0x38>
   83bb4:	90000022 	adrp	x2, 87000 <anon.18d3f1f317091c7eeaf7c365eb201f34.15.llvm.3855770260100345529+0x38>
   83bb8:	91252800 	add	x0, x0, #0x94a
   83bbc:	91258042 	add	x2, x2, #0x960
   83bc0:	52800221 	mov	w1, #0x11                  	// #17
   83bc4:	94000345 	bl	848d8 <_ZN4core9panicking5panic17h44d2e7d60b187585E>
   83bc8:	d4200020 	brk	#0x1

0000000000083bcc <_ZN5alloc5alloc18handle_alloc_error17h20eef72fc6ff40f7E>:
   83bcc:	97fffff8 	bl	83bac <__rust_alloc_error_handler>
   83bd0:	d4200020 	brk	#0x1

0000000000083bd4 <__rg_oom>:
   83bd4:	97fffa8b 	bl	82600 <rust_oom>
   83bd8:	d4200020 	brk	#0x1

0000000000083bdc <_ZN4core3fmt3num53_$LT$impl$u20$core..fmt..LowerHex$u20$for$u20$i32$GT$3fmt17h05a74205f36ced35E>:
   83bdc:	d10243ff 	sub	sp, sp, #0x90
   83be0:	b940000b 	ldr	w11, [x0]
   83be4:	aa0103e8 	mov	x8, x1
   83be8:	aa1f03e9 	mov	x9, xzr
   83bec:	910003ea 	mov	x10, sp
   83bf0:	f90043fe 	str	x30, [sp, #128]
   83bf4:	12000d6e 	and	w14, w11, #0xf
   83bf8:	5280060f 	mov	w15, #0x30                  	// #48
   83bfc:	53047d6d 	lsr	w13, w11, #4
   83c00:	33000d6f 	bfxil	w15, w11, #0, #4
   83c04:	11015dcb 	add	w11, w14, #0x57
   83c08:	710029df 	cmp	w14, #0xa
   83c0c:	8b09014c 	add	x12, x10, x9
   83c10:	1a8b31eb 	csel	w11, w15, w11, cc  // cc = lo, ul, last
   83c14:	3901fd8b 	strb	w11, [x12, #127]
   83c18:	d1000529 	sub	x9, x9, #0x1
   83c1c:	2a0d03eb 	mov	w11, w13
   83c20:	35fffead 	cbnz	w13, 83bf4 <_ZN4core3fmt3num53_$LT$impl$u20$core..fmt..LowerHex$u20$for$u20$i32$GT$3fmt17h05a74205f36ced35E+0x18>
   83c24:	91020120 	add	x0, x9, #0x80
   83c28:	f102041f 	cmp	x0, #0x81
   83c2c:	540001c2 	b.cs	83c64 <_ZN4core3fmt3num53_$LT$impl$u20$core..fmt..LowerHex$u20$for$u20$i32$GT$3fmt17h05a74205f36ced35E+0x88>  // b.hs, b.nlast
   83c30:	910003ea 	mov	x10, sp
   83c34:	cb0903e5 	neg	x5, x9
   83c38:	8b090149 	add	x9, x10, x9
   83c3c:	90000022 	adrp	x2, 87000 <anon.18d3f1f317091c7eeaf7c365eb201f34.15.llvm.3855770260100345529+0x38>
   83c40:	91020124 	add	x4, x9, #0x80
   83c44:	91284042 	add	x2, x2, #0xa10
   83c48:	52800021 	mov	w1, #0x1                   	// #1
   83c4c:	52800043 	mov	w3, #0x2                   	// #2
   83c50:	aa0803e0 	mov	x0, x8
   83c54:	94000827 	bl	85cf0 <_ZN4core3fmt9Formatter12pad_integral17hd76664d265795836E>
   83c58:	f94043fe 	ldr	x30, [sp, #128]
   83c5c:	910243ff 	add	sp, sp, #0x90
   83c60:	d65f03c0 	ret
   83c64:	90000022 	adrp	x2, 87000 <anon.18d3f1f317091c7eeaf7c365eb201f34.15.llvm.3855770260100345529+0x38>
   83c68:	9127e042 	add	x2, x2, #0x9f8
   83c6c:	52801001 	mov	w1, #0x80                  	// #128
   83c70:	94000342 	bl	84978 <_ZN4core5slice5index26slice_start_index_len_fail17h92d701fb2ff102e6E>
   83c74:	d4200020 	brk	#0x1

0000000000083c78 <_ZN4core3fmt3num53_$LT$impl$u20$core..fmt..UpperHex$u20$for$u20$i32$GT$3fmt17haeba2713e0d468adE>:
   83c78:	d10243ff 	sub	sp, sp, #0x90
   83c7c:	b940000b 	ldr	w11, [x0]
   83c80:	aa0103e8 	mov	x8, x1
   83c84:	aa1f03e9 	mov	x9, xzr
   83c88:	910003ea 	mov	x10, sp
   83c8c:	f90043fe 	str	x30, [sp, #128]
   83c90:	12000d6e 	and	w14, w11, #0xf
   83c94:	5280060f 	mov	w15, #0x30                  	// #48
   83c98:	53047d6d 	lsr	w13, w11, #4
   83c9c:	33000d6f 	bfxil	w15, w11, #0, #4
   83ca0:	1100ddcb 	add	w11, w14, #0x37
   83ca4:	710029df 	cmp	w14, #0xa
   83ca8:	8b09014c 	add	x12, x10, x9
   83cac:	1a8b31eb 	csel	w11, w15, w11, cc  // cc = lo, ul, last
   83cb0:	3901fd8b 	strb	w11, [x12, #127]
   83cb4:	d1000529 	sub	x9, x9, #0x1
   83cb8:	2a0d03eb 	mov	w11, w13
   83cbc:	35fffead 	cbnz	w13, 83c90 <_ZN4core3fmt3num53_$LT$impl$u20$core..fmt..UpperHex$u20$for$u20$i32$GT$3fmt17haeba2713e0d468adE+0x18>
   83cc0:	91020120 	add	x0, x9, #0x80
   83cc4:	f102041f 	cmp	x0, #0x81
   83cc8:	540001c2 	b.cs	83d00 <_ZN4core3fmt3num53_$LT$impl$u20$core..fmt..UpperHex$u20$for$u20$i32$GT$3fmt17haeba2713e0d468adE+0x88>  // b.hs, b.nlast
   83ccc:	910003ea 	mov	x10, sp
   83cd0:	cb0903e5 	neg	x5, x9
   83cd4:	8b090149 	add	x9, x10, x9
   83cd8:	90000022 	adrp	x2, 87000 <anon.18d3f1f317091c7eeaf7c365eb201f34.15.llvm.3855770260100345529+0x38>
   83cdc:	91020124 	add	x4, x9, #0x80
   83ce0:	91284042 	add	x2, x2, #0xa10
   83ce4:	52800021 	mov	w1, #0x1                   	// #1
   83ce8:	52800043 	mov	w3, #0x2                   	// #2
   83cec:	aa0803e0 	mov	x0, x8
   83cf0:	94000800 	bl	85cf0 <_ZN4core3fmt9Formatter12pad_integral17hd76664d265795836E>
   83cf4:	f94043fe 	ldr	x30, [sp, #128]
   83cf8:	910243ff 	add	sp, sp, #0x90
   83cfc:	d65f03c0 	ret
   83d00:	90000022 	adrp	x2, 87000 <anon.18d3f1f317091c7eeaf7c365eb201f34.15.llvm.3855770260100345529+0x38>
   83d04:	9127e042 	add	x2, x2, #0x9f8
   83d08:	52801001 	mov	w1, #0x80                  	// #128
   83d0c:	9400031b 	bl	84978 <_ZN4core5slice5index26slice_start_index_len_fail17h92d701fb2ff102e6E>
   83d10:	d4200020 	brk	#0x1

0000000000083d14 <_ZN4core3fmt3num53_$LT$impl$u20$core..fmt..LowerHex$u20$for$u20$i64$GT$3fmt17h8d38a0da9c376211E>:
   83d14:	d10243ff 	sub	sp, sp, #0x90
   83d18:	f940000b 	ldr	x11, [x0]
   83d1c:	aa0103e8 	mov	x8, x1
   83d20:	aa1f03e9 	mov	x9, xzr
   83d24:	910003ea 	mov	x10, sp
   83d28:	f90043fe 	str	x30, [sp, #128]
   83d2c:	12000d6e 	and	w14, w11, #0xf
   83d30:	5280060f 	mov	w15, #0x30                  	// #48
   83d34:	d344fd6d 	lsr	x13, x11, #4
   83d38:	33000d6f 	bfxil	w15, w11, #0, #4
   83d3c:	11015dcb 	add	w11, w14, #0x57
   83d40:	710029df 	cmp	w14, #0xa
   83d44:	8b09014c 	add	x12, x10, x9
   83d48:	1a8b31eb 	csel	w11, w15, w11, cc  // cc = lo, ul, last
   83d4c:	3901fd8b 	strb	w11, [x12, #127]
   83d50:	d1000529 	sub	x9, x9, #0x1
   83d54:	aa0d03eb 	mov	x11, x13
   83d58:	b5fffead 	cbnz	x13, 83d2c <_ZN4core3fmt3num53_$LT$impl$u20$core..fmt..LowerHex$u20$for$u20$i64$GT$3fmt17h8d38a0da9c376211E+0x18>
   83d5c:	91020120 	add	x0, x9, #0x80
   83d60:	f102041f 	cmp	x0, #0x81
   83d64:	540001c2 	b.cs	83d9c <_ZN4core3fmt3num53_$LT$impl$u20$core..fmt..LowerHex$u20$for$u20$i64$GT$3fmt17h8d38a0da9c376211E+0x88>  // b.hs, b.nlast
   83d68:	910003ea 	mov	x10, sp
   83d6c:	cb0903e5 	neg	x5, x9
   83d70:	8b090149 	add	x9, x10, x9
   83d74:	90000022 	adrp	x2, 87000 <anon.18d3f1f317091c7eeaf7c365eb201f34.15.llvm.3855770260100345529+0x38>
   83d78:	91020124 	add	x4, x9, #0x80
   83d7c:	91284042 	add	x2, x2, #0xa10
   83d80:	52800021 	mov	w1, #0x1                   	// #1
   83d84:	52800043 	mov	w3, #0x2                   	// #2
   83d88:	aa0803e0 	mov	x0, x8
   83d8c:	940007d9 	bl	85cf0 <_ZN4core3fmt9Formatter12pad_integral17hd76664d265795836E>
   83d90:	f94043fe 	ldr	x30, [sp, #128]
   83d94:	910243ff 	add	sp, sp, #0x90
   83d98:	d65f03c0 	ret
   83d9c:	90000022 	adrp	x2, 87000 <anon.18d3f1f317091c7eeaf7c365eb201f34.15.llvm.3855770260100345529+0x38>
   83da0:	9127e042 	add	x2, x2, #0x9f8
   83da4:	52801001 	mov	w1, #0x80                  	// #128
   83da8:	940002f4 	bl	84978 <_ZN4core5slice5index26slice_start_index_len_fail17h92d701fb2ff102e6E>
   83dac:	d4200020 	brk	#0x1

0000000000083db0 <_ZN4core3fmt3num53_$LT$impl$u20$core..fmt..UpperHex$u20$for$u20$i64$GT$3fmt17h5161d9ab944c0ce5E>:
   83db0:	d10243ff 	sub	sp, sp, #0x90
   83db4:	f940000b 	ldr	x11, [x0]
   83db8:	aa0103e8 	mov	x8, x1
   83dbc:	aa1f03e9 	mov	x9, xzr
   83dc0:	910003ea 	mov	x10, sp
   83dc4:	f90043fe 	str	x30, [sp, #128]
   83dc8:	12000d6e 	and	w14, w11, #0xf
   83dcc:	5280060f 	mov	w15, #0x30                  	// #48
   83dd0:	d344fd6d 	lsr	x13, x11, #4
   83dd4:	33000d6f 	bfxil	w15, w11, #0, #4
   83dd8:	1100ddcb 	add	w11, w14, #0x37
   83ddc:	710029df 	cmp	w14, #0xa
   83de0:	8b09014c 	add	x12, x10, x9
   83de4:	1a8b31eb 	csel	w11, w15, w11, cc  // cc = lo, ul, last
   83de8:	3901fd8b 	strb	w11, [x12, #127]
   83dec:	d1000529 	sub	x9, x9, #0x1
   83df0:	aa0d03eb 	mov	x11, x13
   83df4:	b5fffead 	cbnz	x13, 83dc8 <_ZN4core3fmt3num53_$LT$impl$u20$core..fmt..UpperHex$u20$for$u20$i64$GT$3fmt17h5161d9ab944c0ce5E+0x18>
   83df8:	91020120 	add	x0, x9, #0x80
   83dfc:	f102041f 	cmp	x0, #0x81
   83e00:	540001c2 	b.cs	83e38 <_ZN4core3fmt3num53_$LT$impl$u20$core..fmt..UpperHex$u20$for$u20$i64$GT$3fmt17h5161d9ab944c0ce5E+0x88>  // b.hs, b.nlast
   83e04:	910003ea 	mov	x10, sp
   83e08:	cb0903e5 	neg	x5, x9
   83e0c:	8b090149 	add	x9, x10, x9
   83e10:	90000022 	adrp	x2, 87000 <anon.18d3f1f317091c7eeaf7c365eb201f34.15.llvm.3855770260100345529+0x38>
   83e14:	91020124 	add	x4, x9, #0x80
   83e18:	91284042 	add	x2, x2, #0xa10
   83e1c:	52800021 	mov	w1, #0x1                   	// #1
   83e20:	52800043 	mov	w3, #0x2                   	// #2
   83e24:	aa0803e0 	mov	x0, x8
   83e28:	940007b2 	bl	85cf0 <_ZN4core3fmt9Formatter12pad_integral17hd76664d265795836E>
   83e2c:	f94043fe 	ldr	x30, [sp, #128]
   83e30:	910243ff 	add	sp, sp, #0x90
   83e34:	d65f03c0 	ret
   83e38:	90000022 	adrp	x2, 87000 <anon.18d3f1f317091c7eeaf7c365eb201f34.15.llvm.3855770260100345529+0x38>
   83e3c:	9127e042 	add	x2, x2, #0x9f8
   83e40:	52801001 	mov	w1, #0x80                  	// #128
   83e44:	940002cd 	bl	84978 <_ZN4core5slice5index26slice_start_index_len_fail17h92d701fb2ff102e6E>
   83e48:	d4200020 	brk	#0x1

0000000000083e4c <_ZN4core3ptr25drop_in_place$LT$char$GT$17h63faa3cbb4c2c790E.llvm.17280607647294964220>:
   83e4c:	d65f03c0 	ret

0000000000083e50 <_ZN68_$LT$core..fmt..builders..PadAdapter$u20$as$u20$core..fmt..Write$GT$9write_str17h664f3ba9611891cdE>:
   83e50:	d10283ff 	sub	sp, sp, #0xa0
   83e54:	fd002be8 	str	d8, [sp, #80]
   83e58:	f9002ffe 	str	x30, [sp, #88]
   83e5c:	a90667fa 	stp	x26, x25, [sp, #96]
   83e60:	a9075ff8 	stp	x24, x23, [sp, #112]
   83e64:	a90857f6 	stp	x22, x21, [sp, #128]
   83e68:	a9094ff4 	stp	x20, x19, [sp, #144]
   83e6c:	b40013e2 	cbz	x2, 840e8 <_ZN68_$LT$core..fmt..builders..PadAdapter$u20$as$u20$core..fmt..Write$GT$9write_str17h664f3ba9611891cdE+0x298>
   83e70:	a940e019 	ldp	x25, x24, [x0, #8]
   83e74:	f9400015 	ldr	x21, [x0]
   83e78:	b207dbe8 	mov	x8, #0xfefefefefefefefe    	// #-72340172838076674
   83e7c:	f29fdfe8 	movk	x8, #0xfeff
   83e80:	90000036 	adrp	x22, 87000 <anon.18d3f1f317091c7eeaf7c365eb201f34.15.llvm.3855770260100345529+0x38>
   83e84:	aa0203f3 	mov	x19, x2
   83e88:	aa0103f4 	mov	x20, x1
   83e8c:	5280003a 	mov	w26, #0x1                   	// #1
   83e90:	0f000548 	movi	v8.2s, #0xa
   83e94:	4f00e542 	movi	v2.16b, #0xa
   83e98:	4e080d03 	dup	v3.2d, x8
   83e9c:	4f04e404 	movi	v4.16b, #0x80
   83ea0:	912b6ad6 	add	x22, x22, #0xada
   83ea4:	3d8003e3 	str	q3, [sp]
   83ea8:	1400000d 	b	83edc <_ZN68_$LT$core..fmt..builders..PadAdapter$u20$as$u20$core..fmt..Write$GT$9write_str17h664f3ba9611891cdE+0x8c>
   83eac:	f9400f28 	ldr	x8, [x25, #24]
   83eb0:	aa1503e0 	mov	x0, x21
   83eb4:	aa1403e1 	mov	x1, x20
   83eb8:	aa1f03e2 	mov	x2, xzr
   83ebc:	d63f0100 	blr	x8
   83ec0:	3dc003e3 	ldr	q3, [sp]
   83ec4:	4f04e404 	movi	v4.16b, #0x80
   83ec8:	4f00e542 	movi	v2.16b, #0xa
   83ecc:	370010a0 	tbnz	w0, #0, 840e0 <_ZN68_$LT$core..fmt..builders..PadAdapter$u20$as$u20$core..fmt..Write$GT$9write_str17h664f3ba9611891cdE+0x290>
   83ed0:	eb170273 	subs	x19, x19, x23
   83ed4:	8b170294 	add	x20, x20, x23
   83ed8:	54001080 	b.eq	840e8 <_ZN68_$LT$core..fmt..builders..PadAdapter$u20$as$u20$core..fmt..Write$GT$9write_str17h664f3ba9611891cdE+0x298>  // b.none
   83edc:	39400308 	ldrb	w8, [x24]
   83ee0:	34000148 	cbz	w8, 83f08 <_ZN68_$LT$core..fmt..builders..PadAdapter$u20$as$u20$core..fmt..Write$GT$9write_str17h664f3ba9611891cdE+0xb8>
   83ee4:	f9400f28 	ldr	x8, [x25, #24]
   83ee8:	52800082 	mov	w2, #0x4                   	// #4
   83eec:	aa1503e0 	mov	x0, x21
   83ef0:	aa1603e1 	mov	x1, x22
   83ef4:	d63f0100 	blr	x8
   83ef8:	3dc003e3 	ldr	q3, [sp]
   83efc:	4f04e404 	movi	v4.16b, #0x80
   83f00:	4f00e542 	movi	v2.16b, #0xa
   83f04:	37000ee0 	tbnz	w0, #0, 840e0 <_ZN68_$LT$core..fmt..builders..PadAdapter$u20$as$u20$core..fmt..Write$GT$9write_str17h664f3ba9611891cdE+0x290>
   83f08:	fd0027e8 	str	d8, [sp, #72]
   83f0c:	394133e8 	ldrb	w8, [sp, #76]
   83f10:	aa1f03f7 	mov	x23, xzr
   83f14:	aa1303e1 	mov	x1, x19
   83f18:	a9024ff4 	stp	x20, x19, [sp, #32]
   83f1c:	a903ebf3 	stp	x19, x26, [sp, #56]
   83f20:	14000003 	b	83f2c <_ZN68_$LT$core..fmt..builders..PadAdapter$u20$as$u20$core..fmt..Write$GT$9write_str17h664f3ba9611891cdE+0xdc>
   83f24:	eb170261 	subs	x1, x19, x23
   83f28:	54000963 	b.cc	84054 <_ZN68_$LT$core..fmt..builders..PadAdapter$u20$as$u20$core..fmt..Write$GT$9write_str17h664f3ba9611891cdE+0x204>  // b.lo, b.ul, b.last
   83f2c:	f1004029 	subs	x9, x1, #0x10
   83f30:	54000162 	b.cs	83f5c <_ZN68_$LT$core..fmt..builders..PadAdapter$u20$as$u20$core..fmt..Write$GT$9write_str17h664f3ba9611891cdE+0x10c>  // b.hs, b.nlast
   83f34:	b4000901 	cbz	x1, 84054 <_ZN68_$LT$core..fmt..builders..PadAdapter$u20$as$u20$core..fmt..Write$GT$9write_str17h664f3ba9611891cdE+0x204>
   83f38:	aa1f03ea 	mov	x10, xzr
   83f3c:	8b170289 	add	x9, x20, x23
   83f40:	386a692b 	ldrb	w11, [x9, x10]
   83f44:	7100297f 	cmp	w11, #0xa
   83f48:	54000740 	b.eq	84030 <_ZN68_$LT$core..fmt..builders..PadAdapter$u20$as$u20$core..fmt..Write$GT$9write_str17h664f3ba9611891cdE+0x1e0>  // b.none
   83f4c:	9100054a 	add	x10, x10, #0x1
   83f50:	eb0a003f 	cmp	x1, x10
   83f54:	54ffff61 	b.ne	83f40 <_ZN68_$LT$core..fmt..builders..PadAdapter$u20$as$u20$core..fmt..Write$GT$9write_str17h664f3ba9611891cdE+0xf0>  // b.any
   83f58:	1400003f 	b	84054 <_ZN68_$LT$core..fmt..builders..PadAdapter$u20$as$u20$core..fmt..Write$GT$9write_str17h664f3ba9611891cdE+0x204>
   83f5c:	8b17028a 	add	x10, x20, x23
   83f60:	91001d4b 	add	x11, x10, #0x7
   83f64:	927df16b 	and	x11, x11, #0xfffffffffffffff8
   83f68:	eb0a016b 	subs	x11, x11, x10
   83f6c:	540001c0 	b.eq	83fa4 <_ZN68_$LT$core..fmt..builders..PadAdapter$u20$as$u20$core..fmt..Write$GT$9write_str17h664f3ba9611891cdE+0x154>  // b.none
   83f70:	eb01017f 	cmp	x11, x1
   83f74:	aa1f03ea 	mov	x10, xzr
   83f78:	9a8b8020 	csel	x0, x1, x11, hi  // hi = pmore
   83f7c:	8b17028b 	add	x11, x20, x23
   83f80:	386a696c 	ldrb	w12, [x11, x10]
   83f84:	7100299f 	cmp	w12, #0xa
   83f88:	54000540 	b.eq	84030 <_ZN68_$LT$core..fmt..builders..PadAdapter$u20$as$u20$core..fmt..Write$GT$9write_str17h664f3ba9611891cdE+0x1e0>  // b.none
   83f8c:	9100054a 	add	x10, x10, #0x1
   83f90:	eb0a001f 	cmp	x0, x10
   83f94:	54ffff61 	b.ne	83f80 <_ZN68_$LT$core..fmt..builders..PadAdapter$u20$as$u20$core..fmt..Write$GT$9write_str17h664f3ba9611891cdE+0x130>  // b.any
   83f98:	eb09001f 	cmp	x0, x9
   83f9c:	54000069 	b.ls	83fa8 <_ZN68_$LT$core..fmt..builders..PadAdapter$u20$as$u20$core..fmt..Write$GT$9write_str17h664f3ba9611891cdE+0x158>  // b.plast
   83fa0:	14000016 	b	83ff8 <_ZN68_$LT$core..fmt..builders..PadAdapter$u20$as$u20$core..fmt..Write$GT$9write_str17h664f3ba9611891cdE+0x1a8>
   83fa4:	aa1f03e0 	mov	x0, xzr
   83fa8:	8b17028a 	add	x10, x20, x23
   83fac:	8b00014b 	add	x11, x10, x0
   83fb0:	f940056c 	ldr	x12, [x11, #8]
   83fb4:	f9000fec 	str	x12, [sp, #24]
   83fb8:	f940016b 	ldr	x11, [x11]
   83fbc:	f9000beb 	str	x11, [sp, #16]
   83fc0:	3dc007e0 	ldr	q0, [sp, #16]
   83fc4:	6e221c01 	eor	v1.16b, v0.16b, v2.16b
   83fc8:	4ee38421 	add	v1.2d, v1.2d, v3.2d
   83fcc:	4e601c20 	bic	v0.16b, v1.16b, v0.16b
   83fd0:	4e241c00 	and	v0.16b, v0.16b, v4.16b
   83fd4:	4e180401 	dup	v1.2d, v0.d[1]
   83fd8:	4ea01c20 	orr	v0.16b, v1.16b, v0.16b
   83fdc:	9e66000b 	fmov	x11, d0
   83fe0:	b500008b 	cbnz	x11, 83ff0 <_ZN68_$LT$core..fmt..builders..PadAdapter$u20$as$u20$core..fmt..Write$GT$9write_str17h664f3ba9611891cdE+0x1a0>
   83fe4:	91004000 	add	x0, x0, #0x10
   83fe8:	eb09001f 	cmp	x0, x9
   83fec:	54fffe09 	b.ls	83fac <_ZN68_$LT$core..fmt..builders..PadAdapter$u20$as$u20$core..fmt..Write$GT$9write_str17h664f3ba9611891cdE+0x15c>  // b.plast
   83ff0:	eb01001f 	cmp	x0, x1
   83ff4:	540009c8 	b.hi	8412c <_ZN68_$LT$core..fmt..builders..PadAdapter$u20$as$u20$core..fmt..Write$GT$9write_str17h664f3ba9611891cdE+0x2dc>  // b.pmore
   83ff8:	eb01001f 	cmp	x0, x1
   83ffc:	540002c0 	b.eq	84054 <_ZN68_$LT$core..fmt..builders..PadAdapter$u20$as$u20$core..fmt..Write$GT$9write_str17h664f3ba9611891cdE+0x204>  // b.none
   84000:	8b17000a 	add	x10, x0, x23
   84004:	aa1f03e9 	mov	x9, xzr
   84008:	8b0a028a 	add	x10, x20, x10
   8400c:	cb00002b 	sub	x11, x1, x0
   84010:	3869694c 	ldrb	w12, [x10, x9]
   84014:	7100299f 	cmp	w12, #0xa
   84018:	540000a0 	b.eq	8402c <_ZN68_$LT$core..fmt..builders..PadAdapter$u20$as$u20$core..fmt..Write$GT$9write_str17h664f3ba9611891cdE+0x1dc>  // b.none
   8401c:	91000529 	add	x9, x9, #0x1
   84020:	eb09017f 	cmp	x11, x9
   84024:	54ffff61 	b.ne	84010 <_ZN68_$LT$core..fmt..builders..PadAdapter$u20$as$u20$core..fmt..Write$GT$9write_str17h664f3ba9611891cdE+0x1c0>  // b.any
   84028:	1400000b 	b	84054 <_ZN68_$LT$core..fmt..builders..PadAdapter$u20$as$u20$core..fmt..Write$GT$9write_str17h664f3ba9611891cdE+0x204>
   8402c:	8b09000a 	add	x10, x0, x9
   84030:	8b0a02e9 	add	x9, x23, x10
   84034:	eb13013f 	cmp	x9, x19
   84038:	91000537 	add	x23, x9, #0x1
   8403c:	54fff742 	b.cs	83f24 <_ZN68_$LT$core..fmt..builders..PadAdapter$u20$as$u20$core..fmt..Write$GT$9write_str17h664f3ba9611891cdE+0xd4>  // b.hs, b.nlast
   84040:	38696a89 	ldrb	w9, [x20, x9]
   84044:	6b08013f 	cmp	w9, w8
   84048:	54fff6e1 	b.ne	83f24 <_ZN68_$LT$core..fmt..builders..PadAdapter$u20$as$u20$core..fmt..Write$GT$9write_str17h664f3ba9611891cdE+0xd4>  // b.any
   8404c:	3900031a 	strb	w26, [x24]
   84050:	14000004 	b	84060 <_ZN68_$LT$core..fmt..builders..PadAdapter$u20$as$u20$core..fmt..Write$GT$9write_str17h664f3ba9611891cdE+0x210>
   84054:	aa1303f7 	mov	x23, x19
   84058:	3900031f 	strb	wzr, [x24]
   8405c:	b4fff293 	cbz	x19, 83eac <_ZN68_$LT$core..fmt..builders..PadAdapter$u20$as$u20$core..fmt..Write$GT$9write_str17h664f3ba9611891cdE+0x5c>
   84060:	eb17027f 	cmp	x19, x23
   84064:	54000289 	b.ls	840b4 <_ZN68_$LT$core..fmt..builders..PadAdapter$u20$as$u20$core..fmt..Write$GT$9write_str17h664f3ba9611891cdE+0x264>  // b.plast
   84068:	38f76a88 	ldrsb	w8, [x20, x23]
   8406c:	3101051f 	cmn	w8, #0x41
   84070:	540004ed 	b.le	8410c <_ZN68_$LT$core..fmt..builders..PadAdapter$u20$as$u20$core..fmt..Write$GT$9write_str17h664f3ba9611891cdE+0x2bc>
   84074:	f9400f28 	ldr	x8, [x25, #24]
   84078:	aa1503e0 	mov	x0, x21
   8407c:	aa1403e1 	mov	x1, x20
   84080:	aa1703e2 	mov	x2, x23
   84084:	d63f0100 	blr	x8
   84088:	370002c0 	tbnz	w0, #0, 840e0 <_ZN68_$LT$core..fmt..builders..PadAdapter$u20$as$u20$core..fmt..Write$GT$9write_str17h664f3ba9611891cdE+0x290>
   8408c:	38f76a88 	ldrsb	w8, [x20, x23]
   84090:	3101051f 	cmn	w8, #0x41
   84094:	5400054d 	b.le	8413c <_ZN68_$LT$core..fmt..builders..PadAdapter$u20$as$u20$core..fmt..Write$GT$9write_str17h664f3ba9611891cdE+0x2ec>
   84098:	3dc003e3 	ldr	q3, [sp]
   8409c:	4f00e542 	movi	v2.16b, #0xa
   840a0:	4f04e404 	movi	v4.16b, #0x80
   840a4:	eb170273 	subs	x19, x19, x23
   840a8:	8b170294 	add	x20, x20, x23
   840ac:	54fff181 	b.ne	83edc <_ZN68_$LT$core..fmt..builders..PadAdapter$u20$as$u20$core..fmt..Write$GT$9write_str17h664f3ba9611891cdE+0x8c>  // b.any
   840b0:	1400000e 	b	840e8 <_ZN68_$LT$core..fmt..builders..PadAdapter$u20$as$u20$core..fmt..Write$GT$9write_str17h664f3ba9611891cdE+0x298>
   840b4:	540002c1 	b.ne	8410c <_ZN68_$LT$core..fmt..builders..PadAdapter$u20$as$u20$core..fmt..Write$GT$9write_str17h664f3ba9611891cdE+0x2bc>  // b.any
   840b8:	f9400f28 	ldr	x8, [x25, #24]
   840bc:	aa1503e0 	mov	x0, x21
   840c0:	aa1403e1 	mov	x1, x20
   840c4:	aa1303e2 	mov	x2, x19
   840c8:	d63f0100 	blr	x8
   840cc:	3dc003e3 	ldr	q3, [sp]
   840d0:	aa1303f7 	mov	x23, x19
   840d4:	4f00e542 	movi	v2.16b, #0xa
   840d8:	4f04e404 	movi	v4.16b, #0x80
   840dc:	3607efa0 	tbz	w0, #0, 83ed0 <_ZN68_$LT$core..fmt..builders..PadAdapter$u20$as$u20$core..fmt..Write$GT$9write_str17h664f3ba9611891cdE+0x80>
   840e0:	52800020 	mov	w0, #0x1                   	// #1
   840e4:	14000002 	b	840ec <_ZN68_$LT$core..fmt..builders..PadAdapter$u20$as$u20$core..fmt..Write$GT$9write_str17h664f3ba9611891cdE+0x29c>
   840e8:	2a1f03e0 	mov	w0, wzr
   840ec:	a9494ff4 	ldp	x20, x19, [sp, #144]
   840f0:	a94857f6 	ldp	x22, x21, [sp, #128]
   840f4:	a9475ff8 	ldp	x24, x23, [sp, #112]
   840f8:	a94667fa 	ldp	x26, x25, [sp, #96]
   840fc:	f9402ffe 	ldr	x30, [sp, #88]
   84100:	fd402be8 	ldr	d8, [sp, #80]
   84104:	910283ff 	add	sp, sp, #0xa0
   84108:	d65f03c0 	ret
   8410c:	f0000004 	adrp	x4, 87000 <anon.18d3f1f317091c7eeaf7c365eb201f34.15.llvm.3855770260100345529+0x38>
   84110:	912d8084 	add	x4, x4, #0xb60
   84114:	aa1403e0 	mov	x0, x20
   84118:	aa1303e1 	mov	x1, x19
   8411c:	aa1f03e2 	mov	x2, xzr
   84120:	aa1703e3 	mov	x3, x23
   84124:	940004ad 	bl	853d8 <_ZN4core3str16slice_error_fail17h0a884f572164fefcE>
   84128:	d4200020 	brk	#0x1
   8412c:	90000022 	adrp	x2, 88000 <anon.57ef2e3c02ffeaf529e6c598bd0b036c.16.llvm.5445877691761700591+0x10e>
   84130:	9111a042 	add	x2, x2, #0x468
   84134:	94000211 	bl	84978 <_ZN4core5slice5index26slice_start_index_len_fail17h92d701fb2ff102e6E>
   84138:	d4200020 	brk	#0x1
   8413c:	f0000004 	adrp	x4, 87000 <anon.18d3f1f317091c7eeaf7c365eb201f34.15.llvm.3855770260100345529+0x38>
   84140:	912de084 	add	x4, x4, #0xb78
   84144:	aa1403e0 	mov	x0, x20
   84148:	aa1303e1 	mov	x1, x19
   8414c:	aa1703e2 	mov	x2, x23
   84150:	aa1303e3 	mov	x3, x19
   84154:	940004a1 	bl	853d8 <_ZN4core3str16slice_error_fail17h0a884f572164fefcE>
   84158:	d4200020 	brk	#0x1

000000000008415c <_ZN4core3fmt8builders11DebugStruct5field17h9e0dae53a1c9bd69E>:
   8415c:	d10303ff 	sub	sp, sp, #0xc0
   84160:	39402008 	ldrb	w8, [x0, #8]
   84164:	a90867fe 	stp	x30, x25, [sp, #128]
   84168:	a90b4ff4 	stp	x20, x19, [sp, #176]
   8416c:	aa0003f3 	mov	x19, x0
   84170:	52800039 	mov	w25, #0x1                   	// #1
   84174:	52800020 	mov	w0, #0x1                   	// #1
   84178:	a9095ff8 	stp	x24, x23, [sp, #144]
   8417c:	a90a57f6 	stp	x22, x21, [sp, #160]
   84180:	35000b28 	cbnz	w8, 842e4 <_ZN4core3fmt8builders11DebugStruct5field17h9e0dae53a1c9bd69E+0x188>
   84184:	f9400277 	ldr	x23, [x19]
   84188:	39402669 	ldrb	w9, [x19, #9]
   8418c:	aa0403f5 	mov	x21, x4
   84190:	aa0303f4 	mov	x20, x3
   84194:	b94032e8 	ldr	w8, [x23, #48]
   84198:	aa0203f6 	mov	x22, x2
   8419c:	aa0103f8 	mov	x24, x1
   841a0:	371003e8 	tbnz	w8, #2, 8421c <_ZN4core3fmt8builders11DebugStruct5field17h9e0dae53a1c9bd69E+0xc0>
   841a4:	a94222e0 	ldp	x0, x8, [x23, #32]
   841a8:	f000000a 	adrp	x10, 87000 <anon.18d3f1f317091c7eeaf7c365eb201f34.15.llvm.3855770260100345529+0x38>
   841ac:	f000000b 	adrp	x11, 87000 <anon.18d3f1f317091c7eeaf7c365eb201f34.15.llvm.3855770260100345529+0x38>
   841b0:	912e5d4a 	add	x10, x10, #0xb97
   841b4:	f9400d08 	ldr	x8, [x8, #24]
   841b8:	912e656b 	add	x11, x11, #0xb99
   841bc:	7100013f 	cmp	w9, #0x0
   841c0:	52800049 	mov	w9, #0x2                   	// #2
   841c4:	9a8a0161 	csel	x1, x11, x10, eq  // eq = none
   841c8:	9a891522 	cinc	x2, x9, eq  // eq = none
   841cc:	d63f0100 	blr	x8
   841d0:	37000880 	tbnz	w0, #0, 842e0 <_ZN4core3fmt8builders11DebugStruct5field17h9e0dae53a1c9bd69E+0x184>
   841d4:	a94222e0 	ldp	x0, x8, [x23, #32]
   841d8:	aa1803e1 	mov	x1, x24
   841dc:	aa1603e2 	mov	x2, x22
   841e0:	f9400d08 	ldr	x8, [x8, #24]
   841e4:	d63f0100 	blr	x8
   841e8:	370007c0 	tbnz	w0, #0, 842e0 <_ZN4core3fmt8builders11DebugStruct5field17h9e0dae53a1c9bd69E+0x184>
   841ec:	a94222e0 	ldp	x0, x8, [x23, #32]
   841f0:	f0000001 	adrp	x1, 87000 <anon.18d3f1f317091c7eeaf7c365eb201f34.15.llvm.3855770260100345529+0x38>
   841f4:	912e4c21 	add	x1, x1, #0xb93
   841f8:	52800042 	mov	w2, #0x2                   	// #2
   841fc:	f9400d08 	ldr	x8, [x8, #24]
   84200:	d63f0100 	blr	x8
   84204:	370006e0 	tbnz	w0, #0, 842e0 <_ZN4core3fmt8builders11DebugStruct5field17h9e0dae53a1c9bd69E+0x184>
   84208:	f9400ea8 	ldr	x8, [x21, #24]
   8420c:	aa1403e0 	mov	x0, x20
   84210:	aa1703e1 	mov	x1, x23
   84214:	d63f0100 	blr	x8
   84218:	14000033 	b	842e4 <_ZN4core3fmt8builders11DebugStruct5field17h9e0dae53a1c9bd69E+0x188>
   8421c:	35000129 	cbnz	w9, 84240 <_ZN4core3fmt8builders11DebugStruct5field17h9e0dae53a1c9bd69E+0xe4>
   84220:	a94222e0 	ldp	x0, x8, [x23, #32]
   84224:	f0000001 	adrp	x1, 87000 <anon.18d3f1f317091c7eeaf7c365eb201f34.15.llvm.3855770260100345529+0x38>
   84228:	912e4021 	add	x1, x1, #0xb90
   8422c:	52800062 	mov	w2, #0x3                   	// #3
   84230:	f9400d08 	ldr	x8, [x8, #24]
   84234:	d63f0100 	blr	x8
   84238:	37000540 	tbnz	w0, #0, 842e0 <_ZN4core3fmt8builders11DebugStruct5field17h9e0dae53a1c9bd69E+0x184>
   8423c:	b94032e8 	ldr	w8, [x23, #48]
   84240:	52800029 	mov	w9, #0x1                   	// #1
   84244:	3900f3e9 	strb	w9, [sp, #60]
   84248:	a9422ae9 	ldp	x9, x10, [x23, #32]
   8424c:	9100f3eb 	add	x11, sp, #0x3c
   84250:	910083ec 	add	x12, sp, #0x20
   84254:	910083e0 	add	x0, sp, #0x20
   84258:	a902afea 	stp	x10, x11, [sp, #40]
   8425c:	f90013e9 	str	x9, [sp, #32]
   84260:	f94006e9 	ldr	x9, [x23, #8]
   84264:	b94036ea 	ldr	w10, [x23, #52]
   84268:	3940e2eb 	ldrb	w11, [x23, #56]
   8426c:	aa1803e1 	mov	x1, x24
   84270:	f90007e9 	str	x9, [sp, #8]
   84274:	f94002e9 	ldr	x9, [x23]
   84278:	aa1603e2 	mov	x2, x22
   8427c:	f90003e9 	str	x9, [sp]
   84280:	f9400ee9 	ldr	x9, [x23, #24]
   84284:	f9000fe9 	str	x9, [sp, #24]
   84288:	f9400ae9 	ldr	x9, [x23, #16]
   8428c:	290e2be8 	stp	w8, w10, [sp, #112]
   84290:	3901e3eb 	strb	w11, [sp, #120]
   84294:	f9000be9 	str	x9, [sp, #16]
   84298:	ad4007e0 	ldp	q0, q1, [sp]
   8429c:	90000029 	adrp	x9, 88000 <anon.57ef2e3c02ffeaf529e6c598bd0b036c.16.llvm.5445877691761700591+0x10e>
   842a0:	912a0129 	add	x9, x9, #0xa80
   842a4:	a90627ec 	stp	x12, x9, [sp, #96]
   842a8:	ad0207e0 	stp	q0, q1, [sp, #64]
   842ac:	97fffee9 	bl	83e50 <_ZN68_$LT$core..fmt..builders..PadAdapter$u20$as$u20$core..fmt..Write$GT$9write_str17h664f3ba9611891cdE>
   842b0:	37000180 	tbnz	w0, #0, 842e0 <_ZN4core3fmt8builders11DebugStruct5field17h9e0dae53a1c9bd69E+0x184>
   842b4:	f0000001 	adrp	x1, 87000 <anon.18d3f1f317091c7eeaf7c365eb201f34.15.llvm.3855770260100345529+0x38>
   842b8:	912e4c21 	add	x1, x1, #0xb93
   842bc:	910083e0 	add	x0, sp, #0x20
   842c0:	52800042 	mov	w2, #0x2                   	// #2
   842c4:	97fffee3 	bl	83e50 <_ZN68_$LT$core..fmt..builders..PadAdapter$u20$as$u20$core..fmt..Write$GT$9write_str17h664f3ba9611891cdE>
   842c8:	350000c0 	cbnz	w0, 842e0 <_ZN4core3fmt8builders11DebugStruct5field17h9e0dae53a1c9bd69E+0x184>
   842cc:	f9400ea8 	ldr	x8, [x21, #24]
   842d0:	910103e1 	add	x1, sp, #0x40
   842d4:	aa1403e0 	mov	x0, x20
   842d8:	d63f0100 	blr	x8
   842dc:	36000160 	tbz	w0, #0, 84308 <_ZN4core3fmt8builders11DebugStruct5field17h9e0dae53a1c9bd69E+0x1ac>
   842e0:	52800020 	mov	w0, #0x1                   	// #1
   842e4:	39002260 	strb	w0, [x19, #8]
   842e8:	39002679 	strb	w25, [x19, #9]
   842ec:	aa1303e0 	mov	x0, x19
   842f0:	a94b4ff4 	ldp	x20, x19, [sp, #176]
   842f4:	a94a57f6 	ldp	x22, x21, [sp, #160]
   842f8:	a9495ff8 	ldp	x24, x23, [sp, #144]
   842fc:	a94867fe 	ldp	x30, x25, [sp, #128]
   84300:	910303ff 	add	sp, sp, #0xc0
   84304:	d65f03c0 	ret
   84308:	a94623e0 	ldp	x0, x8, [sp, #96]
   8430c:	f0000001 	adrp	x1, 87000 <anon.18d3f1f317091c7eeaf7c365eb201f34.15.llvm.3855770260100345529+0x38>
   84310:	912e5421 	add	x1, x1, #0xb95
   84314:	52800042 	mov	w2, #0x2                   	// #2
   84318:	f9400d08 	ldr	x8, [x8, #24]
   8431c:	d63f0100 	blr	x8
   84320:	17fffff1 	b	842e4 <_ZN4core3fmt8builders11DebugStruct5field17h9e0dae53a1c9bd69E+0x188>

0000000000084324 <_ZN4core3fmt8builders11DebugStruct6finish17h3a651c6e351ea651E>:
   84324:	a9bf4ffe 	stp	x30, x19, [sp, #-16]!
   84328:	aa0003f3 	mov	x19, x0
   8432c:	39402408 	ldrb	w8, [x0, #9]
   84330:	39402000 	ldrb	w0, [x0, #8]
   84334:	34000268 	cbz	w8, 84380 <_ZN4core3fmt8builders11DebugStruct6finish17h3a651c6e351ea651E+0x5c>
   84338:	34000060 	cbz	w0, 84344 <_ZN4core3fmt8builders11DebugStruct6finish17h3a651c6e351ea651E+0x20>
   8433c:	52800020 	mov	w0, #0x1                   	// #1
   84340:	1400000f 	b	8437c <_ZN4core3fmt8builders11DebugStruct6finish17h3a651c6e351ea651E+0x58>
   84344:	f9400268 	ldr	x8, [x19]
   84348:	3940c109 	ldrb	w9, [x8, #48]
   8434c:	371000c9 	tbnz	w9, #2, 84364 <_ZN4core3fmt8builders11DebugStruct6finish17h3a651c6e351ea651E+0x40>
   84350:	a9422500 	ldp	x0, x9, [x8, #32]
   84354:	f0000001 	adrp	x1, 87000 <anon.18d3f1f317091c7eeaf7c365eb201f34.15.llvm.3855770260100345529+0x38>
   84358:	912e7421 	add	x1, x1, #0xb9d
   8435c:	52800042 	mov	w2, #0x2                   	// #2
   84360:	14000005 	b	84374 <_ZN4core3fmt8builders11DebugStruct6finish17h3a651c6e351ea651E+0x50>
   84364:	a9422500 	ldp	x0, x9, [x8, #32]
   84368:	f0000001 	adrp	x1, 87000 <anon.18d3f1f317091c7eeaf7c365eb201f34.15.llvm.3855770260100345529+0x38>
   8436c:	912e7021 	add	x1, x1, #0xb9c
   84370:	52800022 	mov	w2, #0x1                   	// #1
   84374:	f9400d28 	ldr	x8, [x9, #24]
   84378:	d63f0100 	blr	x8
   8437c:	39002260 	strb	w0, [x19, #8]
   84380:	7100001f 	cmp	w0, #0x0
   84384:	1a9f07e0 	cset	w0, ne  // ne = any
   84388:	a8c14ffe 	ldp	x30, x19, [sp], #16
   8438c:	d65f03c0 	ret

0000000000084390 <_ZN4core3fmt8builders10DebugTuple5field17hdc232892654909f1E>:
   84390:	d10303ff 	sub	sp, sp, #0xc0
   84394:	39404008 	ldrb	w8, [x0, #16]
   84398:	a90b4ff4 	stp	x20, x19, [sp, #176]
   8439c:	aa0003f3 	mov	x19, x0
   843a0:	f90043fe 	str	x30, [sp, #128]
   843a4:	a9095ff8 	stp	x24, x23, [sp, #144]
   843a8:	a90a57f6 	stp	x22, x21, [sp, #160]
   843ac:	340001a8 	cbz	w8, 843e0 <_ZN4core3fmt8builders10DebugTuple5field17hdc232892654909f1E+0x50>
   843b0:	f9400678 	ldr	x24, [x19, #8]
   843b4:	52800037 	mov	w23, #0x1                   	// #1
   843b8:	91000708 	add	x8, x24, #0x1
   843bc:	39004277 	strb	w23, [x19, #16]
   843c0:	f9000668 	str	x8, [x19, #8]
   843c4:	aa1303e0 	mov	x0, x19
   843c8:	a94b4ff4 	ldp	x20, x19, [sp, #176]
   843cc:	a94a57f6 	ldp	x22, x21, [sp, #160]
   843d0:	a9495ff8 	ldp	x24, x23, [sp, #144]
   843d4:	f94043fe 	ldr	x30, [sp, #128]
   843d8:	910303ff 	add	sp, sp, #0xc0
   843dc:	d65f03c0 	ret
   843e0:	a9406276 	ldp	x22, x24, [x19]
   843e4:	aa0203f5 	mov	x21, x2
   843e8:	aa0103f4 	mov	x20, x1
   843ec:	b94032c8 	ldr	w8, [x22, #48]
   843f0:	37100268 	tbnz	w8, #2, 8443c <_ZN4core3fmt8builders10DebugTuple5field17hdc232892654909f1E+0xac>
   843f4:	a94222c0 	ldp	x0, x8, [x22, #32]
   843f8:	f0000009 	adrp	x9, 87000 <anon.18d3f1f317091c7eeaf7c365eb201f34.15.llvm.3855770260100345529+0x38>
   843fc:	f000000a 	adrp	x10, 87000 <anon.18d3f1f317091c7eeaf7c365eb201f34.15.llvm.3855770260100345529+0x38>
   84400:	912e5d29 	add	x9, x9, #0xb97
   84404:	f9400d08 	ldr	x8, [x8, #24]
   84408:	912e854a 	add	x10, x10, #0xba1
   8440c:	f100031f 	cmp	x24, #0x0
   84410:	52800037 	mov	w23, #0x1                   	// #1
   84414:	9a890141 	csel	x1, x10, x9, eq  // eq = none
   84418:	9a9706e2 	cinc	x2, x23, ne  // ne = any
   8441c:	d63f0100 	blr	x8
   84420:	3707fcc0 	tbnz	w0, #0, 843b8 <_ZN4core3fmt8builders10DebugTuple5field17hdc232892654909f1E+0x28>
   84424:	f9400ea8 	ldr	x8, [x21, #24]
   84428:	aa1403e0 	mov	x0, x20
   8442c:	aa1603e1 	mov	x1, x22
   84430:	d63f0100 	blr	x8
   84434:	2a0003f7 	mov	w23, w0
   84438:	17ffffe0 	b	843b8 <_ZN4core3fmt8builders10DebugTuple5field17hdc232892654909f1E+0x28>
   8443c:	b5000178 	cbnz	x24, 84468 <_ZN4core3fmt8builders10DebugTuple5field17hdc232892654909f1E+0xd8>
   84440:	a94222c0 	ldp	x0, x8, [x22, #32]
   84444:	f0000001 	adrp	x1, 87000 <anon.18d3f1f317091c7eeaf7c365eb201f34.15.llvm.3855770260100345529+0x38>
   84448:	912e7c21 	add	x1, x1, #0xb9f
   8444c:	52800042 	mov	w2, #0x2                   	// #2
   84450:	f9400d08 	ldr	x8, [x8, #24]
   84454:	d63f0100 	blr	x8
   84458:	36000060 	tbz	w0, #0, 84464 <_ZN4core3fmt8builders10DebugTuple5field17hdc232892654909f1E+0xd4>
   8445c:	aa1f03f8 	mov	x24, xzr
   84460:	17ffffd5 	b	843b4 <_ZN4core3fmt8builders10DebugTuple5field17hdc232892654909f1E+0x24>
   84464:	b94032c8 	ldr	w8, [x22, #48]
   84468:	52800029 	mov	w9, #0x1                   	// #1
   8446c:	390233e9 	strb	w9, [sp, #140]
   84470:	a9422ac9 	ldp	x9, x10, [x22, #32]
   84474:	910233eb 	add	x11, sp, #0x8c
   84478:	9100a3ec 	add	x12, sp, #0x28
   8447c:	910103e1 	add	x1, sp, #0x40
   84480:	a9032fea 	stp	x10, x11, [sp, #48]
   84484:	f90017e9 	str	x9, [sp, #40]
   84488:	f94006c9 	ldr	x9, [x22, #8]
   8448c:	b94036ca 	ldr	w10, [x22, #52]
   84490:	3940e2cb 	ldrb	w11, [x22, #56]
   84494:	aa1403e0 	mov	x0, x20
   84498:	f90007e9 	str	x9, [sp, #8]
   8449c:	f94002c9 	ldr	x9, [x22]
   844a0:	f90003e9 	str	x9, [sp]
   844a4:	f9400ec9 	ldr	x9, [x22, #24]
   844a8:	f9000fe9 	str	x9, [sp, #24]
   844ac:	f9400ac9 	ldr	x9, [x22, #16]
   844b0:	290e2be8 	stp	w8, w10, [sp, #112]
   844b4:	3901e3eb 	strb	w11, [sp, #120]
   844b8:	f9000be9 	str	x9, [sp, #16]
   844bc:	ad4007e0 	ldp	q0, q1, [sp]
   844c0:	f9400ea8 	ldr	x8, [x21, #24]
   844c4:	90000029 	adrp	x9, 88000 <anon.57ef2e3c02ffeaf529e6c598bd0b036c.16.llvm.5445877691761700591+0x10e>
   844c8:	912a0129 	add	x9, x9, #0xa80
   844cc:	ad0207e0 	stp	q0, q1, [sp, #64]
   844d0:	a90627ec 	stp	x12, x9, [sp, #96]
   844d4:	d63f0100 	blr	x8
   844d8:	3707f6e0 	tbnz	w0, #0, 843b4 <_ZN4core3fmt8builders10DebugTuple5field17hdc232892654909f1E+0x24>
   844dc:	a94623e0 	ldp	x0, x8, [sp, #96]
   844e0:	f0000001 	adrp	x1, 87000 <anon.18d3f1f317091c7eeaf7c365eb201f34.15.llvm.3855770260100345529+0x38>
   844e4:	912e5421 	add	x1, x1, #0xb95
   844e8:	52800042 	mov	w2, #0x2                   	// #2
   844ec:	f9400d08 	ldr	x8, [x8, #24]
   844f0:	d63f0100 	blr	x8
   844f4:	2a0003f7 	mov	w23, w0
   844f8:	17ffffb0 	b	843b8 <_ZN4core3fmt8builders10DebugTuple5field17hdc232892654909f1E+0x28>

00000000000844fc <_ZN4core3fmt8builders10DebugTuple6finish17hf9f603a0afaeda82E>:
   844fc:	f81e0ffe 	str	x30, [sp, #-32]!
   84500:	a9014ff4 	stp	x20, x19, [sp, #16]
   84504:	f9400408 	ldr	x8, [x0, #8]
   84508:	39404014 	ldrb	w20, [x0, #16]
   8450c:	b40003a8 	cbz	x8, 84580 <_ZN4core3fmt8builders10DebugTuple6finish17hf9f603a0afaeda82E+0x84>
   84510:	aa0003f3 	mov	x19, x0
   84514:	34000074 	cbz	w20, 84520 <_ZN4core3fmt8builders10DebugTuple6finish17hf9f603a0afaeda82E+0x24>
   84518:	52800034 	mov	w20, #0x1                   	// #1
   8451c:	14000018 	b	8457c <_ZN4core3fmt8builders10DebugTuple6finish17hf9f603a0afaeda82E+0x80>
   84520:	f100051f 	cmp	x8, #0x1
   84524:	540001c1 	b.ne	8455c <_ZN4core3fmt8builders10DebugTuple6finish17hf9f603a0afaeda82E+0x60>  // b.any
   84528:	39404668 	ldrb	w8, [x19, #17]
   8452c:	34000188 	cbz	w8, 8455c <_ZN4core3fmt8builders10DebugTuple6finish17hf9f603a0afaeda82E+0x60>
   84530:	f9400268 	ldr	x8, [x19]
   84534:	3940c109 	ldrb	w9, [x8, #48]
   84538:	37100129 	tbnz	w9, #2, 8455c <_ZN4core3fmt8builders10DebugTuple6finish17hf9f603a0afaeda82E+0x60>
   8453c:	a9422500 	ldp	x0, x9, [x8, #32]
   84540:	f0000001 	adrp	x1, 87000 <anon.18d3f1f317091c7eeaf7c365eb201f34.15.llvm.3855770260100345529+0x38>
   84544:	912e8821 	add	x1, x1, #0xba2
   84548:	52800022 	mov	w2, #0x1                   	// #1
   8454c:	f9400d28 	ldr	x8, [x9, #24]
   84550:	52800034 	mov	w20, #0x1                   	// #1
   84554:	d63f0100 	blr	x8
   84558:	37000120 	tbnz	w0, #0, 8457c <_ZN4core3fmt8builders10DebugTuple6finish17hf9f603a0afaeda82E+0x80>
   8455c:	f9400268 	ldr	x8, [x19]
   84560:	f0000001 	adrp	x1, 87000 <anon.18d3f1f317091c7eeaf7c365eb201f34.15.llvm.3855770260100345529+0x38>
   84564:	912e8c21 	add	x1, x1, #0xba3
   84568:	52800022 	mov	w2, #0x1                   	// #1
   8456c:	a9422500 	ldp	x0, x9, [x8, #32]
   84570:	f9400d28 	ldr	x8, [x9, #24]
   84574:	d63f0100 	blr	x8
   84578:	2a0003f4 	mov	w20, w0
   8457c:	39004274 	strb	w20, [x19, #16]
   84580:	7100029f 	cmp	w20, #0x0
   84584:	a9414ff4 	ldp	x20, x19, [sp, #16]
   84588:	1a9f07e0 	cset	w0, ne  // ne = any
   8458c:	f84207fe 	ldr	x30, [sp], #32
   84590:	d65f03c0 	ret

0000000000084594 <_ZN4core3fmt5Write10write_char17h655b37dddbc6b4f0E>:
   84594:	f81f0ffe 	str	x30, [sp, #-16]!
   84598:	7102003f 	cmp	w1, #0x80
   8459c:	b9000fff 	str	wzr, [sp, #12]
   845a0:	540000e2 	b.cs	845bc <_ZN4core3fmt5Write10write_char17h655b37dddbc6b4f0E+0x28>  // b.hs, b.nlast
   845a4:	390033e1 	strb	w1, [sp, #12]
   845a8:	52800022 	mov	w2, #0x1                   	// #1
   845ac:	910033e1 	add	x1, sp, #0xc
   845b0:	97fffe28 	bl	83e50 <_ZN68_$LT$core..fmt..builders..PadAdapter$u20$as$u20$core..fmt..Write$GT$9write_str17h664f3ba9611891cdE>
   845b4:	f84107fe 	ldr	x30, [sp], #16
   845b8:	d65f03c0 	ret
   845bc:	7120003f 	cmp	w1, #0x800
   845c0:	54000182 	b.cs	845f0 <_ZN4core3fmt5Write10write_char17h655b37dddbc6b4f0E+0x5c>  // b.hs, b.nlast
   845c4:	53067c28 	lsr	w8, w1, #6
   845c8:	52801009 	mov	w9, #0x80                  	// #128
   845cc:	321a0508 	orr	w8, w8, #0xc0
   845d0:	33001429 	bfxil	w9, w1, #0, #6
   845d4:	390033e8 	strb	w8, [sp, #12]
   845d8:	390037e9 	strb	w9, [sp, #13]
   845dc:	52800042 	mov	w2, #0x2                   	// #2
   845e0:	910033e1 	add	x1, sp, #0xc
   845e4:	97fffe1b 	bl	83e50 <_ZN68_$LT$core..fmt..builders..PadAdapter$u20$as$u20$core..fmt..Write$GT$9write_str17h664f3ba9611891cdE>
   845e8:	f84107fe 	ldr	x30, [sp], #16
   845ec:	d65f03c0 	ret
   845f0:	7140403f 	cmp	w1, #0x10, lsl #12
   845f4:	540001e2 	b.cs	84630 <_ZN4core3fmt5Write10write_char17h655b37dddbc6b4f0E+0x9c>  // b.hs, b.nlast
   845f8:	530c7c28 	lsr	w8, w1, #12
   845fc:	52801009 	mov	w9, #0x80                  	// #128
   84600:	5280100a 	mov	w10, #0x80                  	// #128
   84604:	321b0908 	orr	w8, w8, #0xe0
   84608:	33062c2a 	bfxil	w10, w1, #6, #6
   8460c:	33001429 	bfxil	w9, w1, #0, #6
   84610:	390033e8 	strb	w8, [sp, #12]
   84614:	390037ea 	strb	w10, [sp, #13]
   84618:	39003be9 	strb	w9, [sp, #14]
   8461c:	52800062 	mov	w2, #0x3                   	// #3
   84620:	910033e1 	add	x1, sp, #0xc
   84624:	97fffe0b 	bl	83e50 <_ZN68_$LT$core..fmt..builders..PadAdapter$u20$as$u20$core..fmt..Write$GT$9write_str17h664f3ba9611891cdE>
   84628:	f84107fe 	ldr	x30, [sp], #16
   8462c:	d65f03c0 	ret
   84630:	53127c28 	lsr	w8, w1, #18
   84634:	52801009 	mov	w9, #0x80                  	// #128
   84638:	5280100a 	mov	w10, #0x80                  	// #128
   8463c:	5280100b 	mov	w11, #0x80                  	// #128
   84640:	321c0d08 	orr	w8, w8, #0xf0
   84644:	330c442a 	bfxil	w10, w1, #12, #6
   84648:	33062c2b 	bfxil	w11, w1, #6, #6
   8464c:	33001429 	bfxil	w9, w1, #0, #6
   84650:	52800082 	mov	w2, #0x4                   	// #4
   84654:	390033e8 	strb	w8, [sp, #12]
   84658:	390037ea 	strb	w10, [sp, #13]
   8465c:	39003beb 	strb	w11, [sp, #14]
   84660:	39003fe9 	strb	w9, [sp, #15]
   84664:	910033e1 	add	x1, sp, #0xc
   84668:	97fffdfa 	bl	83e50 <_ZN68_$LT$core..fmt..builders..PadAdapter$u20$as$u20$core..fmt..Write$GT$9write_str17h664f3ba9611891cdE>
   8466c:	f84107fe 	ldr	x30, [sp], #16
   84670:	d65f03c0 	ret

0000000000084674 <_ZN4core3fmt5Write9write_fmt17h42490fc885868fc0E>:
   84674:	d10103ff 	sub	sp, sp, #0x40
   84678:	a90303fe 	stp	x30, x0, [sp, #48]
   8467c:	910003e0 	mov	x0, sp
   84680:	52800602 	mov	w2, #0x30                  	// #48
   84684:	94000924 	bl	86b14 <memcpy>
   84688:	f0000001 	adrp	x1, 87000 <anon.18d3f1f317091c7eeaf7c365eb201f34.15.llvm.3855770260100345529+0x38>
   8468c:	912ea021 	add	x1, x1, #0xba8
   84690:	9100e3e0 	add	x0, sp, #0x38
   84694:	910003e2 	mov	x2, sp
   84698:	94000517 	bl	85af4 <_ZN4core3fmt5write17hb5f6a3bd29bb9808E>
   8469c:	f9401bfe 	ldr	x30, [sp, #48]
   846a0:	910103ff 	add	sp, sp, #0x40
   846a4:	d65f03c0 	ret

00000000000846a8 <_ZN50_$LT$$RF$mut$u20$W$u20$as$u20$core..fmt..Write$GT$9write_str17hd9b114be9ba4c7bdE>:
   846a8:	f9400000 	ldr	x0, [x0]
   846ac:	17fffde9 	b	83e50 <_ZN68_$LT$core..fmt..builders..PadAdapter$u20$as$u20$core..fmt..Write$GT$9write_str17h664f3ba9611891cdE>

00000000000846b0 <_ZN50_$LT$$RF$mut$u20$W$u20$as$u20$core..fmt..Write$GT$10write_char17h795240efd0e635deE>:
   846b0:	f81f0ffe 	str	x30, [sp, #-16]!
   846b4:	f9400000 	ldr	x0, [x0]
   846b8:	7102003f 	cmp	w1, #0x80
   846bc:	b9000fff 	str	wzr, [sp, #12]
   846c0:	540000e2 	b.cs	846dc <_ZN50_$LT$$RF$mut$u20$W$u20$as$u20$core..fmt..Write$GT$10write_char17h795240efd0e635deE+0x2c>  // b.hs, b.nlast
   846c4:	390033e1 	strb	w1, [sp, #12]
   846c8:	52800022 	mov	w2, #0x1                   	// #1
   846cc:	910033e1 	add	x1, sp, #0xc
   846d0:	97fffde0 	bl	83e50 <_ZN68_$LT$core..fmt..builders..PadAdapter$u20$as$u20$core..fmt..Write$GT$9write_str17h664f3ba9611891cdE>
   846d4:	f84107fe 	ldr	x30, [sp], #16
   846d8:	d65f03c0 	ret
   846dc:	7120003f 	cmp	w1, #0x800
   846e0:	54000182 	b.cs	84710 <_ZN50_$LT$$RF$mut$u20$W$u20$as$u20$core..fmt..Write$GT$10write_char17h795240efd0e635deE+0x60>  // b.hs, b.nlast
   846e4:	53067c28 	lsr	w8, w1, #6
   846e8:	52801009 	mov	w9, #0x80                  	// #128
   846ec:	321a0508 	orr	w8, w8, #0xc0
   846f0:	33001429 	bfxil	w9, w1, #0, #6
   846f4:	390033e8 	strb	w8, [sp, #12]
   846f8:	390037e9 	strb	w9, [sp, #13]
   846fc:	52800042 	mov	w2, #0x2                   	// #2
   84700:	910033e1 	add	x1, sp, #0xc
   84704:	97fffdd3 	bl	83e50 <_ZN68_$LT$core..fmt..builders..PadAdapter$u20$as$u20$core..fmt..Write$GT$9write_str17h664f3ba9611891cdE>
   84708:	f84107fe 	ldr	x30, [sp], #16
   8470c:	d65f03c0 	ret
   84710:	7140403f 	cmp	w1, #0x10, lsl #12
   84714:	540001e2 	b.cs	84750 <_ZN50_$LT$$RF$mut$u20$W$u20$as$u20$core..fmt..Write$GT$10write_char17h795240efd0e635deE+0xa0>  // b.hs, b.nlast
   84718:	530c7c28 	lsr	w8, w1, #12
   8471c:	52801009 	mov	w9, #0x80                  	// #128
   84720:	5280100a 	mov	w10, #0x80                  	// #128
   84724:	321b0908 	orr	w8, w8, #0xe0
   84728:	33062c2a 	bfxil	w10, w1, #6, #6
   8472c:	33001429 	bfxil	w9, w1, #0, #6
   84730:	390033e8 	strb	w8, [sp, #12]
   84734:	390037ea 	strb	w10, [sp, #13]
   84738:	39003be9 	strb	w9, [sp, #14]
   8473c:	52800062 	mov	w2, #0x3                   	// #3
   84740:	910033e1 	add	x1, sp, #0xc
   84744:	97fffdc3 	bl	83e50 <_ZN68_$LT$core..fmt..builders..PadAdapter$u20$as$u20$core..fmt..Write$GT$9write_str17h664f3ba9611891cdE>
   84748:	f84107fe 	ldr	x30, [sp], #16
   8474c:	d65f03c0 	ret
   84750:	53127c28 	lsr	w8, w1, #18
   84754:	52801009 	mov	w9, #0x80                  	// #128
   84758:	5280100a 	mov	w10, #0x80                  	// #128
   8475c:	5280100b 	mov	w11, #0x80                  	// #128
   84760:	321c0d08 	orr	w8, w8, #0xf0
   84764:	330c442a 	bfxil	w10, w1, #12, #6
   84768:	33062c2b 	bfxil	w11, w1, #6, #6
   8476c:	33001429 	bfxil	w9, w1, #0, #6
   84770:	52800082 	mov	w2, #0x4                   	// #4
   84774:	390033e8 	strb	w8, [sp, #12]
   84778:	390037ea 	strb	w10, [sp, #13]
   8477c:	39003beb 	strb	w11, [sp, #14]
   84780:	39003fe9 	strb	w9, [sp, #15]
   84784:	910033e1 	add	x1, sp, #0xc
   84788:	97fffdb2 	bl	83e50 <_ZN68_$LT$core..fmt..builders..PadAdapter$u20$as$u20$core..fmt..Write$GT$9write_str17h664f3ba9611891cdE>
   8478c:	f84107fe 	ldr	x30, [sp], #16
   84790:	d65f03c0 	ret

0000000000084794 <_ZN50_$LT$$RF$mut$u20$W$u20$as$u20$core..fmt..Write$GT$9write_fmt17h05ca015b8f05917bE>:
   84794:	d10103ff 	sub	sp, sp, #0x40
   84798:	f9400008 	ldr	x8, [x0]
   8479c:	910003e0 	mov	x0, sp
   847a0:	52800602 	mov	w2, #0x30                  	// #48
   847a4:	a90323fe 	stp	x30, x8, [sp, #48]
   847a8:	940008db 	bl	86b14 <memcpy>
   847ac:	f0000001 	adrp	x1, 87000 <anon.18d3f1f317091c7eeaf7c365eb201f34.15.llvm.3855770260100345529+0x38>
   847b0:	912ea021 	add	x1, x1, #0xba8
   847b4:	9100e3e0 	add	x0, sp, #0x38
   847b8:	910003e2 	mov	x2, sp
   847bc:	940004ce 	bl	85af4 <_ZN4core3fmt5write17hb5f6a3bd29bb9808E>
   847c0:	f9401bfe 	ldr	x30, [sp, #48]
   847c4:	910103ff 	add	sp, sp, #0x40
   847c8:	d65f03c0 	ret

00000000000847cc <_ZN64_$LT$core..alloc..layout..Layout$u20$as$u20$core..fmt..Debug$GT$3fmt17h6ebee021776657e1E>:
   847cc:	d10103ff 	sub	sp, sp, #0x40
   847d0:	a9422428 	ldp	x8, x9, [x1, #32]
   847d4:	a9034ff4 	stp	x20, x19, [sp, #48]
   847d8:	aa0103f3 	mov	x19, x1
   847dc:	f0000001 	adrp	x1, 87000 <anon.18d3f1f317091c7eeaf7c365eb201f34.15.llvm.3855770260100345529+0x38>
   847e0:	f9400d29 	ldr	x9, [x9, #24]
   847e4:	a90257fe 	stp	x30, x21, [sp, #32]
   847e8:	aa0003f4 	mov	x20, x0
   847ec:	91002015 	add	x21, x0, #0x8
   847f0:	912fe021 	add	x1, x1, #0xbf8
   847f4:	528000c2 	mov	w2, #0x6                   	// #6
   847f8:	aa0803e0 	mov	x0, x8
   847fc:	d63f0120 	blr	x9
   84800:	7100001f 	cmp	w0, #0x0
   84804:	f0000001 	adrp	x1, 87000 <anon.18d3f1f317091c7eeaf7c365eb201f34.15.llvm.3855770260100345529+0x38>
   84808:	f0000004 	adrp	x4, 87000 <anon.18d3f1f317091c7eeaf7c365eb201f34.15.llvm.3855770260100345529+0x38>
   8480c:	9a9f07e8 	cset	x8, ne  // ne = any
   84810:	912ff821 	add	x1, x1, #0xbfe
   84814:	912f6084 	add	x4, x4, #0xbd8
   84818:	910003e0 	mov	x0, sp
   8481c:	910063e3 	add	x3, sp, #0x18
   84820:	528000a2 	mov	w2, #0x5                   	// #5
   84824:	a90023f3 	stp	x19, x8, [sp]
   84828:	f9000ff4 	str	x20, [sp, #24]
   8482c:	97fffe4c 	bl	8415c <_ZN4core3fmt8builders11DebugStruct5field17h9e0dae53a1c9bd69E>
   84830:	f0000001 	adrp	x1, 87000 <anon.18d3f1f317091c7eeaf7c365eb201f34.15.llvm.3855770260100345529+0x38>
   84834:	f0000004 	adrp	x4, 87000 <anon.18d3f1f317091c7eeaf7c365eb201f34.15.llvm.3855770260100345529+0x38>
   84838:	91300c21 	add	x1, x1, #0xc03
   8483c:	91304084 	add	x4, x4, #0xc10
   84840:	910003e0 	mov	x0, sp
   84844:	910063e3 	add	x3, sp, #0x18
   84848:	528000c2 	mov	w2, #0x6                   	// #6
   8484c:	f9000ff5 	str	x21, [sp, #24]
   84850:	97fffe43 	bl	8415c <_ZN4core3fmt8builders11DebugStruct5field17h9e0dae53a1c9bd69E>
   84854:	394027e8 	ldrb	w8, [sp, #9]
   84858:	394023e0 	ldrb	w0, [sp, #8]
   8485c:	34000248 	cbz	w8, 848a4 <_ZN64_$LT$core..alloc..layout..Layout$u20$as$u20$core..fmt..Debug$GT$3fmt17h6ebee021776657e1E+0xd8>
   84860:	34000060 	cbz	w0, 8486c <_ZN64_$LT$core..alloc..layout..Layout$u20$as$u20$core..fmt..Debug$GT$3fmt17h6ebee021776657e1E+0xa0>
   84864:	52800020 	mov	w0, #0x1                   	// #1
   84868:	1400000f 	b	848a4 <_ZN64_$LT$core..alloc..layout..Layout$u20$as$u20$core..fmt..Debug$GT$3fmt17h6ebee021776657e1E+0xd8>
   8486c:	f94003e8 	ldr	x8, [sp]
   84870:	3940c109 	ldrb	w9, [x8, #48]
   84874:	371000c9 	tbnz	w9, #2, 8488c <_ZN64_$LT$core..alloc..layout..Layout$u20$as$u20$core..fmt..Debug$GT$3fmt17h6ebee021776657e1E+0xc0>
   84878:	a9422500 	ldp	x0, x9, [x8, #32]
   8487c:	f0000001 	adrp	x1, 87000 <anon.18d3f1f317091c7eeaf7c365eb201f34.15.llvm.3855770260100345529+0x38>
   84880:	912e7421 	add	x1, x1, #0xb9d
   84884:	52800042 	mov	w2, #0x2                   	// #2
   84888:	14000005 	b	8489c <_ZN64_$LT$core..alloc..layout..Layout$u20$as$u20$core..fmt..Debug$GT$3fmt17h6ebee021776657e1E+0xd0>
   8488c:	a9422500 	ldp	x0, x9, [x8, #32]
   84890:	f0000001 	adrp	x1, 87000 <anon.18d3f1f317091c7eeaf7c365eb201f34.15.llvm.3855770260100345529+0x38>
   84894:	912e7021 	add	x1, x1, #0xb9c
   84898:	52800022 	mov	w2, #0x1                   	// #1
   8489c:	f9400d28 	ldr	x8, [x9, #24]
   848a0:	d63f0100 	blr	x8
   848a4:	a9434ff4 	ldp	x20, x19, [sp, #48]
   848a8:	a94257fe 	ldp	x30, x21, [sp, #32]
   848ac:	7100001f 	cmp	w0, #0x0
   848b0:	1a9f07e0 	cset	w0, ne  // ne = any
   848b4:	910103ff 	add	sp, sp, #0x40
   848b8:	d65f03c0 	ret

00000000000848bc <_ZN69_$LT$core..alloc..layout..LayoutError$u20$as$u20$core..fmt..Debug$GT$3fmt17haa47bbf53c03afe1E>:
   848bc:	a9422020 	ldp	x0, x8, [x1, #32]
   848c0:	f0000001 	adrp	x1, 87000 <anon.18d3f1f317091c7eeaf7c365eb201f34.15.llvm.3855770260100345529+0x38>
   848c4:	9130c021 	add	x1, x1, #0xc30
   848c8:	52800162 	mov	w2, #0xb                   	// #11
   848cc:	f9400d03 	ldr	x3, [x8, #24]
   848d0:	d61f0060 	br	x3

00000000000848d4 <_ZN4core3ptr28drop_in_place$LT$$RF$u64$GT$17hcaf5aae54ab66a47E.llvm.16120789242182459789>:
   848d4:	d65f03c0 	ret

00000000000848d8 <_ZN4core9panicking5panic17h44d2e7d60b187585E>:
   848d8:	d10103ff 	sub	sp, sp, #0x40
   848dc:	f000000a 	adrp	x10, 87000 <anon.18d3f1f317091c7eeaf7c365eb201f34.15.llvm.3855770260100345529+0x38>
   848e0:	a90307e0 	stp	x0, x1, [sp, #48]
   848e4:	9100c3e8 	add	x8, sp, #0x30
   848e8:	52800029 	mov	w9, #0x1                   	// #1
   848ec:	9131814a 	add	x10, x10, #0xc60
   848f0:	910003e0 	mov	x0, sp
   848f4:	aa0203e1 	mov	x1, x2
   848f8:	a9017fff 	stp	xzr, xzr, [sp, #16]
   848fc:	a90027e8 	stp	x8, x9, [sp]
   84900:	a9027fea 	stp	x10, xzr, [sp, #32]
   84904:	94000014 	bl	84954 <_ZN4core9panicking9panic_fmt17h150231a4307abbaeE>
   84908:	d4200020 	brk	#0x1

000000000008490c <_ZN4core9panicking18panic_bounds_check17h9ccd95bf49c400c4E>:
   8490c:	a9ba07e0 	stp	x0, x1, [sp, #-96]!
   84910:	b0000009 	adrp	x9, 85000 <_ZN4core7unicode9printable5check17h3df87d4e8e554ccdE.llvm.5445877691761700591+0x4c>
   84914:	910023e8 	add	x8, sp, #0x8
   84918:	91098129 	add	x9, x9, #0x260
   8491c:	f000000b 	adrp	x11, 87000 <anon.18d3f1f317091c7eeaf7c365eb201f34.15.llvm.3855770260100345529+0x38>
   84920:	910003ea 	mov	x10, sp
   84924:	9132e16b 	add	x11, x11, #0xcb8
   84928:	5280004c 	mov	w12, #0x2                   	// #2
   8492c:	a90427e8 	stp	x8, x9, [sp, #64]
   84930:	910103e8 	add	x8, sp, #0x40
   84934:	910043e0 	add	x0, sp, #0x10
   84938:	aa0203e1 	mov	x1, x2
   8493c:	a9027fff 	stp	xzr, xzr, [sp, #32]
   84940:	a90527ea 	stp	x10, x9, [sp, #80]
   84944:	a90133eb 	stp	x11, x12, [sp, #16]
   84948:	a90333e8 	stp	x8, x12, [sp, #48]
   8494c:	94000002 	bl	84954 <_ZN4core9panicking9panic_fmt17h150231a4307abbaeE>
   84950:	d4200020 	brk	#0x1

0000000000084954 <_ZN4core9panicking9panic_fmt17h150231a4307abbaeE>:
   84954:	f0000008 	adrp	x8, 87000 <anon.18d3f1f317091c7eeaf7c365eb201f34.15.llvm.3855770260100345529+0x38>
   84958:	f0000009 	adrp	x9, 87000 <anon.18d3f1f317091c7eeaf7c365eb201f34.15.llvm.3855770260100345529+0x38>
   8495c:	91318108 	add	x8, x8, #0xc60
   84960:	91318129 	add	x9, x9, #0xc60
   84964:	a9be27e8 	stp	x8, x9, [sp, #-32]!
   84968:	a90107e0 	stp	x0, x1, [sp, #16]
   8496c:	910003e0 	mov	x0, sp
   84970:	97fff5aa 	bl	82018 <rust_begin_unwind>
   84974:	d4200020 	brk	#0x1

0000000000084978 <_ZN4core5slice5index26slice_start_index_len_fail17h92d701fb2ff102e6E>:
   84978:	a9ba07e0 	stp	x0, x1, [sp, #-96]!
   8497c:	b0000009 	adrp	x9, 85000 <_ZN4core7unicode9printable5check17h3df87d4e8e554ccdE.llvm.5445877691761700591+0x4c>
   84980:	910003e8 	mov	x8, sp
   84984:	91098129 	add	x9, x9, #0x260
   84988:	f000000b 	adrp	x11, 87000 <anon.18d3f1f317091c7eeaf7c365eb201f34.15.llvm.3855770260100345529+0x38>
   8498c:	910023ea 	add	x10, sp, #0x8
   84990:	9134416b 	add	x11, x11, #0xd10
   84994:	5280004c 	mov	w12, #0x2                   	// #2
   84998:	a90427e8 	stp	x8, x9, [sp, #64]
   8499c:	910103e8 	add	x8, sp, #0x40
   849a0:	910043e0 	add	x0, sp, #0x10
   849a4:	aa0203e1 	mov	x1, x2
   849a8:	a9027fff 	stp	xzr, xzr, [sp, #32]
   849ac:	a90527ea 	stp	x10, x9, [sp, #80]
   849b0:	a90133eb 	stp	x11, x12, [sp, #16]
   849b4:	a90333e8 	stp	x8, x12, [sp, #48]
   849b8:	97ffffe7 	bl	84954 <_ZN4core9panicking9panic_fmt17h150231a4307abbaeE>
   849bc:	d4200020 	brk	#0x1

00000000000849c0 <_ZN4core5slice5index24slice_end_index_len_fail17h6bcdd69b5c9d3928E>:
   849c0:	a9ba07e0 	stp	x0, x1, [sp, #-96]!
   849c4:	b0000009 	adrp	x9, 85000 <_ZN4core7unicode9printable5check17h3df87d4e8e554ccdE.llvm.5445877691761700591+0x4c>
   849c8:	910003e8 	mov	x8, sp
   849cc:	91098129 	add	x9, x9, #0x260
   849d0:	f000000b 	adrp	x11, 87000 <anon.18d3f1f317091c7eeaf7c365eb201f34.15.llvm.3855770260100345529+0x38>
   849d4:	910023ea 	add	x10, sp, #0x8
   849d8:	9134c16b 	add	x11, x11, #0xd30
   849dc:	5280004c 	mov	w12, #0x2                   	// #2
   849e0:	a90427e8 	stp	x8, x9, [sp, #64]
   849e4:	910103e8 	add	x8, sp, #0x40
   849e8:	910043e0 	add	x0, sp, #0x10
   849ec:	aa0203e1 	mov	x1, x2
   849f0:	a9027fff 	stp	xzr, xzr, [sp, #32]
   849f4:	a90527ea 	stp	x10, x9, [sp, #80]
   849f8:	a90133eb 	stp	x11, x12, [sp, #16]
   849fc:	a90333e8 	stp	x8, x12, [sp, #48]
   84a00:	97ffffd5 	bl	84954 <_ZN4core9panicking9panic_fmt17h150231a4307abbaeE>
   84a04:	d4200020 	brk	#0x1

0000000000084a08 <_ZN4core5slice5index22slice_index_order_fail17hc93ff9a37ea46a06E>:
   84a08:	a9ba07e0 	stp	x0, x1, [sp, #-96]!
   84a0c:	b0000009 	adrp	x9, 85000 <_ZN4core7unicode9printable5check17h3df87d4e8e554ccdE.llvm.5445877691761700591+0x4c>
   84a10:	910003e8 	mov	x8, sp
   84a14:	91098129 	add	x9, x9, #0x260
   84a18:	f000000b 	adrp	x11, 87000 <anon.18d3f1f317091c7eeaf7c365eb201f34.15.llvm.3855770260100345529+0x38>
   84a1c:	910023ea 	add	x10, sp, #0x8
   84a20:	9135e16b 	add	x11, x11, #0xd78
   84a24:	5280004c 	mov	w12, #0x2                   	// #2
   84a28:	a90427e8 	stp	x8, x9, [sp, #64]
   84a2c:	910103e8 	add	x8, sp, #0x40
   84a30:	910043e0 	add	x0, sp, #0x10
   84a34:	aa0203e1 	mov	x1, x2
   84a38:	a9027fff 	stp	xzr, xzr, [sp, #32]
   84a3c:	a90527ea 	stp	x10, x9, [sp, #80]
   84a40:	a90133eb 	stp	x11, x12, [sp, #16]
   84a44:	a90333e8 	stp	x8, x12, [sp, #48]
   84a48:	97ffffc3 	bl	84954 <_ZN4core9panicking9panic_fmt17h150231a4307abbaeE>
   84a4c:	d4200020 	brk	#0x1

0000000000084a50 <_ZN36_$LT$T$u20$as$u20$core..any..Any$GT$7type_id17h9c39b1c58082bda1E>:
   84a50:	d292e7a0 	mov	x0, #0x973d                	// #38717
   84a54:	f2bb25e0 	movk	x0, #0xd92f, lsl #16
   84a58:	f2cf68e0 	movk	x0, #0x7b47, lsl #32
   84a5c:	f2f5ba20 	movk	x0, #0xadd1, lsl #48
   84a60:	d65f03c0 	ret

0000000000084a64 <_ZN4core6option13expect_failed17h09b2ee4268b0f4e0E>:
   84a64:	a9bb07e0 	stp	x0, x1, [sp, #-80]!
   84a68:	d0000009 	adrp	x9, 86000 <_ZN4core3fmt9Formatter12pad_integral17hd76664d265795836E+0x310>
   84a6c:	910003e8 	mov	x8, sp
   84a70:	912c1129 	add	x9, x9, #0xb04
   84a74:	f000000a 	adrp	x10, 87000 <anon.18d3f1f317091c7eeaf7c365eb201f34.15.llvm.3855770260100345529+0x38>
   84a78:	9136614a 	add	x10, x10, #0xd98
   84a7c:	5280002b 	mov	w11, #0x1                   	// #1
   84a80:	a90427e8 	stp	x8, x9, [sp, #64]
   84a84:	910103e8 	add	x8, sp, #0x40
   84a88:	910043e0 	add	x0, sp, #0x10
   84a8c:	aa0203e1 	mov	x1, x2
   84a90:	a9027fff 	stp	xzr, xzr, [sp, #32]
   84a94:	a9012fea 	stp	x10, x11, [sp, #16]
   84a98:	a9032fe8 	stp	x8, x11, [sp, #48]
   84a9c:	97ffffae 	bl	84954 <_ZN4core9panicking9panic_fmt17h150231a4307abbaeE>
   84aa0:	d4200020 	brk	#0x1

0000000000084aa4 <_ZN4core5panic9PanicInfo7message17ha3e34dc3062522eeE>:
   84aa4:	f9400800 	ldr	x0, [x0, #16]
   84aa8:	d65f03c0 	ret

0000000000084aac <_ZN4core5panic9PanicInfo8location17hf5c21144beeed54cE>:
   84aac:	f9400c00 	ldr	x0, [x0, #24]
   84ab0:	d65f03c0 	ret

0000000000084ab4 <_ZN4core5panic8Location4file17h237dd86184e47232E>:
   84ab4:	a9400408 	ldp	x8, x1, [x0]
   84ab8:	aa0803e0 	mov	x0, x8
   84abc:	d65f03c0 	ret

0000000000084ac0 <_ZN4core5panic8Location4line17h9bf8d130953fcd1cE>:
   84ac0:	b9401000 	ldr	w0, [x0, #16]
   84ac4:	d65f03c0 	ret

0000000000084ac8 <_ZN71_$LT$core..ops..range..Range$LT$Idx$GT$$u20$as$u20$core..fmt..Debug$GT$3fmt17h21dbeb23b1c535f0E>:
   84ac8:	d10283ff 	sub	sp, sp, #0xa0
   84acc:	b9403028 	ldr	w8, [x1, #48]
   84ad0:	a9094ff4 	stp	x20, x19, [sp, #144]
   84ad4:	aa0103f3 	mov	x19, x1
   84ad8:	aa0003f4 	mov	x20, x0
   84adc:	a90857fe 	stp	x30, x21, [sp, #128]
   84ae0:	372005c8 	tbnz	w8, #4, 84b98 <_ZN71_$LT$core..ops..range..Range$LT$Idx$GT$$u20$as$u20$core..fmt..Debug$GT$3fmt17h21dbeb23b1c535f0E+0xd0>
   84ae4:	372807a8 	tbnz	w8, #5, 84bd8 <_ZN71_$LT$core..ops..range..Range$LT$Idx$GT$$u20$as$u20$core..fmt..Debug$GT$3fmt17h21dbeb23b1c535f0E+0x110>
   84ae8:	f9400288 	ldr	x8, [x20]
   84aec:	d344fd09 	lsr	x9, x8, #4
   84af0:	f109c53f 	cmp	x9, #0x271
   84af4:	54000b03 	b.cc	84c54 <_ZN71_$LT$core..ops..range..Range$LT$Idx$GT$$u20$as$u20$core..fmt..Debug$GT$3fmt17h21dbeb23b1c535f0E+0x18c>  // b.lo, b.ul, b.last
   84af8:	d28b296b 	mov	x11, #0x594b                	// #22859
   84afc:	f2a710cb 	movk	x11, #0x3886, lsl #16
   84b00:	529c1fea 	mov	w10, #0xe0ff                	// #57599
   84b04:	f2d8bacb 	movk	x11, #0xc5d6, lsl #32
   84b08:	5290a3ed 	mov	w13, #0x851f                	// #34079
   84b0c:	f000000f 	adrp	x15, 87000 <anon.18d3f1f317091c7eeaf7c365eb201f34.15.llvm.3855770260100345529+0x38>
   84b10:	aa1f03e9 	mov	x9, xzr
   84b14:	72a0beaa 	movk	w10, #0x5f5, lsl #16
   84b18:	f2e68dab 	movk	x11, #0x346d, lsl #48
   84b1c:	5284e20c 	mov	w12, #0x2710                	// #10000
   84b20:	72aa3d6d 	movk	w13, #0x51eb, lsl #16
   84b24:	52800c8e 	mov	w14, #0x64                  	// #100
   84b28:	912849ef 	add	x15, x15, #0xa12
   84b2c:	910003f0 	mov	x16, sp
   84b30:	aa0803f1 	mov	x17, x8
   84b34:	9bcb7d08 	umulh	x8, x8, x11
   84b38:	d34bfd08 	lsr	x8, x8, #11
   84b3c:	eb0a023f 	cmp	x17, x10
   84b40:	1b0cc511 	msub	w17, w8, w12, w17
   84b44:	12003e20 	and	w0, w17, #0xffff
   84b48:	9bad7c00 	umull	x0, w0, w13
   84b4c:	d365fc00 	lsr	x0, x0, #37
   84b50:	1b0ec411 	msub	w17, w0, w14, w17
   84b54:	8b0005e0 	add	x0, x15, x0, lsl #1
   84b58:	8b3125f1 	add	x17, x15, w17, uxth #1
   84b5c:	39400001 	ldrb	w1, [x0]
   84b60:	39400400 	ldrb	w0, [x0, #1]
   84b64:	39400622 	ldrb	w2, [x17, #1]
   84b68:	39400231 	ldrb	w17, [x17]
   84b6c:	8b090212 	add	x18, x16, x9
   84b70:	d1001129 	sub	x9, x9, #0x4
   84b74:	39009240 	strb	w0, [x18, #36]
   84b78:	39008e41 	strb	w1, [x18, #35]
   84b7c:	39009a42 	strb	w2, [x18, #38]
   84b80:	39009651 	strb	w17, [x18, #37]
   84b84:	54fffd68 	b.hi	84b30 <_ZN71_$LT$core..ops..range..Range$LT$Idx$GT$$u20$as$u20$core..fmt..Debug$GT$3fmt17h21dbeb23b1c535f0E+0x68>  // b.pmore
   84b88:	91009d29 	add	x9, x9, #0x27
   84b8c:	f1018d1f 	cmp	x8, #0x63
   84b90:	5400068c 	b.gt	84c60 <_ZN71_$LT$core..ops..range..Range$LT$Idx$GT$$u20$as$u20$core..fmt..Debug$GT$3fmt17h21dbeb23b1c535f0E+0x198>
   84b94:	14000045 	b	84ca8 <_ZN71_$LT$core..ops..range..Range$LT$Idx$GT$$u20$as$u20$core..fmt..Debug$GT$3fmt17h21dbeb23b1c535f0E+0x1e0>
   84b98:	f940028a 	ldr	x10, [x20]
   84b9c:	aa1f03e8 	mov	x8, xzr
   84ba0:	910003e9 	mov	x9, sp
   84ba4:	12000d4d 	and	w13, w10, #0xf
   84ba8:	5280060e 	mov	w14, #0x30                  	// #48
   84bac:	d344fd4c 	lsr	x12, x10, #4
   84bb0:	33000d4e 	bfxil	w14, w10, #0, #4
   84bb4:	11015daa 	add	w10, w13, #0x57
   84bb8:	710029bf 	cmp	w13, #0xa
   84bbc:	8b08012b 	add	x11, x9, x8
   84bc0:	1a8a31ca 	csel	w10, w14, w10, cc  // cc = lo, ul, last
   84bc4:	3901fd6a 	strb	w10, [x11, #127]
   84bc8:	d1000508 	sub	x8, x8, #0x1
   84bcc:	aa0c03ea 	mov	x10, x12
   84bd0:	b5fffeac 	cbnz	x12, 84ba4 <_ZN71_$LT$core..ops..range..Range$LT$Idx$GT$$u20$as$u20$core..fmt..Debug$GT$3fmt17h21dbeb23b1c535f0E+0xdc>
   84bd4:	14000010 	b	84c14 <_ZN71_$LT$core..ops..range..Range$LT$Idx$GT$$u20$as$u20$core..fmt..Debug$GT$3fmt17h21dbeb23b1c535f0E+0x14c>
   84bd8:	f940028a 	ldr	x10, [x20]
   84bdc:	aa1f03e8 	mov	x8, xzr
   84be0:	910003e9 	mov	x9, sp
   84be4:	12000d4d 	and	w13, w10, #0xf
   84be8:	5280060e 	mov	w14, #0x30                  	// #48
   84bec:	d344fd4c 	lsr	x12, x10, #4
   84bf0:	33000d4e 	bfxil	w14, w10, #0, #4
   84bf4:	1100ddaa 	add	w10, w13, #0x37
   84bf8:	710029bf 	cmp	w13, #0xa
   84bfc:	8b08012b 	add	x11, x9, x8
   84c00:	1a8a31ca 	csel	w10, w14, w10, cc  // cc = lo, ul, last
   84c04:	3901fd6a 	strb	w10, [x11, #127]
   84c08:	d1000508 	sub	x8, x8, #0x1
   84c0c:	aa0c03ea 	mov	x10, x12
   84c10:	b5fffeac 	cbnz	x12, 84be4 <_ZN71_$LT$core..ops..range..Range$LT$Idx$GT$$u20$as$u20$core..fmt..Debug$GT$3fmt17h21dbeb23b1c535f0E+0x11c>
   84c14:	91020100 	add	x0, x8, #0x80
   84c18:	f102041f 	cmp	x0, #0x81
   84c1c:	54001542 	b.cs	84ec4 <_ZN71_$LT$core..ops..range..Range$LT$Idx$GT$$u20$as$u20$core..fmt..Debug$GT$3fmt17h21dbeb23b1c535f0E+0x3fc>  // b.hs, b.nlast
   84c20:	910003e9 	mov	x9, sp
   84c24:	cb0803e5 	neg	x5, x8
   84c28:	8b080128 	add	x8, x9, x8
   84c2c:	f0000002 	adrp	x2, 87000 <anon.18d3f1f317091c7eeaf7c365eb201f34.15.llvm.3855770260100345529+0x38>
   84c30:	91020104 	add	x4, x8, #0x80
   84c34:	91284042 	add	x2, x2, #0xa10
   84c38:	52800021 	mov	w1, #0x1                   	// #1
   84c3c:	52800043 	mov	w3, #0x2                   	// #2
   84c40:	52800035 	mov	w21, #0x1                   	// #1
   84c44:	aa1303e0 	mov	x0, x19
   84c48:	9400042a 	bl	85cf0 <_ZN4core3fmt9Formatter12pad_integral17hd76664d265795836E>
   84c4c:	36000680 	tbz	w0, #0, 84d1c <_ZN71_$LT$core..ops..range..Range$LT$Idx$GT$$u20$as$u20$core..fmt..Debug$GT$3fmt17h21dbeb23b1c535f0E+0x254>
   84c50:	140000d4 	b	84fa0 <_ZN71_$LT$core..ops..range..Range$LT$Idx$GT$$u20$as$u20$core..fmt..Debug$GT$3fmt17h21dbeb23b1c535f0E+0x4d8>
   84c54:	528004e9 	mov	w9, #0x27                  	// #39
   84c58:	f1018d1f 	cmp	x8, #0x63
   84c5c:	5400026d 	b.le	84ca8 <_ZN71_$LT$core..ops..range..Range$LT$Idx$GT$$u20$as$u20$core..fmt..Debug$GT$3fmt17h21dbeb23b1c535f0E+0x1e0>
   84c60:	5290a3eb 	mov	w11, #0x851f                	// #34079
   84c64:	12003d0a 	and	w10, w8, #0xffff
   84c68:	72aa3d6b 	movk	w11, #0x51eb, lsl #16
   84c6c:	9bab7d4a 	umull	x10, w10, w11
   84c70:	52800c8c 	mov	w12, #0x64                  	// #100
   84c74:	f000000b 	adrp	x11, 87000 <anon.18d3f1f317091c7eeaf7c365eb201f34.15.llvm.3855770260100345529+0x38>
   84c78:	d365fd4a 	lsr	x10, x10, #37
   84c7c:	9128496b 	add	x11, x11, #0xa12
   84c80:	1b0ca148 	msub	w8, w10, w12, w8
   84c84:	8b282568 	add	x8, x11, w8, uxth #1
   84c88:	3940050b 	ldrb	w11, [x8, #1]
   84c8c:	39400108 	ldrb	w8, [x8]
   84c90:	d1000929 	sub	x9, x9, #0x2
   84c94:	910003ec 	mov	x12, sp
   84c98:	8b09018c 	add	x12, x12, x9
   84c9c:	39000188 	strb	w8, [x12]
   84ca0:	aa0a03e8 	mov	x8, x10
   84ca4:	3900058b 	strb	w11, [x12, #1]
   84ca8:	f100291f 	cmp	x8, #0xa
   84cac:	540000ca 	b.ge	84cc4 <_ZN71_$LT$core..ops..range..Range$LT$Idx$GT$$u20$as$u20$core..fmt..Debug$GT$3fmt17h21dbeb23b1c535f0E+0x1fc>  // b.tcont
   84cb0:	d1000529 	sub	x9, x9, #0x1
   84cb4:	1100c108 	add	w8, w8, #0x30
   84cb8:	910003ea 	mov	x10, sp
   84cbc:	38296948 	strb	w8, [x10, x9]
   84cc0:	1400000b 	b	84cec <_ZN71_$LT$core..ops..range..Range$LT$Idx$GT$$u20$as$u20$core..fmt..Debug$GT$3fmt17h21dbeb23b1c535f0E+0x224>
   84cc4:	f000000a 	adrp	x10, 87000 <anon.18d3f1f317091c7eeaf7c365eb201f34.15.llvm.3855770260100345529+0x38>
   84cc8:	9128494a 	add	x10, x10, #0xa12
   84ccc:	8b080548 	add	x8, x10, x8, lsl #1
   84cd0:	3940050a 	ldrb	w10, [x8, #1]
   84cd4:	39400108 	ldrb	w8, [x8]
   84cd8:	d1000929 	sub	x9, x9, #0x2
   84cdc:	910003eb 	mov	x11, sp
   84ce0:	8b09016b 	add	x11, x11, x9
   84ce4:	3900056a 	strb	w10, [x11, #1]
   84ce8:	39000168 	strb	w8, [x11]
   84cec:	910003e8 	mov	x8, sp
   84cf0:	528004ea 	mov	w10, #0x27                  	// #39
   84cf4:	f0000002 	adrp	x2, 87000 <anon.18d3f1f317091c7eeaf7c365eb201f34.15.llvm.3855770260100345529+0x38>
   84cf8:	8b090104 	add	x4, x8, x9
   84cfc:	cb090145 	sub	x5, x10, x9
   84d00:	91370042 	add	x2, x2, #0xdc0
   84d04:	52800021 	mov	w1, #0x1                   	// #1
   84d08:	52800035 	mov	w21, #0x1                   	// #1
   84d0c:	aa1303e0 	mov	x0, x19
   84d10:	aa1f03e3 	mov	x3, xzr
   84d14:	940003f7 	bl	85cf0 <_ZN4core3fmt9Formatter12pad_integral17hd76664d265795836E>
   84d18:	37001440 	tbnz	w0, #0, 84fa0 <_ZN71_$LT$core..ops..range..Range$LT$Idx$GT$$u20$as$u20$core..fmt..Debug$GT$3fmt17h21dbeb23b1c535f0E+0x4d8>
   84d1c:	a9420660 	ldp	x0, x1, [x19, #32]
   84d20:	f0000008 	adrp	x8, 87000 <anon.18d3f1f317091c7eeaf7c365eb201f34.15.llvm.3855770260100345529+0x38>
   84d24:	9136c108 	add	x8, x8, #0xdb0
   84d28:	52800035 	mov	w21, #0x1                   	// #1
   84d2c:	a90057e8 	stp	x8, x21, [sp]
   84d30:	f0000008 	adrp	x8, 87000 <anon.18d3f1f317091c7eeaf7c365eb201f34.15.llvm.3855770260100345529+0x38>
   84d34:	91370108 	add	x8, x8, #0xdc0
   84d38:	910003e2 	mov	x2, sp
   84d3c:	a9017fff 	stp	xzr, xzr, [sp, #16]
   84d40:	a9027fe8 	stp	x8, xzr, [sp, #32]
   84d44:	9400036c 	bl	85af4 <_ZN4core3fmt5write17hb5f6a3bd29bb9808E>
   84d48:	350012c0 	cbnz	w0, 84fa0 <_ZN71_$LT$core..ops..range..Range$LT$Idx$GT$$u20$as$u20$core..fmt..Debug$GT$3fmt17h21dbeb23b1c535f0E+0x4d8>
   84d4c:	b9403268 	ldr	w8, [x19, #48]
   84d50:	37200588 	tbnz	w8, #4, 84e00 <_ZN71_$LT$core..ops..range..Range$LT$Idx$GT$$u20$as$u20$core..fmt..Debug$GT$3fmt17h21dbeb23b1c535f0E+0x338>
   84d54:	37280948 	tbnz	w8, #5, 84e7c <_ZN71_$LT$core..ops..range..Range$LT$Idx$GT$$u20$as$u20$core..fmt..Debug$GT$3fmt17h21dbeb23b1c535f0E+0x3b4>
   84d58:	f9400688 	ldr	x8, [x20, #8]
   84d5c:	d344fd09 	lsr	x9, x8, #4
   84d60:	f109c53f 	cmp	x9, #0x271
   84d64:	54000ba3 	b.cc	84ed8 <_ZN71_$LT$core..ops..range..Range$LT$Idx$GT$$u20$as$u20$core..fmt..Debug$GT$3fmt17h21dbeb23b1c535f0E+0x410>  // b.lo, b.ul, b.last
   84d68:	d28b296b 	mov	x11, #0x594b                	// #22859
   84d6c:	f2a710cb 	movk	x11, #0x3886, lsl #16
   84d70:	529c1fea 	mov	w10, #0xe0ff                	// #57599
   84d74:	f2d8bacb 	movk	x11, #0xc5d6, lsl #32
   84d78:	5290a3ed 	mov	w13, #0x851f                	// #34079
   84d7c:	f000000f 	adrp	x15, 87000 <anon.18d3f1f317091c7eeaf7c365eb201f34.15.llvm.3855770260100345529+0x38>
   84d80:	aa1f03e9 	mov	x9, xzr
   84d84:	72a0beaa 	movk	w10, #0x5f5, lsl #16
   84d88:	f2e68dab 	movk	x11, #0x346d, lsl #48
   84d8c:	5284e20c 	mov	w12, #0x2710                	// #10000
   84d90:	72aa3d6d 	movk	w13, #0x51eb, lsl #16
   84d94:	52800c8e 	mov	w14, #0x64                  	// #100
   84d98:	912849ef 	add	x15, x15, #0xa12
   84d9c:	910003f0 	mov	x16, sp
   84da0:	aa0803f1 	mov	x17, x8
   84da4:	9bcb7d08 	umulh	x8, x8, x11
   84da8:	d34bfd08 	lsr	x8, x8, #11
   84dac:	eb0a023f 	cmp	x17, x10
   84db0:	1b0cc511 	msub	w17, w8, w12, w17
   84db4:	12003e20 	and	w0, w17, #0xffff
   84db8:	9bad7c00 	umull	x0, w0, w13
   84dbc:	d365fc00 	lsr	x0, x0, #37
   84dc0:	1b0ec411 	msub	w17, w0, w14, w17
   84dc4:	8b0005e0 	add	x0, x15, x0, lsl #1
   84dc8:	8b3125f1 	add	x17, x15, w17, uxth #1
   84dcc:	39400001 	ldrb	w1, [x0]
   84dd0:	39400400 	ldrb	w0, [x0, #1]
   84dd4:	39400622 	ldrb	w2, [x17, #1]
   84dd8:	39400231 	ldrb	w17, [x17]
   84ddc:	8b090212 	add	x18, x16, x9
   84de0:	d1001129 	sub	x9, x9, #0x4
   84de4:	39009240 	strb	w0, [x18, #36]
   84de8:	39008e41 	strb	w1, [x18, #35]
   84dec:	39009a42 	strb	w2, [x18, #38]
   84df0:	39009651 	strb	w17, [x18, #37]
   84df4:	54fffd68 	b.hi	84da0 <_ZN71_$LT$core..ops..range..Range$LT$Idx$GT$$u20$as$u20$core..fmt..Debug$GT$3fmt17h21dbeb23b1c535f0E+0x2d8>  // b.pmore
   84df8:	91009d29 	add	x9, x9, #0x27
   84dfc:	14000038 	b	84edc <_ZN71_$LT$core..ops..range..Range$LT$Idx$GT$$u20$as$u20$core..fmt..Debug$GT$3fmt17h21dbeb23b1c535f0E+0x414>
   84e00:	f940068a 	ldr	x10, [x20, #8]
   84e04:	aa1f03e8 	mov	x8, xzr
   84e08:	910003e9 	mov	x9, sp
   84e0c:	12000d4d 	and	w13, w10, #0xf
   84e10:	5280060e 	mov	w14, #0x30                  	// #48
   84e14:	d344fd4c 	lsr	x12, x10, #4
   84e18:	33000d4e 	bfxil	w14, w10, #0, #4
   84e1c:	11015daa 	add	w10, w13, #0x57
   84e20:	710029bf 	cmp	w13, #0xa
   84e24:	8b08012b 	add	x11, x9, x8
   84e28:	1a8a31ca 	csel	w10, w14, w10, cc  // cc = lo, ul, last
   84e2c:	3901fd6a 	strb	w10, [x11, #127]
   84e30:	d1000508 	sub	x8, x8, #0x1
   84e34:	aa0c03ea 	mov	x10, x12
   84e38:	b5fffeac 	cbnz	x12, 84e0c <_ZN71_$LT$core..ops..range..Range$LT$Idx$GT$$u20$as$u20$core..fmt..Debug$GT$3fmt17h21dbeb23b1c535f0E+0x344>
   84e3c:	91020100 	add	x0, x8, #0x80
   84e40:	f102041f 	cmp	x0, #0x81
   84e44:	54000402 	b.cs	84ec4 <_ZN71_$LT$core..ops..range..Range$LT$Idx$GT$$u20$as$u20$core..fmt..Debug$GT$3fmt17h21dbeb23b1c535f0E+0x3fc>  // b.hs, b.nlast
   84e48:	910003e9 	mov	x9, sp
   84e4c:	cb0803e5 	neg	x5, x8
   84e50:	8b080128 	add	x8, x9, x8
   84e54:	f0000002 	adrp	x2, 87000 <anon.18d3f1f317091c7eeaf7c365eb201f34.15.llvm.3855770260100345529+0x38>
   84e58:	91020104 	add	x4, x8, #0x80
   84e5c:	91284042 	add	x2, x2, #0xa10
   84e60:	52800021 	mov	w1, #0x1                   	// #1
   84e64:	52800043 	mov	w3, #0x2                   	// #2
   84e68:	aa1303e0 	mov	x0, x19
   84e6c:	940003a1 	bl	85cf0 <_ZN4core3fmt9Formatter12pad_integral17hd76664d265795836E>
   84e70:	36000960 	tbz	w0, #0, 84f9c <_ZN71_$LT$core..ops..range..Range$LT$Idx$GT$$u20$as$u20$core..fmt..Debug$GT$3fmt17h21dbeb23b1c535f0E+0x4d4>
   84e74:	52800035 	mov	w21, #0x1                   	// #1
   84e78:	1400004a 	b	84fa0 <_ZN71_$LT$core..ops..range..Range$LT$Idx$GT$$u20$as$u20$core..fmt..Debug$GT$3fmt17h21dbeb23b1c535f0E+0x4d8>
   84e7c:	f940068a 	ldr	x10, [x20, #8]
   84e80:	aa1f03e8 	mov	x8, xzr
   84e84:	910003e9 	mov	x9, sp
   84e88:	12000d4d 	and	w13, w10, #0xf
   84e8c:	5280060e 	mov	w14, #0x30                  	// #48
   84e90:	d344fd4c 	lsr	x12, x10, #4
   84e94:	33000d4e 	bfxil	w14, w10, #0, #4
   84e98:	1100ddaa 	add	w10, w13, #0x37
   84e9c:	710029bf 	cmp	w13, #0xa
   84ea0:	8b08012b 	add	x11, x9, x8
   84ea4:	1a8a31ca 	csel	w10, w14, w10, cc  // cc = lo, ul, last
   84ea8:	3901fd6a 	strb	w10, [x11, #127]
   84eac:	d1000508 	sub	x8, x8, #0x1
   84eb0:	aa0c03ea 	mov	x10, x12
   84eb4:	b5fffeac 	cbnz	x12, 84e88 <_ZN71_$LT$core..ops..range..Range$LT$Idx$GT$$u20$as$u20$core..fmt..Debug$GT$3fmt17h21dbeb23b1c535f0E+0x3c0>
   84eb8:	91020100 	add	x0, x8, #0x80
   84ebc:	f102041f 	cmp	x0, #0x81
   84ec0:	54fffc43 	b.cc	84e48 <_ZN71_$LT$core..ops..range..Range$LT$Idx$GT$$u20$as$u20$core..fmt..Debug$GT$3fmt17h21dbeb23b1c535f0E+0x380>  // b.lo, b.ul, b.last
   84ec4:	f0000002 	adrp	x2, 87000 <anon.18d3f1f317091c7eeaf7c365eb201f34.15.llvm.3855770260100345529+0x38>
   84ec8:	9127e042 	add	x2, x2, #0x9f8
   84ecc:	52801001 	mov	w1, #0x80                  	// #128
   84ed0:	97fffeaa 	bl	84978 <_ZN4core5slice5index26slice_start_index_len_fail17h92d701fb2ff102e6E>
   84ed4:	d4200020 	brk	#0x1
   84ed8:	528004e9 	mov	w9, #0x27                  	// #39
   84edc:	f1018d1f 	cmp	x8, #0x63
   84ee0:	5400026d 	b.le	84f2c <_ZN71_$LT$core..ops..range..Range$LT$Idx$GT$$u20$as$u20$core..fmt..Debug$GT$3fmt17h21dbeb23b1c535f0E+0x464>
   84ee4:	5290a3eb 	mov	w11, #0x851f                	// #34079
   84ee8:	12003d0a 	and	w10, w8, #0xffff
   84eec:	72aa3d6b 	movk	w11, #0x51eb, lsl #16
   84ef0:	9bab7d4a 	umull	x10, w10, w11
   84ef4:	52800c8c 	mov	w12, #0x64                  	// #100
   84ef8:	f000000b 	adrp	x11, 87000 <anon.18d3f1f317091c7eeaf7c365eb201f34.15.llvm.3855770260100345529+0x38>
   84efc:	d365fd4a 	lsr	x10, x10, #37
   84f00:	9128496b 	add	x11, x11, #0xa12
   84f04:	1b0ca148 	msub	w8, w10, w12, w8
   84f08:	8b282568 	add	x8, x11, w8, uxth #1
   84f0c:	3940050b 	ldrb	w11, [x8, #1]
   84f10:	39400108 	ldrb	w8, [x8]
   84f14:	d1000929 	sub	x9, x9, #0x2
   84f18:	910003ec 	mov	x12, sp
   84f1c:	8b09018c 	add	x12, x12, x9
   84f20:	39000188 	strb	w8, [x12]
   84f24:	aa0a03e8 	mov	x8, x10
   84f28:	3900058b 	strb	w11, [x12, #1]
   84f2c:	f100291f 	cmp	x8, #0xa
   84f30:	540000ca 	b.ge	84f48 <_ZN71_$LT$core..ops..range..Range$LT$Idx$GT$$u20$as$u20$core..fmt..Debug$GT$3fmt17h21dbeb23b1c535f0E+0x480>  // b.tcont
   84f34:	d1000529 	sub	x9, x9, #0x1
   84f38:	1100c108 	add	w8, w8, #0x30
   84f3c:	910003ea 	mov	x10, sp
   84f40:	38296948 	strb	w8, [x10, x9]
   84f44:	1400000b 	b	84f70 <_ZN71_$LT$core..ops..range..Range$LT$Idx$GT$$u20$as$u20$core..fmt..Debug$GT$3fmt17h21dbeb23b1c535f0E+0x4a8>
   84f48:	f000000a 	adrp	x10, 87000 <anon.18d3f1f317091c7eeaf7c365eb201f34.15.llvm.3855770260100345529+0x38>
   84f4c:	9128494a 	add	x10, x10, #0xa12
   84f50:	8b080548 	add	x8, x10, x8, lsl #1
   84f54:	3940050a 	ldrb	w10, [x8, #1]
   84f58:	39400108 	ldrb	w8, [x8]
   84f5c:	d1000929 	sub	x9, x9, #0x2
   84f60:	910003eb 	mov	x11, sp
   84f64:	8b09016b 	add	x11, x11, x9
   84f68:	3900056a 	strb	w10, [x11, #1]
   84f6c:	39000168 	strb	w8, [x11]
   84f70:	910003e8 	mov	x8, sp
   84f74:	528004ea 	mov	w10, #0x27                  	// #39
   84f78:	f0000002 	adrp	x2, 87000 <anon.18d3f1f317091c7eeaf7c365eb201f34.15.llvm.3855770260100345529+0x38>
   84f7c:	8b090104 	add	x4, x8, x9
   84f80:	cb090145 	sub	x5, x10, x9
   84f84:	91370042 	add	x2, x2, #0xdc0
   84f88:	52800021 	mov	w1, #0x1                   	// #1
   84f8c:	aa1303e0 	mov	x0, x19
   84f90:	aa1f03e3 	mov	x3, xzr
   84f94:	94000357 	bl	85cf0 <_ZN4core3fmt9Formatter12pad_integral17hd76664d265795836E>
   84f98:	35fff6e0 	cbnz	w0, 84e74 <_ZN71_$LT$core..ops..range..Range$LT$Idx$GT$$u20$as$u20$core..fmt..Debug$GT$3fmt17h21dbeb23b1c535f0E+0x3ac>
   84f9c:	2a1f03f5 	mov	w21, wzr
   84fa0:	2a1503e0 	mov	w0, w21
   84fa4:	a9494ff4 	ldp	x20, x19, [sp, #144]
   84fa8:	a94857fe 	ldp	x30, x21, [sp, #128]
   84fac:	910283ff 	add	sp, sp, #0xa0
   84fb0:	d65f03c0 	ret

0000000000084fb4 <_ZN4core7unicode9printable5check17h3df87d4e8e554ccdE.llvm.5445877691761700591>:
   84fb4:	b4000322 	cbz	x2, 85018 <_ZN4core7unicode9printable5check17h3df87d4e8e554ccdE.llvm.5445877691761700591+0x64>
   84fb8:	aa1f03e9 	mov	x9, xzr
   84fbc:	8b02042a 	add	x10, x1, x2, lsl #1
   84fc0:	39400028 	ldrb	w8, [x1]
   84fc4:	3940042b 	ldrb	w11, [x1, #1]
   84fc8:	12181c0c 	and	w12, w0, #0xff00
   84fcc:	91000821 	add	x1, x1, #0x2
   84fd0:	6b4c211f 	cmp	w8, w12, lsr #8
   84fd4:	8b0b0128 	add	x8, x9, x11
   84fd8:	54000181 	b.ne	85008 <_ZN4core7unicode9printable5check17h3df87d4e8e554ccdE.llvm.5445877691761700591+0x54>  // b.any
   84fdc:	eb09011f 	cmp	x8, x9
   84fe0:	540006c3 	b.cc	850b8 <_ZN4core7unicode9printable5check17h3df87d4e8e554ccdE.llvm.5445877691761700591+0x104>  // b.lo, b.ul, b.last
   84fe4:	eb04011f 	cmp	x8, x4
   84fe8:	54000748 	b.hi	850d0 <_ZN4core7unicode9printable5check17h3df87d4e8e554ccdE.llvm.5445877691761700591+0x11c>  // b.pmore
   84fec:	8b090069 	add	x9, x3, x9
   84ff0:	b40000eb 	cbz	x11, 8500c <_ZN4core7unicode9printable5check17h3df87d4e8e554ccdE.llvm.5445877691761700591+0x58>
   84ff4:	3840152c 	ldrb	w12, [x9], #1
   84ff8:	d100056b 	sub	x11, x11, #0x1
   84ffc:	6b20019f 	cmp	w12, w0, uxtb
   85000:	54ffff81 	b.ne	84ff0 <_ZN4core7unicode9printable5check17h3df87d4e8e554ccdE.llvm.5445877691761700591+0x3c>  // b.any
   85004:	14000020 	b	85084 <_ZN4core7unicode9printable5check17h3df87d4e8e554ccdE.llvm.5445877691761700591+0xd0>
   85008:	54000088 	b.hi	85018 <_ZN4core7unicode9printable5check17h3df87d4e8e554ccdE.llvm.5445877691761700591+0x64>  // b.pmore
   8500c:	eb0a003f 	cmp	x1, x10
   85010:	aa0803e9 	mov	x9, x8
   85014:	54fffd61 	b.ne	84fc0 <_ZN4core7unicode9printable5check17h3df87d4e8e554ccdE.llvm.5445877691761700591+0xc>  // b.any
   85018:	b40003c6 	cbz	x6, 85090 <_ZN4core7unicode9printable5check17h3df87d4e8e554ccdE.llvm.5445877691761700591+0xdc>
   8501c:	8b0600a9 	add	x9, x5, x6
   85020:	910004aa 	add	x10, x5, #0x1
   85024:	12003c0b 	and	w11, w0, #0xffff
   85028:	52800028 	mov	w8, #0x1                   	// #1
   8502c:	39c000ad 	ldrsb	w13, [x5]
   85030:	12001dac 	and	w12, w13, #0xff
   85034:	36f8010d 	tbz	w13, #31, 85054 <_ZN4core7unicode9printable5check17h3df87d4e8e554ccdE.llvm.5445877691761700591+0xa0>
   85038:	eb09015f 	cmp	x10, x9
   8503c:	54000300 	b.eq	8509c <_ZN4core7unicode9printable5check17h3df87d4e8e554ccdE.llvm.5445877691761700591+0xe8>  // b.none
   85040:	b40002ea 	cbz	x10, 8509c <_ZN4core7unicode9printable5check17h3df87d4e8e554ccdE.llvm.5445877691761700591+0xe8>
   85044:	3840154d 	ldrb	w13, [x10], #1
   85048:	1200198c 	and	w12, w12, #0x7f
   8504c:	3318198d 	bfi	w13, w12, #8, #7
   85050:	2a0d03ec 	mov	w12, w13
   85054:	6b0c016b 	subs	w11, w11, w12
   85058:	54000184 	b.mi	85088 <_ZN4core7unicode9printable5check17h3df87d4e8e554ccdE.llvm.5445877691761700591+0xd4>  // b.first
   8505c:	eb09015f 	cmp	x10, x9
   85060:	9a8a03e5 	csel	x5, xzr, x10, eq  // eq = none
   85064:	52000108 	eor	w8, w8, #0x1
   85068:	b4000105 	cbz	x5, 85088 <_ZN4core7unicode9printable5check17h3df87d4e8e554ccdE.llvm.5445877691761700591+0xd4>
   8506c:	eb09015f 	cmp	x10, x9
   85070:	9a8a054a 	cinc	x10, x10, ne  // ne = any
   85074:	39c000ad 	ldrsb	w13, [x5]
   85078:	12001dac 	and	w12, w13, #0xff
   8507c:	36fffecd 	tbz	w13, #31, 85054 <_ZN4core7unicode9printable5check17h3df87d4e8e554ccdE.llvm.5445877691761700591+0xa0>
   85080:	17ffffee 	b	85038 <_ZN4core7unicode9printable5check17h3df87d4e8e554ccdE.llvm.5445877691761700591+0x84>
   85084:	2a1f03e8 	mov	w8, wzr
   85088:	12000100 	and	w0, w8, #0x1
   8508c:	d65f03c0 	ret
   85090:	52800028 	mov	w8, #0x1                   	// #1
   85094:	12000100 	and	w0, w8, #0x1
   85098:	d65f03c0 	ret
   8509c:	d0000000 	adrp	x0, 87000 <anon.18d3f1f317091c7eeaf7c365eb201f34.15.llvm.3855770260100345529+0x38>
   850a0:	d0000002 	adrp	x2, 87000 <anon.18d3f1f317091c7eeaf7c365eb201f34.15.llvm.3855770260100345529+0x38>
   850a4:	91370000 	add	x0, x0, #0xdc0
   850a8:	913a2042 	add	x2, x2, #0xe88
   850ac:	52800561 	mov	w1, #0x2b                  	// #43
   850b0:	97fffe0a 	bl	848d8 <_ZN4core9panicking5panic17h44d2e7d60b187585E>
   850b4:	d4200020 	brk	#0x1
   850b8:	d0000002 	adrp	x2, 87000 <anon.18d3f1f317091c7eeaf7c365eb201f34.15.llvm.3855770260100345529+0x38>
   850bc:	9139c042 	add	x2, x2, #0xe70
   850c0:	aa0903e0 	mov	x0, x9
   850c4:	aa0803e1 	mov	x1, x8
   850c8:	97fffe50 	bl	84a08 <_ZN4core5slice5index22slice_index_order_fail17hc93ff9a37ea46a06E>
   850cc:	d4200020 	brk	#0x1
   850d0:	d0000002 	adrp	x2, 87000 <anon.18d3f1f317091c7eeaf7c365eb201f34.15.llvm.3855770260100345529+0x38>
   850d4:	9139c042 	add	x2, x2, #0xe70
   850d8:	aa0803e0 	mov	x0, x8
   850dc:	aa0403e1 	mov	x1, x4
   850e0:	97fffe38 	bl	849c0 <_ZN4core5slice5index24slice_end_index_len_fail17h6bcdd69b5c9d3928E>
   850e4:	d4200020 	brk	#0x1

00000000000850e8 <_ZN4core3fmt3num3imp52_$LT$impl$u20$core..fmt..Display$u20$for$u20$u32$GT$3fmt17hec05b80591ab5f4eE>:
   850e8:	d10103ff 	sub	sp, sp, #0x40
   850ec:	b940000a 	ldr	w10, [x0]
   850f0:	aa0103e8 	mov	x8, x1
   850f4:	f9001bfe 	str	x30, [sp, #48]
   850f8:	d3447d49 	ubfx	x9, x10, #4, #28
   850fc:	7109c53f 	cmp	w9, #0x271
   85100:	d0000009 	adrp	x9, 87000 <anon.18d3f1f317091c7eeaf7c365eb201f34.15.llvm.3855770260100345529+0x38>
   85104:	91284929 	add	x9, x9, #0xa12
   85108:	540004e3 	b.cc	851a4 <_ZN4core3fmt3num3imp52_$LT$impl$u20$core..fmt..Display$u20$for$u20$u32$GT$3fmt17hec05b80591ab5f4eE+0xbc>  // b.lo, b.ul, b.last
   8510c:	d28b296c 	mov	x12, #0x594b                	// #22859
   85110:	f2a710cc 	movk	x12, #0x3886, lsl #16
   85114:	f2d8bacc 	movk	x12, #0xc5d6, lsl #32
   85118:	5290a3ee 	mov	w14, #0x851f                	// #34079
   8511c:	529c1ff1 	mov	w17, #0xe0ff                	// #57599
   85120:	aa1f03eb 	mov	x11, xzr
   85124:	f2e68dac 	movk	x12, #0x346d, lsl #48
   85128:	5284e20d 	mov	w13, #0x2710                	// #10000
   8512c:	72aa3d6e 	movk	w14, #0x51eb, lsl #16
   85130:	52800c8f 	mov	w15, #0x64                  	// #100
   85134:	910023f0 	add	x16, sp, #0x8
   85138:	72a0beb1 	movk	w17, #0x5f5, lsl #16
   8513c:	aa0a03f2 	mov	x18, x10
   85140:	9bcc7d4a 	umulh	x10, x10, x12
   85144:	d34bfd4a 	lsr	x10, x10, #11
   85148:	eb11025f 	cmp	x18, x17
   8514c:	1b0dc952 	msub	w18, w10, w13, w18
   85150:	12003e41 	and	w1, w18, #0xffff
   85154:	9bae7c21 	umull	x1, w1, w14
   85158:	d365fc21 	lsr	x1, x1, #37
   8515c:	1b0fc832 	msub	w18, w1, w15, w18
   85160:	8b010521 	add	x1, x9, x1, lsl #1
   85164:	8b322532 	add	x18, x9, w18, uxth #1
   85168:	39400022 	ldrb	w2, [x1]
   8516c:	39400421 	ldrb	w1, [x1, #1]
   85170:	39400643 	ldrb	w3, [x18, #1]
   85174:	39400252 	ldrb	w18, [x18]
   85178:	8b0b0200 	add	x0, x16, x11
   8517c:	d100116b 	sub	x11, x11, #0x4
   85180:	39009001 	strb	w1, [x0, #36]
   85184:	39008c02 	strb	w2, [x0, #35]
   85188:	39009803 	strb	w3, [x0, #38]
   8518c:	39009412 	strb	w18, [x0, #37]
   85190:	54fffd68 	b.hi	8513c <_ZN4core3fmt3num3imp52_$LT$impl$u20$core..fmt..Display$u20$for$u20$u32$GT$3fmt17hec05b80591ab5f4eE+0x54>  // b.pmore
   85194:	91009d6b 	add	x11, x11, #0x27
   85198:	f1018d5f 	cmp	x10, #0x63
   8519c:	540000a8 	b.hi	851b0 <_ZN4core3fmt3num3imp52_$LT$impl$u20$core..fmt..Display$u20$for$u20$u32$GT$3fmt17hec05b80591ab5f4eE+0xc8>  // b.pmore
   851a0:	14000014 	b	851f0 <_ZN4core3fmt3num3imp52_$LT$impl$u20$core..fmt..Display$u20$for$u20$u32$GT$3fmt17hec05b80591ab5f4eE+0x108>
   851a4:	528004eb 	mov	w11, #0x27                  	// #39
   851a8:	f1018d5f 	cmp	x10, #0x63
   851ac:	54000229 	b.ls	851f0 <_ZN4core3fmt3num3imp52_$LT$impl$u20$core..fmt..Display$u20$for$u20$u32$GT$3fmt17hec05b80591ab5f4eE+0x108>  // b.plast
   851b0:	5290a3ed 	mov	w13, #0x851f                	// #34079
   851b4:	12003d4c 	and	w12, w10, #0xffff
   851b8:	72aa3d6d 	movk	w13, #0x51eb, lsl #16
   851bc:	9bad7d8c 	umull	x12, w12, w13
   851c0:	52800c8e 	mov	w14, #0x64                  	// #100
   851c4:	d365fd8c 	lsr	x12, x12, #37
   851c8:	1b0ea98a 	msub	w10, w12, w14, w10
   851cc:	8b2a252a 	add	x10, x9, w10, uxth #1
   851d0:	3940054d 	ldrb	w13, [x10, #1]
   851d4:	3940014a 	ldrb	w10, [x10]
   851d8:	d100096b 	sub	x11, x11, #0x2
   851dc:	910023ee 	add	x14, sp, #0x8
   851e0:	8b0b01ce 	add	x14, x14, x11
   851e4:	390001ca 	strb	w10, [x14]
   851e8:	aa0c03ea 	mov	x10, x12
   851ec:	390005cd 	strb	w13, [x14, #1]
   851f0:	f100295f 	cmp	x10, #0xa
   851f4:	540000ca 	b.ge	8520c <_ZN4core3fmt3num3imp52_$LT$impl$u20$core..fmt..Display$u20$for$u20$u32$GT$3fmt17hec05b80591ab5f4eE+0x124>  // b.tcont
   851f8:	d100056b 	sub	x11, x11, #0x1
   851fc:	1100c149 	add	w9, w10, #0x30
   85200:	910023ea 	add	x10, sp, #0x8
   85204:	382b6949 	strb	w9, [x10, x11]
   85208:	14000009 	b	8522c <_ZN4core3fmt3num3imp52_$LT$impl$u20$core..fmt..Display$u20$for$u20$u32$GT$3fmt17hec05b80591ab5f4eE+0x144>
   8520c:	8b0a0529 	add	x9, x9, x10, lsl #1
   85210:	3940052a 	ldrb	w10, [x9, #1]
   85214:	39400129 	ldrb	w9, [x9]
   85218:	d100096b 	sub	x11, x11, #0x2
   8521c:	910023ec 	add	x12, sp, #0x8
   85220:	8b0b018c 	add	x12, x12, x11
   85224:	3900058a 	strb	w10, [x12, #1]
   85228:	39000189 	strb	w9, [x12]
   8522c:	910023e9 	add	x9, sp, #0x8
   85230:	528004ea 	mov	w10, #0x27                  	// #39
   85234:	d0000002 	adrp	x2, 87000 <anon.18d3f1f317091c7eeaf7c365eb201f34.15.llvm.3855770260100345529+0x38>
   85238:	8b0b0124 	add	x4, x9, x11
   8523c:	cb0b0145 	sub	x5, x10, x11
   85240:	91370042 	add	x2, x2, #0xdc0
   85244:	52800021 	mov	w1, #0x1                   	// #1
   85248:	aa0803e0 	mov	x0, x8
   8524c:	aa1f03e3 	mov	x3, xzr
   85250:	940002a8 	bl	85cf0 <_ZN4core3fmt9Formatter12pad_integral17hd76664d265795836E>
   85254:	f9401bfe 	ldr	x30, [sp, #48]
   85258:	910103ff 	add	sp, sp, #0x40
   8525c:	d65f03c0 	ret

0000000000085260 <_ZN4core3fmt3num3imp52_$LT$impl$u20$core..fmt..Display$u20$for$u20$u64$GT$3fmt17h8e7a718507ff4d5eE>:
   85260:	d10103ff 	sub	sp, sp, #0x40
   85264:	f940000a 	ldr	x10, [x0]
   85268:	aa0103e8 	mov	x8, x1
   8526c:	f9001bfe 	str	x30, [sp, #48]
   85270:	d344fd49 	lsr	x9, x10, #4
   85274:	f109c53f 	cmp	x9, #0x271
   85278:	d0000009 	adrp	x9, 87000 <anon.18d3f1f317091c7eeaf7c365eb201f34.15.llvm.3855770260100345529+0x38>
   8527c:	91284929 	add	x9, x9, #0xa12
   85280:	540004e3 	b.cc	8531c <_ZN4core3fmt3num3imp52_$LT$impl$u20$core..fmt..Display$u20$for$u20$u64$GT$3fmt17h8e7a718507ff4d5eE+0xbc>  // b.lo, b.ul, b.last
   85284:	d28b296c 	mov	x12, #0x594b                	// #22859
   85288:	f2a710cc 	movk	x12, #0x3886, lsl #16
   8528c:	f2d8bacc 	movk	x12, #0xc5d6, lsl #32
   85290:	5290a3ee 	mov	w14, #0x851f                	// #34079
   85294:	529c1ff1 	mov	w17, #0xe0ff                	// #57599
   85298:	aa1f03eb 	mov	x11, xzr
   8529c:	f2e68dac 	movk	x12, #0x346d, lsl #48
   852a0:	5284e20d 	mov	w13, #0x2710                	// #10000
   852a4:	72aa3d6e 	movk	w14, #0x51eb, lsl #16
   852a8:	52800c8f 	mov	w15, #0x64                  	// #100
   852ac:	910023f0 	add	x16, sp, #0x8
   852b0:	72a0beb1 	movk	w17, #0x5f5, lsl #16
   852b4:	aa0a03f2 	mov	x18, x10
   852b8:	9bcc7d4a 	umulh	x10, x10, x12
   852bc:	d34bfd4a 	lsr	x10, x10, #11
   852c0:	eb11025f 	cmp	x18, x17
   852c4:	1b0dc952 	msub	w18, w10, w13, w18
   852c8:	12003e41 	and	w1, w18, #0xffff
   852cc:	9bae7c21 	umull	x1, w1, w14
   852d0:	d365fc21 	lsr	x1, x1, #37
   852d4:	1b0fc832 	msub	w18, w1, w15, w18
   852d8:	8b010521 	add	x1, x9, x1, lsl #1
   852dc:	8b322532 	add	x18, x9, w18, uxth #1
   852e0:	39400022 	ldrb	w2, [x1]
   852e4:	39400421 	ldrb	w1, [x1, #1]
   852e8:	39400643 	ldrb	w3, [x18, #1]
   852ec:	39400252 	ldrb	w18, [x18]
   852f0:	8b0b0200 	add	x0, x16, x11
   852f4:	d100116b 	sub	x11, x11, #0x4
   852f8:	39009001 	strb	w1, [x0, #36]
   852fc:	39008c02 	strb	w2, [x0, #35]
   85300:	39009803 	strb	w3, [x0, #38]
   85304:	39009412 	strb	w18, [x0, #37]
   85308:	54fffd68 	b.hi	852b4 <_ZN4core3fmt3num3imp52_$LT$impl$u20$core..fmt..Display$u20$for$u20$u64$GT$3fmt17h8e7a718507ff4d5eE+0x54>  // b.pmore
   8530c:	91009d6b 	add	x11, x11, #0x27
   85310:	f1018d5f 	cmp	x10, #0x63
   85314:	540000ac 	b.gt	85328 <_ZN4core3fmt3num3imp52_$LT$impl$u20$core..fmt..Display$u20$for$u20$u64$GT$3fmt17h8e7a718507ff4d5eE+0xc8>
   85318:	14000014 	b	85368 <_ZN4core3fmt3num3imp52_$LT$impl$u20$core..fmt..Display$u20$for$u20$u64$GT$3fmt17h8e7a718507ff4d5eE+0x108>
   8531c:	528004eb 	mov	w11, #0x27                  	// #39
   85320:	f1018d5f 	cmp	x10, #0x63
   85324:	5400022d 	b.le	85368 <_ZN4core3fmt3num3imp52_$LT$impl$u20$core..fmt..Display$u20$for$u20$u64$GT$3fmt17h8e7a718507ff4d5eE+0x108>
   85328:	5290a3ed 	mov	w13, #0x851f                	// #34079
   8532c:	12003d4c 	and	w12, w10, #0xffff
   85330:	72aa3d6d 	movk	w13, #0x51eb, lsl #16
   85334:	9bad7d8c 	umull	x12, w12, w13
   85338:	52800c8e 	mov	w14, #0x64                  	// #100
   8533c:	d365fd8c 	lsr	x12, x12, #37
   85340:	1b0ea98a 	msub	w10, w12, w14, w10
   85344:	8b2a252a 	add	x10, x9, w10, uxth #1
   85348:	3940054d 	ldrb	w13, [x10, #1]
   8534c:	3940014a 	ldrb	w10, [x10]
   85350:	d100096b 	sub	x11, x11, #0x2
   85354:	910023ee 	add	x14, sp, #0x8
   85358:	8b0b01ce 	add	x14, x14, x11
   8535c:	390001ca 	strb	w10, [x14]
   85360:	aa0c03ea 	mov	x10, x12
   85364:	390005cd 	strb	w13, [x14, #1]
   85368:	f100295f 	cmp	x10, #0xa
   8536c:	540000ca 	b.ge	85384 <_ZN4core3fmt3num3imp52_$LT$impl$u20$core..fmt..Display$u20$for$u20$u64$GT$3fmt17h8e7a718507ff4d5eE+0x124>  // b.tcont
   85370:	d100056b 	sub	x11, x11, #0x1
   85374:	1100c149 	add	w9, w10, #0x30
   85378:	910023ea 	add	x10, sp, #0x8
   8537c:	382b6949 	strb	w9, [x10, x11]
   85380:	14000009 	b	853a4 <_ZN4core3fmt3num3imp52_$LT$impl$u20$core..fmt..Display$u20$for$u20$u64$GT$3fmt17h8e7a718507ff4d5eE+0x144>
   85384:	8b0a0529 	add	x9, x9, x10, lsl #1
   85388:	3940052a 	ldrb	w10, [x9, #1]
   8538c:	39400129 	ldrb	w9, [x9]
   85390:	d100096b 	sub	x11, x11, #0x2
   85394:	910023ec 	add	x12, sp, #0x8
   85398:	8b0b018c 	add	x12, x12, x11
   8539c:	3900058a 	strb	w10, [x12, #1]
   853a0:	39000189 	strb	w9, [x12]
   853a4:	910023e9 	add	x9, sp, #0x8
   853a8:	528004ea 	mov	w10, #0x27                  	// #39
   853ac:	d0000002 	adrp	x2, 87000 <anon.18d3f1f317091c7eeaf7c365eb201f34.15.llvm.3855770260100345529+0x38>
   853b0:	8b0b0124 	add	x4, x9, x11
   853b4:	cb0b0145 	sub	x5, x10, x11
   853b8:	91370042 	add	x2, x2, #0xdc0
   853bc:	52800021 	mov	w1, #0x1                   	// #1
   853c0:	aa0803e0 	mov	x0, x8
   853c4:	aa1f03e3 	mov	x3, xzr
   853c8:	9400024a 	bl	85cf0 <_ZN4core3fmt9Formatter12pad_integral17hd76664d265795836E>
   853cc:	f9401bfe 	ldr	x30, [sp, #48]
   853d0:	910103ff 	add	sp, sp, #0x40
   853d4:	d65f03c0 	ret

00000000000853d8 <_ZN4core3str16slice_error_fail17h0a884f572164fefcE>:
   853d8:	a9b30fe2 	stp	x2, x3, [sp, #-208]!
   853dc:	f104043f 	cmp	x1, #0x101
   853e0:	54000122 	b.cs	85404 <_ZN4core3str16slice_error_fail17h0a884f572164fefcE+0x2c>  // b.hs, b.nlast
   853e4:	f0000009 	adrp	x9, 88000 <anon.57ef2e3c02ffeaf529e6c598bd0b036c.16.llvm.5445877691761700591+0x10e>
   853e8:	9113e129 	add	x9, x9, #0x4f8
   853ec:	aa1f03e8 	mov	x8, xzr
   853f0:	a90107e0 	stp	x0, x1, [sp, #16]
   853f4:	a90223e9 	stp	x9, x8, [sp, #32]
   853f8:	eb01005f 	cmp	x2, x1
   853fc:	540002a9 	b.ls	85450 <_ZN4core3str16slice_error_fail17h0a884f572164fefcE+0x78>  // b.plast
   85400:	1400002b 	b	854ac <_ZN4core3str16slice_error_fail17h0a884f572164fefcE+0xd4>
   85404:	52802008 	mov	w8, #0x100                 	// #256
   85408:	14000006 	b	85420 <_ZN4core3str16slice_error_fail17h0a884f572164fefcE+0x48>
   8540c:	38e86809 	ldrsb	w9, [x0, x8]
   85410:	3101053f 	cmn	w9, #0x41
   85414:	5400010c 	b.gt	85434 <_ZN4core3str16slice_error_fail17h0a884f572164fefcE+0x5c>
   85418:	f1000508 	subs	x8, x8, #0x1
   8541c:	540000c0 	b.eq	85434 <_ZN4core3str16slice_error_fail17h0a884f572164fefcE+0x5c>  // b.none
   85420:	eb01011f 	cmp	x8, x1
   85424:	54ffff43 	b.cc	8540c <_ZN4core3str16slice_error_fail17h0a884f572164fefcE+0x34>  // b.lo, b.ul, b.last
   85428:	eb08003f 	cmp	x1, x8
   8542c:	54ffff61 	b.ne	85418 <_ZN4core3str16slice_error_fail17h0a884f572164fefcE+0x40>  // b.any
   85430:	aa0103e8 	mov	x8, x1
   85434:	a90123e0 	stp	x0, x8, [sp, #16]
   85438:	f0000008 	adrp	x8, 88000 <anon.57ef2e3c02ffeaf529e6c598bd0b036c.16.llvm.5445877691761700591+0x10e>
   8543c:	9113cd09 	add	x9, x8, #0x4f3
   85440:	528000a8 	mov	w8, #0x5                   	// #5
   85444:	eb01005f 	cmp	x2, x1
   85448:	a90223e9 	stp	x9, x8, [sp, #32]
   8544c:	54000308 	b.hi	854ac <_ZN4core3str16slice_error_fail17h0a884f572164fefcE+0xd4>  // b.pmore
   85450:	eb01007f 	cmp	x3, x1
   85454:	540002c8 	b.hi	854ac <_ZN4core3str16slice_error_fail17h0a884f572164fefcE+0xd4>  // b.pmore
   85458:	eb03005f 	cmp	x2, x3
   8545c:	54000589 	b.ls	8550c <_ZN4core3str16slice_error_fail17h0a884f572164fefcE+0x134>  // b.plast
   85460:	90000009 	adrp	x9, 85000 <_ZN4core7unicode9printable5check17h3df87d4e8e554ccdE.llvm.5445877691761700591+0x4c>
   85464:	910003e8 	mov	x8, sp
   85468:	91098129 	add	x9, x9, #0x260
   8546c:	b000000c 	adrp	x12, 86000 <_ZN4core3fmt9Formatter12pad_integral17hd76664d265795836E+0x310>
   85470:	f000000e 	adrp	x14, 88000 <anon.57ef2e3c02ffeaf529e6c598bd0b036c.16.llvm.5445877691761700591+0x10e>
   85474:	910023ea 	add	x10, sp, #0x8
   85478:	910043eb 	add	x11, sp, #0x10
   8547c:	912c118c 	add	x12, x12, #0xb04
   85480:	910083ed 	add	x13, sp, #0x20
   85484:	9115a1ce 	add	x14, x14, #0x568
   85488:	a90827e8 	stp	x8, x9, [sp, #128]
   8548c:	52800088 	mov	w8, #0x4                   	// #4
   85490:	a90927ea 	stp	x10, x9, [sp, #144]
   85494:	a9067fff 	stp	xzr, xzr, [sp, #96]
   85498:	a90a33eb 	stp	x11, x12, [sp, #160]
   8549c:	a90b33ed 	stp	x13, x12, [sp, #176]
   854a0:	910203e9 	add	x9, sp, #0x80
   854a4:	a90523ee 	stp	x14, x8, [sp, #80]
   854a8:	14000014 	b	854f8 <_ZN4core3str16slice_error_fail17h0a884f572164fefcE+0x120>
   854ac:	90000009 	adrp	x9, 85000 <_ZN4core7unicode9printable5check17h3df87d4e8e554ccdE.llvm.5445877691761700591+0x4c>
   854b0:	eb01005f 	cmp	x2, x1
   854b4:	910103e8 	add	x8, sp, #0x40
   854b8:	91098129 	add	x9, x9, #0x260
   854bc:	b000000b 	adrp	x11, 86000 <_ZN4core3fmt9Formatter12pad_integral17hd76664d265795836E+0x310>
   854c0:	f000000e 	adrp	x14, 88000 <anon.57ef2e3c02ffeaf529e6c598bd0b036c.16.llvm.5445877691761700591+0x10e>
   854c4:	910043ea 	add	x10, sp, #0x10
   854c8:	912c116b 	add	x11, x11, #0xb04
   854cc:	910083ec 	add	x12, sp, #0x20
   854d0:	9a83804d 	csel	x13, x2, x3, hi  // hi = pmore
   854d4:	911481ce 	add	x14, x14, #0x520
   854d8:	a90827e8 	stp	x8, x9, [sp, #128]
   854dc:	52800068 	mov	w8, #0x3                   	// #3
   854e0:	910203e9 	add	x9, sp, #0x80
   854e4:	a9067fff 	stp	xzr, xzr, [sp, #96]
   854e8:	a9092fea 	stp	x10, x11, [sp, #144]
   854ec:	a90a2fec 	stp	x12, x11, [sp, #160]
   854f0:	a90523ee 	stp	x14, x8, [sp, #80]
   854f4:	f90023ed 	str	x13, [sp, #64]
   854f8:	a90723e9 	stp	x9, x8, [sp, #112]
   854fc:	910143e0 	add	x0, sp, #0x50
   85500:	aa0403e1 	mov	x1, x4
   85504:	97fffd14 	bl	84954 <_ZN4core9panicking9panic_fmt17h150231a4307abbaeE>
   85508:	d4200020 	brk	#0x1
   8550c:	b5000182 	cbnz	x2, 8553c <_ZN4core3str16slice_error_fail17h0a884f572164fefcE+0x164>
   85510:	f9001be3 	str	x3, [sp, #48]
   85514:	b5000423 	cbnz	x3, 85598 <_ZN4core3str16slice_error_fail17h0a884f572164fefcE+0x1c0>
   85518:	aa1f03e3 	mov	x3, xzr
   8551c:	eb01007f 	cmp	x3, x1
   85520:	540001a1 	b.ne	85554 <_ZN4core3str16slice_error_fail17h0a884f572164fefcE+0x17c>  // b.any
   85524:	f0000000 	adrp	x0, 88000 <anon.57ef2e3c02ffeaf529e6c598bd0b036c.16.llvm.5445877691761700591+0x10e>
   85528:	91132000 	add	x0, x0, #0x4c8
   8552c:	52800561 	mov	w1, #0x2b                  	// #43
   85530:	aa0403e2 	mov	x2, x4
   85534:	97fffce9 	bl	848d8 <_ZN4core9panicking5panic17h44d2e7d60b187585E>
   85538:	d4200020 	brk	#0x1
   8553c:	eb01005f 	cmp	x2, x1
   85540:	540001a2 	b.cs	85574 <_ZN4core3str16slice_error_fail17h0a884f572164fefcE+0x19c>  // b.hs, b.nlast
   85544:	38e26808 	ldrsb	w8, [x0, x2]
   85548:	3101051f 	cmn	w8, #0x41
   8554c:	54fffe2c 	b.gt	85510 <_ZN4core3str16slice_error_fail17h0a884f572164fefcE+0x138>
   85550:	1400000b 	b	8557c <_ZN4core3str16slice_error_fail17h0a884f572164fefcE+0x1a4>
   85554:	8b030008 	add	x8, x0, x3
   85558:	aa0803eb 	mov	x11, x8
   8555c:	38c0156a 	ldrsb	w10, [x11], #1
   85560:	12001d49 	and	w9, w10, #0xff
   85564:	37f8026a 	tbnz	w10, #31, 855b0 <_ZN4core3str16slice_error_fail17h0a884f572164fefcE+0x1d8>
   85568:	b9003fe9 	str	w9, [sp, #60]
   8556c:	52800028 	mov	w8, #0x1                   	// #1
   85570:	14000044 	b	85680 <_ZN4core3str16slice_error_fail17h0a884f572164fefcE+0x2a8>
   85574:	eb02003f 	cmp	x1, x2
   85578:	54fffcc0 	b.eq	85510 <_ZN4core3str16slice_error_fail17h0a884f572164fefcE+0x138>  // b.none
   8557c:	aa0203e3 	mov	x3, x2
   85580:	f9001be2 	str	x2, [sp, #48]
   85584:	14000005 	b	85598 <_ZN4core3str16slice_error_fail17h0a884f572164fefcE+0x1c0>
   85588:	eb03003f 	cmp	x1, x3
   8558c:	54fffcc0 	b.eq	85524 <_ZN4core3str16slice_error_fail17h0a884f572164fefcE+0x14c>  // b.none
   85590:	f1000463 	subs	x3, x3, #0x1
   85594:	54fffc20 	b.eq	85518 <_ZN4core3str16slice_error_fail17h0a884f572164fefcE+0x140>  // b.none
   85598:	eb01007f 	cmp	x3, x1
   8559c:	54ffff62 	b.cs	85588 <_ZN4core3str16slice_error_fail17h0a884f572164fefcE+0x1b0>  // b.hs, b.nlast
   855a0:	38e36808 	ldrsb	w8, [x0, x3]
   855a4:	3101011f 	cmn	w8, #0x40
   855a8:	54ffff4b 	b.lt	85590 <_ZN4core3str16slice_error_fail17h0a884f572164fefcE+0x1b8>  // b.tstop
   855ac:	17ffffdc 	b	8551c <_ZN4core3str16slice_error_fail17h0a884f572164fefcE+0x144>
   855b0:	8b01000a 	add	x10, x0, x1
   855b4:	eb0a017f 	cmp	x11, x10
   855b8:	54000101 	b.ne	855d8 <_ZN4core3str16slice_error_fail17h0a884f572164fefcE+0x200>  // b.any
   855bc:	2a1f03e8 	mov	w8, wzr
   855c0:	aa0a03ec 	mov	x12, x10
   855c4:	71037d3f 	cmp	w9, #0xdf
   855c8:	1200112b 	and	w11, w9, #0x1f
   855cc:	54000128 	b.hi	855f0 <_ZN4core3str16slice_error_fail17h0a884f572164fefcE+0x218>  // b.pmore
   855d0:	331a1168 	bfi	w8, w11, #6, #5
   855d4:	1400001f 	b	85650 <_ZN4core3str16slice_error_fail17h0a884f572164fefcE+0x278>
   855d8:	3940050b 	ldrb	w11, [x8, #1]
   855dc:	9100090c 	add	x12, x8, #0x2
   855e0:	12001568 	and	w8, w11, #0x3f
   855e4:	71037d3f 	cmp	w9, #0xdf
   855e8:	1200112b 	and	w11, w9, #0x1f
   855ec:	54ffff29 	b.ls	855d0 <_ZN4core3str16slice_error_fail17h0a884f572164fefcE+0x1f8>  // b.plast
   855f0:	eb0a019f 	cmp	x12, x10
   855f4:	54000081 	b.ne	85604 <_ZN4core3str16slice_error_fail17h0a884f572164fefcE+0x22c>  // b.any
   855f8:	2a1f03ed 	mov	w13, wzr
   855fc:	aa0a03ec 	mov	x12, x10
   85600:	14000003 	b	8560c <_ZN4core3str16slice_error_fail17h0a884f572164fefcE+0x234>
   85604:	3840158d 	ldrb	w13, [x12], #1
   85608:	120015ad 	and	w13, w13, #0x3f
   8560c:	7103c13f 	cmp	w9, #0xf0
   85610:	331a150d 	bfi	w13, w8, #6, #6
   85614:	540000a3 	b.cc	85628 <_ZN4core3str16slice_error_fail17h0a884f572164fefcE+0x250>  // b.lo, b.ul, b.last
   85618:	eb0a019f 	cmp	x12, x10
   8561c:	540000c1 	b.ne	85634 <_ZN4core3str16slice_error_fail17h0a884f572164fefcE+0x25c>  // b.any
   85620:	2a1f03e8 	mov	w8, wzr
   85624:	14000006 	b	8563c <_ZN4core3str16slice_error_fail17h0a884f572164fefcE+0x264>
   85628:	3314116d 	bfi	w13, w11, #12, #5
   8562c:	2a0d03e8 	mov	w8, w13
   85630:	14000008 	b	85650 <_ZN4core3str16slice_error_fail17h0a884f572164fefcE+0x278>
   85634:	39400188 	ldrb	w8, [x12]
   85638:	12001508 	and	w8, w8, #0x3f
   8563c:	530e0969 	ubfiz	w9, w11, #18, #3
   85640:	331a2da9 	bfi	w9, w13, #6, #12
   85644:	2a080128 	orr	w8, w9, w8
   85648:	7144411f 	cmp	w8, #0x110, lsl #12
   8564c:	54fff6c0 	b.eq	85524 <_ZN4core3str16slice_error_fail17h0a884f572164fefcE+0x14c>  // b.none
   85650:	7102011f 	cmp	w8, #0x80
   85654:	b9003fe8 	str	w8, [sp, #60]
   85658:	54000062 	b.cs	85664 <_ZN4core3str16slice_error_fail17h0a884f572164fefcE+0x28c>  // b.hs, b.nlast
   8565c:	52800028 	mov	w8, #0x1                   	// #1
   85660:	14000008 	b	85680 <_ZN4core3str16slice_error_fail17h0a884f572164fefcE+0x2a8>
   85664:	7120011f 	cmp	w8, #0x800
   85668:	54000062 	b.cs	85674 <_ZN4core3str16slice_error_fail17h0a884f572164fefcE+0x29c>  // b.hs, b.nlast
   8566c:	52800048 	mov	w8, #0x2                   	// #2
   85670:	14000004 	b	85680 <_ZN4core3str16slice_error_fail17h0a884f572164fefcE+0x2a8>
   85674:	7140411f 	cmp	w8, #0x10, lsl #12
   85678:	52800068 	mov	w8, #0x3                   	// #3
   8567c:	9a883508 	cinc	x8, x8, cs  // cs = hs, nlast
   85680:	8b030108 	add	x8, x8, x3
   85684:	9000000a 	adrp	x10, 85000 <_ZN4core7unicode9printable5check17h3df87d4e8e554ccdE.llvm.5445877691761700591+0x4c>
   85688:	9100c3e9 	add	x9, sp, #0x30
   8568c:	9109814a 	add	x10, x10, #0x260
   85690:	b000000c 	adrp	x12, 86000 <_ZN4core3fmt9Formatter12pad_integral17hd76664d265795836E+0x310>
   85694:	a90423e3 	stp	x3, x8, [sp, #64]
   85698:	b0000008 	adrp	x8, 86000 <_ZN4core3fmt9Formatter12pad_integral17hd76664d265795836E+0x310>
   8569c:	9100f3eb 	add	x11, sp, #0x3c
   856a0:	9116018c 	add	x12, x12, #0x580
   856a4:	f0ffffee 	adrp	x14, 84000 <_ZN68_$LT$core..fmt..builders..PadAdapter$u20$as$u20$core..fmt..Write$GT$9write_str17h664f3ba9611891cdE+0x1b0>
   856a8:	910043ef 	add	x15, sp, #0x10
   856ac:	912c1108 	add	x8, x8, #0xb04
   856b0:	a9082be9 	stp	x9, x10, [sp, #128]
   856b4:	910083e9 	add	x9, sp, #0x20
   856b8:	f000000a 	adrp	x10, 88000 <anon.57ef2e3c02ffeaf529e6c598bd0b036c.16.llvm.5445877691761700591+0x10e>
   856bc:	910103ed 	add	x13, sp, #0x40
   856c0:	912b21ce 	add	x14, x14, #0xac8
   856c4:	a90933eb 	stp	x11, x12, [sp, #144]
   856c8:	9117614a 	add	x10, x10, #0x5d8
   856cc:	528000ab 	mov	w11, #0x5                   	// #5
   856d0:	a90b23ef 	stp	x15, x8, [sp, #176]
   856d4:	a90c23e9 	stp	x9, x8, [sp, #192]
   856d8:	910203e8 	add	x8, sp, #0x80
   856dc:	a90a3bed 	stp	x13, x14, [sp, #160]
   856e0:	a9067fff 	stp	xzr, xzr, [sp, #96]
   856e4:	a9052fea 	stp	x10, x11, [sp, #80]
   856e8:	a9072fe8 	stp	x8, x11, [sp, #112]
   856ec:	910143e0 	add	x0, sp, #0x50
   856f0:	aa0403e1 	mov	x1, x4
   856f4:	97fffc98 	bl	84954 <_ZN4core9panicking9panic_fmt17h150231a4307abbaeE>
   856f8:	d4200020 	brk	#0x1

00000000000856fc <_ZN42_$LT$$RF$T$u20$as$u20$core..fmt..Debug$GT$3fmt17hbccf08f23fb6a251E>:
   856fc:	d10243ff 	sub	sp, sp, #0x90
   85700:	f9400009 	ldr	x9, [x0]
   85704:	b940302a 	ldr	w10, [x1, #48]
   85708:	aa0103e8 	mov	x8, x1
   8570c:	f90043fe 	str	x30, [sp, #128]
   85710:	f9400129 	ldr	x9, [x9]
   85714:	372005aa 	tbnz	w10, #4, 857c8 <_ZN42_$LT$$RF$T$u20$as$u20$core..fmt..Debug$GT$3fmt17hbccf08f23fb6a251E+0xcc>
   85718:	3728076a 	tbnz	w10, #5, 85804 <_ZN42_$LT$$RF$T$u20$as$u20$core..fmt..Debug$GT$3fmt17hbccf08f23fb6a251E+0x108>
   8571c:	d344fd2a 	lsr	x10, x9, #4
   85720:	f109c55f 	cmp	x10, #0x271
   85724:	54000ac3 	b.cc	8587c <_ZN42_$LT$$RF$T$u20$as$u20$core..fmt..Debug$GT$3fmt17hbccf08f23fb6a251E+0x180>  // b.lo, b.ul, b.last
   85728:	d28b296b 	mov	x11, #0x594b                	// #22859
   8572c:	f2a710cb 	movk	x11, #0x3886, lsl #16
   85730:	f2d8bacb 	movk	x11, #0xc5d6, lsl #32
   85734:	5290a3ed 	mov	w13, #0x851f                	// #34079
   85738:	d000000f 	adrp	x15, 87000 <anon.18d3f1f317091c7eeaf7c365eb201f34.15.llvm.3855770260100345529+0x38>
   8573c:	529c1ff1 	mov	w17, #0xe0ff                	// #57599
   85740:	aa1f03ea 	mov	x10, xzr
   85744:	f2e68dab 	movk	x11, #0x346d, lsl #48
   85748:	5284e20c 	mov	w12, #0x2710                	// #10000
   8574c:	72aa3d6d 	movk	w13, #0x51eb, lsl #16
   85750:	52800c8e 	mov	w14, #0x64                  	// #100
   85754:	912849ef 	add	x15, x15, #0xa12
   85758:	910003f0 	mov	x16, sp
   8575c:	72a0beb1 	movk	w17, #0x5f5, lsl #16
   85760:	aa0903f2 	mov	x18, x9
   85764:	9bcb7d29 	umulh	x9, x9, x11
   85768:	d34bfd29 	lsr	x9, x9, #11
   8576c:	eb11025f 	cmp	x18, x17
   85770:	1b0cc932 	msub	w18, w9, w12, w18
   85774:	12003e41 	and	w1, w18, #0xffff
   85778:	9bad7c21 	umull	x1, w1, w13
   8577c:	d365fc21 	lsr	x1, x1, #37
   85780:	1b0ec832 	msub	w18, w1, w14, w18
   85784:	8b0105e1 	add	x1, x15, x1, lsl #1
   85788:	8b3225f2 	add	x18, x15, w18, uxth #1
   8578c:	39400022 	ldrb	w2, [x1]
   85790:	39400421 	ldrb	w1, [x1, #1]
   85794:	39400643 	ldrb	w3, [x18, #1]
   85798:	39400252 	ldrb	w18, [x18]
   8579c:	8b0a0200 	add	x0, x16, x10
   857a0:	d100114a 	sub	x10, x10, #0x4
   857a4:	39009001 	strb	w1, [x0, #36]
   857a8:	39008c02 	strb	w2, [x0, #35]
   857ac:	39009803 	strb	w3, [x0, #38]
   857b0:	39009412 	strb	w18, [x0, #37]
   857b4:	54fffd68 	b.hi	85760 <_ZN42_$LT$$RF$T$u20$as$u20$core..fmt..Debug$GT$3fmt17hbccf08f23fb6a251E+0x64>  // b.pmore
   857b8:	91009d4a 	add	x10, x10, #0x27
   857bc:	f1018d3f 	cmp	x9, #0x63
   857c0:	5400064c 	b.gt	85888 <_ZN42_$LT$$RF$T$u20$as$u20$core..fmt..Debug$GT$3fmt17hbccf08f23fb6a251E+0x18c>
   857c4:	14000043 	b	858d0 <_ZN42_$LT$$RF$T$u20$as$u20$core..fmt..Debug$GT$3fmt17hbccf08f23fb6a251E+0x1d4>
   857c8:	aa1f03ea 	mov	x10, xzr
   857cc:	910003eb 	mov	x11, sp
   857d0:	12000d2e 	and	w14, w9, #0xf
   857d4:	5280060f 	mov	w15, #0x30                  	// #48
   857d8:	d344fd2d 	lsr	x13, x9, #4
   857dc:	33000d2f 	bfxil	w15, w9, #0, #4
   857e0:	11015dc9 	add	w9, w14, #0x57
   857e4:	710029df 	cmp	w14, #0xa
   857e8:	8b0a016c 	add	x12, x11, x10
   857ec:	1a8931e9 	csel	w9, w15, w9, cc  // cc = lo, ul, last
   857f0:	3901fd89 	strb	w9, [x12, #127]
   857f4:	d100054a 	sub	x10, x10, #0x1
   857f8:	aa0d03e9 	mov	x9, x13
   857fc:	b5fffead 	cbnz	x13, 857d0 <_ZN42_$LT$$RF$T$u20$as$u20$core..fmt..Debug$GT$3fmt17hbccf08f23fb6a251E+0xd4>
   85800:	1400000f 	b	8583c <_ZN42_$LT$$RF$T$u20$as$u20$core..fmt..Debug$GT$3fmt17hbccf08f23fb6a251E+0x140>
   85804:	aa1f03ea 	mov	x10, xzr
   85808:	910003eb 	mov	x11, sp
   8580c:	12000d2e 	and	w14, w9, #0xf
   85810:	5280060f 	mov	w15, #0x30                  	// #48
   85814:	d344fd2d 	lsr	x13, x9, #4
   85818:	33000d2f 	bfxil	w15, w9, #0, #4
   8581c:	1100ddc9 	add	w9, w14, #0x37
   85820:	710029df 	cmp	w14, #0xa
   85824:	8b0a016c 	add	x12, x11, x10
   85828:	1a8931e9 	csel	w9, w15, w9, cc  // cc = lo, ul, last
   8582c:	3901fd89 	strb	w9, [x12, #127]
   85830:	d100054a 	sub	x10, x10, #0x1
   85834:	aa0d03e9 	mov	x9, x13
   85838:	b5fffead 	cbnz	x13, 8580c <_ZN42_$LT$$RF$T$u20$as$u20$core..fmt..Debug$GT$3fmt17hbccf08f23fb6a251E+0x110>
   8583c:	91020140 	add	x0, x10, #0x80
   85840:	f102041f 	cmp	x0, #0x81
   85844:	54000822 	b.cs	85948 <_ZN42_$LT$$RF$T$u20$as$u20$core..fmt..Debug$GT$3fmt17hbccf08f23fb6a251E+0x24c>  // b.hs, b.nlast
   85848:	910003e9 	mov	x9, sp
   8584c:	8b0a0129 	add	x9, x9, x10
   85850:	d0000002 	adrp	x2, 87000 <anon.18d3f1f317091c7eeaf7c365eb201f34.15.llvm.3855770260100345529+0x38>
   85854:	cb0a03e5 	neg	x5, x10
   85858:	91020124 	add	x4, x9, #0x80
   8585c:	91284042 	add	x2, x2, #0xa10
   85860:	52800021 	mov	w1, #0x1                   	// #1
   85864:	52800043 	mov	w3, #0x2                   	// #2
   85868:	aa0803e0 	mov	x0, x8
   8586c:	94000121 	bl	85cf0 <_ZN4core3fmt9Formatter12pad_integral17hd76664d265795836E>
   85870:	f94043fe 	ldr	x30, [sp, #128]
   85874:	910243ff 	add	sp, sp, #0x90
   85878:	d65f03c0 	ret
   8587c:	528004ea 	mov	w10, #0x27                  	// #39
   85880:	f1018d3f 	cmp	x9, #0x63
   85884:	5400026d 	b.le	858d0 <_ZN42_$LT$$RF$T$u20$as$u20$core..fmt..Debug$GT$3fmt17hbccf08f23fb6a251E+0x1d4>
   85888:	5290a3ec 	mov	w12, #0x851f                	// #34079
   8588c:	12003d2b 	and	w11, w9, #0xffff
   85890:	72aa3d6c 	movk	w12, #0x51eb, lsl #16
   85894:	9bac7d6b 	umull	x11, w11, w12
   85898:	52800c8d 	mov	w13, #0x64                  	// #100
   8589c:	d000000c 	adrp	x12, 87000 <anon.18d3f1f317091c7eeaf7c365eb201f34.15.llvm.3855770260100345529+0x38>
   858a0:	d365fd6b 	lsr	x11, x11, #37
   858a4:	9128498c 	add	x12, x12, #0xa12
   858a8:	1b0da569 	msub	w9, w11, w13, w9
   858ac:	8b292589 	add	x9, x12, w9, uxth #1
   858b0:	3940052c 	ldrb	w12, [x9, #1]
   858b4:	39400129 	ldrb	w9, [x9]
   858b8:	d100094a 	sub	x10, x10, #0x2
   858bc:	910003ed 	mov	x13, sp
   858c0:	8b0a01ad 	add	x13, x13, x10
   858c4:	390001a9 	strb	w9, [x13]
   858c8:	aa0b03e9 	mov	x9, x11
   858cc:	390005ac 	strb	w12, [x13, #1]
   858d0:	f100293f 	cmp	x9, #0xa
   858d4:	540000ca 	b.ge	858ec <_ZN42_$LT$$RF$T$u20$as$u20$core..fmt..Debug$GT$3fmt17hbccf08f23fb6a251E+0x1f0>  // b.tcont
   858d8:	d100054a 	sub	x10, x10, #0x1
   858dc:	1100c129 	add	w9, w9, #0x30
   858e0:	910003eb 	mov	x11, sp
   858e4:	382a6969 	strb	w9, [x11, x10]
   858e8:	1400000b 	b	85914 <_ZN42_$LT$$RF$T$u20$as$u20$core..fmt..Debug$GT$3fmt17hbccf08f23fb6a251E+0x218>
   858ec:	d000000b 	adrp	x11, 87000 <anon.18d3f1f317091c7eeaf7c365eb201f34.15.llvm.3855770260100345529+0x38>
   858f0:	9128496b 	add	x11, x11, #0xa12
   858f4:	8b090569 	add	x9, x11, x9, lsl #1
   858f8:	3940052b 	ldrb	w11, [x9, #1]
   858fc:	39400129 	ldrb	w9, [x9]
   85900:	d100094a 	sub	x10, x10, #0x2
   85904:	910003ec 	mov	x12, sp
   85908:	8b0a018c 	add	x12, x12, x10
   8590c:	3900058b 	strb	w11, [x12, #1]
   85910:	39000189 	strb	w9, [x12]
   85914:	910003e9 	mov	x9, sp
   85918:	528004eb 	mov	w11, #0x27                  	// #39
   8591c:	d0000002 	adrp	x2, 87000 <anon.18d3f1f317091c7eeaf7c365eb201f34.15.llvm.3855770260100345529+0x38>
   85920:	8b0a0124 	add	x4, x9, x10
   85924:	cb0a0165 	sub	x5, x11, x10
   85928:	91370042 	add	x2, x2, #0xdc0
   8592c:	52800021 	mov	w1, #0x1                   	// #1
   85930:	aa0803e0 	mov	x0, x8
   85934:	aa1f03e3 	mov	x3, xzr
   85938:	940000ee 	bl	85cf0 <_ZN4core3fmt9Formatter12pad_integral17hd76664d265795836E>
   8593c:	f94043fe 	ldr	x30, [sp, #128]
   85940:	910243ff 	add	sp, sp, #0x90
   85944:	d65f03c0 	ret
   85948:	d0000002 	adrp	x2, 87000 <anon.18d3f1f317091c7eeaf7c365eb201f34.15.llvm.3855770260100345529+0x38>
   8594c:	9127e042 	add	x2, x2, #0x9f8
   85950:	52801001 	mov	w1, #0x80                  	// #128
   85954:	97fffc09 	bl	84978 <_ZN4core5slice5index26slice_start_index_len_fail17h92d701fb2ff102e6E>
   85958:	d4200020 	brk	#0x1

000000000008595c <_ZN4core7unicode12unicode_data15grapheme_extend6lookup17h9125850df650cd1dE>:
   8595c:	f000000a 	adrp	x10, 88000 <anon.57ef2e3c02ffeaf529e6c598bd0b036c.16.llvm.5445877691761700591+0x10e>
   85960:	aa1f03e8 	mov	x8, xzr
   85964:	53155009 	lsl	w9, w0, #11
   85968:	528003ec 	mov	w12, #0x1f                  	// #31
   8596c:	911be14a 	add	x10, x10, #0x6f8
   85970:	528003eb 	mov	w11, #0x1f                  	// #31
   85974:	14000004 	b	85984 <_ZN4core7unicode12unicode_data15grapheme_extend6lookup17h9125850df650cd1dE+0x28>
   85978:	91000588 	add	x8, x12, #0x1
   8597c:	eb08016c 	subs	x12, x11, x8
   85980:	54000129 	b.ls	859a4 <_ZN4core7unicode12unicode_data15grapheme_extend6lookup17h9125850df650cd1dE+0x48>  // b.plast
   85984:	8b4c050c 	add	x12, x8, x12, lsr #1
   85988:	b86c794d 	ldr	w13, [x10, x12, lsl #2]
   8598c:	531551ad 	lsl	w13, w13, #11
   85990:	6b0901bf 	cmp	w13, w9
   85994:	54ffff23 	b.cc	85978 <_ZN4core7unicode12unicode_data15grapheme_extend6lookup17h9125850df650cd1dE+0x1c>  // b.lo, b.ul, b.last
   85998:	aa0c03eb 	mov	x11, x12
   8599c:	54ffff01 	b.ne	8597c <_ZN4core7unicode12unicode_data15grapheme_extend6lookup17h9125850df650cd1dE+0x20>  // b.any
   859a0:	91000588 	add	x8, x12, #0x1
   859a4:	f100791f 	cmp	x8, #0x1e
   859a8:	540005e8 	b.hi	85a64 <_ZN4core7unicode12unicode_data15grapheme_extend6lookup17h9125850df650cd1dE+0x108>  // b.pmore
   859ac:	f100791f 	cmp	x8, #0x1e
   859b0:	54000121 	b.ne	859d4 <_ZN4core7unicode12unicode_data15grapheme_extend6lookup17h9125850df650cd1dE+0x78>  // b.any
   859b4:	5280562b 	mov	w11, #0x2b1                 	// #689
   859b8:	f1000509 	subs	x9, x8, #0x1
   859bc:	54000163 	b.cc	859e8 <_ZN4core7unicode12unicode_data15grapheme_extend6lookup17h9125850df650cd1dE+0x8c>  // b.lo, b.ul, b.last
   859c0:	f1007d3f 	cmp	x9, #0x1f
   859c4:	540005c2 	b.cs	85a7c <_ZN4core7unicode12unicode_data15grapheme_extend6lookup17h9125850df650cd1dE+0x120>  // b.hs, b.nlast
   859c8:	b8697949 	ldr	w9, [x10, x9, lsl #2]
   859cc:	1200512c 	and	w12, w9, #0x1fffff
   859d0:	14000007 	b	859ec <_ZN4core7unicode12unicode_data15grapheme_extend6lookup17h9125850df650cd1dE+0x90>
   859d4:	8b080949 	add	x9, x10, x8, lsl #2
   859d8:	b9400529 	ldr	w9, [x9, #4]
   859dc:	d355fd2b 	lsr	x11, x9, #21
   859e0:	f1000509 	subs	x9, x8, #0x1
   859e4:	54fffee2 	b.cs	859c0 <_ZN4core7unicode12unicode_data15grapheme_extend6lookup17h9125850df650cd1dE+0x64>  // b.hs, b.nlast
   859e8:	2a1f03ec 	mov	w12, wzr
   859ec:	b8687948 	ldr	w8, [x10, x8, lsl #2]
   859f0:	d355fd08 	lsr	x8, x8, #21
   859f4:	aa2803e9 	mvn	x9, x8
   859f8:	ab09017f 	cmn	x11, x9
   859fc:	54000260 	b.eq	85a48 <_ZN4core7unicode12unicode_data15grapheme_extend6lookup17h9125850df650cd1dE+0xec>  // b.none
   85a00:	4b0c000a 	sub	w10, w0, w12
   85a04:	f10ac51f 	cmp	x8, #0x2b1
   85a08:	5280562c 	mov	w12, #0x2b1                 	// #689
   85a0c:	9a8c8100 	csel	x0, x8, x12, hi  // hi = pmore
   85a10:	f000000c 	adrp	x12, 88000 <anon.57ef2e3c02ffeaf529e6c598bd0b036c.16.llvm.5445877691761700591+0x10e>
   85a14:	2a1f03e9 	mov	w9, wzr
   85a18:	d100056b 	sub	x11, x11, #0x1
   85a1c:	911dd18c 	add	x12, x12, #0x774
   85a20:	eb08001f 	cmp	x0, x8
   85a24:	54000160 	b.eq	85a50 <_ZN4core7unicode12unicode_data15grapheme_extend6lookup17h9125850df650cd1dE+0xf4>  // b.none
   85a28:	3868698d 	ldrb	w13, [x12, x8]
   85a2c:	0b0d0129 	add	w9, w9, w13
   85a30:	6b0a013f 	cmp	w9, w10
   85a34:	540000a8 	b.hi	85a48 <_ZN4core7unicode12unicode_data15grapheme_extend6lookup17h9125850df650cd1dE+0xec>  // b.pmore
   85a38:	91000508 	add	x8, x8, #0x1
   85a3c:	eb08017f 	cmp	x11, x8
   85a40:	54ffff01 	b.ne	85a20 <_ZN4core7unicode12unicode_data15grapheme_extend6lookup17h9125850df650cd1dE+0xc4>  // b.any
   85a44:	aa0b03e8 	mov	x8, x11
   85a48:	12000100 	and	w0, w8, #0x1
   85a4c:	d65f03c0 	ret
   85a50:	f0000002 	adrp	x2, 88000 <anon.57ef2e3c02ffeaf529e6c598bd0b036c.16.llvm.5445877691761700591+0x10e>
   85a54:	911b2042 	add	x2, x2, #0x6c8
   85a58:	52805621 	mov	w1, #0x2b1                 	// #689
   85a5c:	97fffbac 	bl	8490c <_ZN4core9panicking18panic_bounds_check17h9ccd95bf49c400c4E>
   85a60:	d4200020 	brk	#0x1
   85a64:	f0000002 	adrp	x2, 88000 <anon.57ef2e3c02ffeaf529e6c598bd0b036c.16.llvm.5445877691761700591+0x10e>
   85a68:	911ac042 	add	x2, x2, #0x6b0
   85a6c:	528003e1 	mov	w1, #0x1f                  	// #31
   85a70:	aa0803e0 	mov	x0, x8
   85a74:	97fffba6 	bl	8490c <_ZN4core9panicking18panic_bounds_check17h9ccd95bf49c400c4E>
   85a78:	d4200020 	brk	#0x1
   85a7c:	f0000002 	adrp	x2, 88000 <anon.57ef2e3c02ffeaf529e6c598bd0b036c.16.llvm.5445877691761700591+0x10e>
   85a80:	911b8042 	add	x2, x2, #0x6e0
   85a84:	528003e1 	mov	w1, #0x1f                  	// #31
   85a88:	aa0903e0 	mov	x0, x9
   85a8c:	97fffba0 	bl	8490c <_ZN4core9panicking18panic_bounds_check17h9ccd95bf49c400c4E>
   85a90:	d4200020 	brk	#0x1

0000000000085a94 <_ZN4core6result13unwrap_failed17h35143d59bf312088E>:
   85a94:	a9b907e0 	stp	x0, x1, [sp, #-112]!
   85a98:	b0000009 	adrp	x9, 86000 <_ZN4core3fmt9Formatter12pad_integral17hd76664d265795836E+0x310>
   85a9c:	910003e8 	mov	x8, sp
   85aa0:	912c1129 	add	x9, x9, #0xb04
   85aa4:	b000000b 	adrp	x11, 86000 <_ZN4core3fmt9Formatter12pad_integral17hd76664d265795836E+0x310>
   85aa8:	f000000c 	adrp	x12, 88000 <anon.57ef2e3c02ffeaf529e6c598bd0b036c.16.llvm.5445877691761700591+0x10e>
   85aac:	910043ea 	add	x10, sp, #0x10
   85ab0:	912be16b 	add	x11, x11, #0xaf8
   85ab4:	9128a18c 	add	x12, x12, #0xa28
   85ab8:	5280004d 	mov	w13, #0x2                   	// #2
   85abc:	a90527e8 	stp	x8, x9, [sp, #80]
   85ac0:	910143e8 	add	x8, sp, #0x50
   85ac4:	910083e0 	add	x0, sp, #0x20
   85ac8:	aa0403e1 	mov	x1, x4
   85acc:	a9010fe2 	stp	x2, x3, [sp, #16]
   85ad0:	a9037fff 	stp	xzr, xzr, [sp, #48]
   85ad4:	a9062fea 	stp	x10, x11, [sp, #96]
   85ad8:	a90237ec 	stp	x12, x13, [sp, #32]
   85adc:	a90437e8 	stp	x8, x13, [sp, #64]
   85ae0:	97fffb9d 	bl	84954 <_ZN4core9panicking9panic_fmt17h150231a4307abbaeE>
   85ae4:	d4200020 	brk	#0x1

0000000000085ae8 <_ZN4core3ops8function6FnOnce9call_once17hbbce8d644dbcdb61E.llvm.7516477757011690699>:
   85ae8:	f940001f 	ldr	xzr, [x0]
   85aec:	14000000 	b	85aec <_ZN4core3ops8function6FnOnce9call_once17hbbce8d644dbcdb61E.llvm.7516477757011690699+0x4>

0000000000085af0 <_ZN4core3ptr52drop_in_place$LT$core..fmt..builders..PadAdapter$GT$17h76a0df7be9e8b955E.llvm.7516477757011690699>:
   85af0:	d65f03c0 	ret

0000000000085af4 <_ZN4core3fmt5write17hb5f6a3bd29bb9808E>:
   85af4:	d10243ff 	sub	sp, sp, #0x90
   85af8:	f0000008 	adrp	x8, 88000 <anon.57ef2e3c02ffeaf529e6c598bd0b036c.16.llvm.5445877691761700591+0x10e>
   85afc:	fd452500 	ldr	d0, [x8, #2632]
   85b00:	f9400848 	ldr	x8, [x2, #16]
   85b04:	a9084ff4 	stp	x20, x19, [sp, #128]
   85b08:	aa0203f3 	mov	x19, x2
   85b0c:	52800069 	mov	w9, #0x3                   	// #3
   85b10:	f90023fe 	str	x30, [sp, #64]
   85b14:	a90567fa 	stp	x26, x25, [sp, #80]
   85b18:	a9065ff8 	stp	x24, x23, [sp, #96]
   85b1c:	a90757f6 	stp	x22, x21, [sp, #112]
   85b20:	f90003ff 	str	xzr, [sp]
   85b24:	f9000bff 	str	xzr, [sp, #16]
   85b28:	3900e3e9 	strb	w9, [sp, #56]
   85b2c:	fd001be0 	str	d0, [sp, #48]
   85b30:	a90207e0 	stp	x0, x1, [sp, #32]
   85b34:	b40008a8 	cbz	x8, 85c48 <_ZN4core3fmt5write17hb5f6a3bd29bb9808E+0x154>
   85b38:	f9400e69 	ldr	x9, [x19, #24]
   85b3c:	a9405674 	ldp	x20, x21, [x19]
   85b40:	eb15013f 	cmp	x9, x21
   85b44:	9a8982b6 	csel	x22, x21, x9, hi  // hi = pmore
   85b48:	b4000b16 	cbz	x22, 85ca8 <_ZN4core3fmt5write17hb5f6a3bd29bb9808E+0x1b4>
   85b4c:	90000019 	adrp	x25, 85000 <_ZN4core7unicode9printable5check17h3df87d4e8e554ccdE.llvm.5445877691761700591+0x4c>
   85b50:	aa1f03f7 	mov	x23, xzr
   85b54:	91006118 	add	x24, x8, #0x18
   85b58:	912ba339 	add	x25, x25, #0xae8
   85b5c:	aa1603fa 	mov	x26, x22
   85b60:	8b170288 	add	x8, x20, x23
   85b64:	f9400502 	ldr	x2, [x8, #8]
   85b68:	b40000c2 	cbz	x2, 85b80 <_ZN4core3fmt5write17hb5f6a3bd29bb9808E+0x8c>
   85b6c:	a94223e0 	ldp	x0, x8, [sp, #32]
   85b70:	f8776a81 	ldr	x1, [x20, x23]
   85b74:	f9400d08 	ldr	x8, [x8, #24]
   85b78:	d63f0100 	blr	x8
   85b7c:	37000a60 	tbnz	w0, #0, 85cc8 <_ZN4core3fmt5write17hb5f6a3bd29bb9808E+0x1d4>
   85b80:	39406308 	ldrb	w8, [x24, #24]
   85b84:	3900e3e8 	strb	w8, [sp, #56]
   85b88:	fd400b00 	ldr	d0, [x24, #16]
   85b8c:	f9401268 	ldr	x8, [x19, #32]
   85b90:	0ea00800 	rev64	v0.2s, v0.2s
   85b94:	fd001be0 	str	d0, [sp, #48]
   85b98:	a940270a 	ldp	x10, x9, [x24]
   85b9c:	b40001ea 	cbz	x10, 85bd8 <_ZN4core3fmt5write17hb5f6a3bd29bb9808E+0xe4>
   85ba0:	f100055f 	cmp	x10, #0x1
   85ba4:	540000a1 	b.ne	85bb8 <_ZN4core3fmt5write17hb5f6a3bd29bb9808E+0xc4>  // b.any
   85ba8:	8b09110a 	add	x10, x8, x9, lsl #4
   85bac:	f940054a 	ldr	x10, [x10, #8]
   85bb0:	eb19015f 	cmp	x10, x25
   85bb4:	540000c0 	b.eq	85bcc <_ZN4core3fmt5write17hb5f6a3bd29bb9808E+0xd8>  // b.none
   85bb8:	aa1f03ea 	mov	x10, xzr
   85bbc:	a90027ea 	stp	x10, x9, [sp]
   85bc0:	a97f270a 	ldp	x10, x9, [x24, #-16]
   85bc4:	b500012a 	cbnz	x10, 85be8 <_ZN4core3fmt5write17hb5f6a3bd29bb9808E+0xf4>
   85bc8:	14000013 	b	85c14 <_ZN4core3fmt5write17hb5f6a3bd29bb9808E+0x120>
   85bcc:	d37ced29 	lsl	x9, x9, #4
   85bd0:	f8696909 	ldr	x9, [x8, x9]
   85bd4:	f9400129 	ldr	x9, [x9]
   85bd8:	5280002a 	mov	w10, #0x1                   	// #1
   85bdc:	a90027ea 	stp	x10, x9, [sp]
   85be0:	a97f270a 	ldp	x10, x9, [x24, #-16]
   85be4:	b400018a 	cbz	x10, 85c14 <_ZN4core3fmt5write17hb5f6a3bd29bb9808E+0x120>
   85be8:	f100055f 	cmp	x10, #0x1
   85bec:	540000a1 	b.ne	85c00 <_ZN4core3fmt5write17hb5f6a3bd29bb9808E+0x10c>  // b.any
   85bf0:	8b09110a 	add	x10, x8, x9, lsl #4
   85bf4:	f940054a 	ldr	x10, [x10, #8]
   85bf8:	eb19015f 	cmp	x10, x25
   85bfc:	54000060 	b.eq	85c08 <_ZN4core3fmt5write17hb5f6a3bd29bb9808E+0x114>  // b.none
   85c00:	aa1f03ea 	mov	x10, xzr
   85c04:	14000005 	b	85c18 <_ZN4core3fmt5write17hb5f6a3bd29bb9808E+0x124>
   85c08:	d37ced29 	lsl	x9, x9, #4
   85c0c:	f8696909 	ldr	x9, [x8, x9]
   85c10:	f9400129 	ldr	x9, [x9]
   85c14:	5280002a 	mov	w10, #0x1                   	// #1
   85c18:	a90127ea 	stp	x10, x9, [sp, #16]
   85c1c:	f85e8309 	ldur	x9, [x24, #-24]
   85c20:	910003e1 	mov	x1, sp
   85c24:	8b091108 	add	x8, x8, x9, lsl #4
   85c28:	a9402500 	ldp	x0, x9, [x8]
   85c2c:	d63f0120 	blr	x9
   85c30:	370004c0 	tbnz	w0, #0, 85cc8 <_ZN4core3fmt5write17hb5f6a3bd29bb9808E+0x1d4>
   85c34:	f100075a 	subs	x26, x26, #0x1
   85c38:	910042f7 	add	x23, x23, #0x10
   85c3c:	9100e318 	add	x24, x24, #0x38
   85c40:	54fff901 	b.ne	85b60 <_ZN4core3fmt5write17hb5f6a3bd29bb9808E+0x6c>  // b.any
   85c44:	14000019 	b	85ca8 <_ZN4core3fmt5write17hb5f6a3bd29bb9808E+0x1b4>
   85c48:	f9401668 	ldr	x8, [x19, #40]
   85c4c:	a9405674 	ldp	x20, x21, [x19]
   85c50:	eb15011f 	cmp	x8, x21
   85c54:	9a8882b6 	csel	x22, x21, x8, hi  // hi = pmore
   85c58:	b4000296 	cbz	x22, 85ca8 <_ZN4core3fmt5write17hb5f6a3bd29bb9808E+0x1b4>
   85c5c:	f9401273 	ldr	x19, [x19, #32]
   85c60:	aa1f03f7 	mov	x23, xzr
   85c64:	aa1603f8 	mov	x24, x22
   85c68:	8b170288 	add	x8, x20, x23
   85c6c:	f9400502 	ldr	x2, [x8, #8]
   85c70:	b40000c2 	cbz	x2, 85c88 <_ZN4core3fmt5write17hb5f6a3bd29bb9808E+0x194>
   85c74:	a94223e0 	ldp	x0, x8, [sp, #32]
   85c78:	f8776a81 	ldr	x1, [x20, x23]
   85c7c:	f9400d08 	ldr	x8, [x8, #24]
   85c80:	d63f0100 	blr	x8
   85c84:	37000220 	tbnz	w0, #0, 85cc8 <_ZN4core3fmt5write17hb5f6a3bd29bb9808E+0x1d4>
   85c88:	8b170268 	add	x8, x19, x23
   85c8c:	a9402500 	ldp	x0, x9, [x8]
   85c90:	910003e1 	mov	x1, sp
   85c94:	d63f0120 	blr	x9
   85c98:	37000180 	tbnz	w0, #0, 85cc8 <_ZN4core3fmt5write17hb5f6a3bd29bb9808E+0x1d4>
   85c9c:	f1000718 	subs	x24, x24, #0x1
   85ca0:	910042f7 	add	x23, x23, #0x10
   85ca4:	54fffe21 	b.ne	85c68 <_ZN4core3fmt5write17hb5f6a3bd29bb9808E+0x174>  // b.any
   85ca8:	eb1502df 	cmp	x22, x21
   85cac:	54000122 	b.cs	85cd0 <_ZN4core3fmt5write17hb5f6a3bd29bb9808E+0x1dc>  // b.hs, b.nlast
   85cb0:	a94223e0 	ldp	x0, x8, [sp, #32]
   85cb4:	8b161289 	add	x9, x20, x22, lsl #4
   85cb8:	a9400921 	ldp	x1, x2, [x9]
   85cbc:	f9400d08 	ldr	x8, [x8, #24]
   85cc0:	d63f0100 	blr	x8
   85cc4:	36000060 	tbz	w0, #0, 85cd0 <_ZN4core3fmt5write17hb5f6a3bd29bb9808E+0x1dc>
   85cc8:	52800020 	mov	w0, #0x1                   	// #1
   85ccc:	14000002 	b	85cd4 <_ZN4core3fmt5write17hb5f6a3bd29bb9808E+0x1e0>
   85cd0:	2a1f03e0 	mov	w0, wzr
   85cd4:	a9484ff4 	ldp	x20, x19, [sp, #128]
   85cd8:	a94757f6 	ldp	x22, x21, [sp, #112]
   85cdc:	a9465ff8 	ldp	x24, x23, [sp, #96]
   85ce0:	a94567fa 	ldp	x26, x25, [sp, #80]
   85ce4:	f94023fe 	ldr	x30, [sp, #64]
   85ce8:	910243ff 	add	sp, sp, #0x90
   85cec:	d65f03c0 	ret

0000000000085cf0 <_ZN4core3fmt9Formatter12pad_integral17hd76664d265795836E>:
   85cf0:	a9ba7bfd 	stp	x29, x30, [sp, #-96]!
   85cf4:	a9035ff8 	stp	x24, x23, [sp, #48]
   85cf8:	a90457f6 	stp	x22, x21, [sp, #64]
   85cfc:	a9054ff4 	stp	x20, x19, [sp, #80]
   85d00:	aa0503f4 	mov	x20, x5
   85d04:	aa0403f5 	mov	x21, x4
   85d08:	aa0303f6 	mov	x22, x3
   85d0c:	aa0203f7 	mov	x23, x2
   85d10:	aa0003f3 	mov	x19, x0
   85d14:	a9016ffc 	stp	x28, x27, [sp, #16]
   85d18:	a90267fa 	stp	x26, x25, [sp, #32]
   85d1c:	34000201 	cbz	w1, 85d5c <_ZN4core3fmt9Formatter12pad_integral17hd76664d265795836E+0x6c>
   85d20:	b9403268 	ldr	w8, [x19, #48]
   85d24:	52800569 	mov	w9, #0x2b                  	// #43
   85d28:	52a0022a 	mov	w10, #0x110000              	// #1114112
   85d2c:	9240010b 	and	x11, x8, #0x1
   85d30:	7100017f 	cmp	w11, #0x0
   85d34:	1a890158 	csel	w24, w10, w9, eq  // eq = none
   85d38:	8b140169 	add	x9, x11, x20
   85d3c:	36100188 	tbz	w8, #2, 85d6c <_ZN4core3fmt9Formatter12pad_integral17hd76664d265795836E+0x7c>
   85d40:	aa1603eb 	mov	x11, x22
   85d44:	b4000556 	cbz	x22, 85dec <_ZN4core3fmt9Formatter12pad_integral17hd76664d265795836E+0xfc>
   85d48:	f10006df 	cmp	x22, #0x1
   85d4c:	540001c1 	b.ne	85d84 <_ZN4core3fmt9Formatter12pad_integral17hd76664d265795836E+0x94>  // b.any
   85d50:	aa1f03eb 	mov	x11, xzr
   85d54:	aa1703ea 	mov	x10, x23
   85d58:	1400001e 	b	85dd0 <_ZN4core3fmt9Formatter12pad_integral17hd76664d265795836E+0xe0>
   85d5c:	b9403268 	ldr	w8, [x19, #48]
   85d60:	91000689 	add	x9, x20, #0x1
   85d64:	528005b8 	mov	w24, #0x2d                  	// #45
   85d68:	3717fec8 	tbnz	w8, #2, 85d40 <_ZN4core3fmt9Formatter12pad_integral17hd76664d265795836E+0x50>
   85d6c:	aa1f03f7 	mov	x23, xzr
   85d70:	aa1f03f6 	mov	x22, xzr
   85d74:	f940026a 	ldr	x10, [x19]
   85d78:	f100055f 	cmp	x10, #0x1
   85d7c:	54000400 	b.eq	85dfc <_ZN4core3fmt9Formatter12pad_integral17hd76664d265795836E+0x10c>  // b.none
   85d80:	1400002c 	b	85e30 <_ZN4core3fmt9Formatter12pad_integral17hd76664d265795836E+0x140>
   85d84:	927ffacd 	and	x13, x22, #0xfffffffffffffffe
   85d88:	aa1f03eb 	mov	x11, xzr
   85d8c:	aa1f03ec 	mov	x12, xzr
   85d90:	8b0d02ea 	add	x10, x23, x13
   85d94:	910006ee 	add	x14, x23, #0x1
   85d98:	aa0d03ef 	mov	x15, x13
   85d9c:	385ff1d0 	ldurb	w16, [x14, #-1]
   85da0:	384025d1 	ldrb	w17, [x14], #2
   85da4:	121a0610 	and	w16, w16, #0xc0
   85da8:	121a0631 	and	w17, w17, #0xc0
   85dac:	7102021f 	cmp	w16, #0x80
   85db0:	9a8b056b 	cinc	x11, x11, ne  // ne = any
   85db4:	7102023f 	cmp	w17, #0x80
   85db8:	9a8c058c 	cinc	x12, x12, ne  // ne = any
   85dbc:	f10009ef 	subs	x15, x15, #0x2
   85dc0:	54fffee1 	b.ne	85d9c <_ZN4core3fmt9Formatter12pad_integral17hd76664d265795836E+0xac>  // b.any
   85dc4:	eb1601bf 	cmp	x13, x22
   85dc8:	8b0b018b 	add	x11, x12, x11
   85dcc:	54000100 	b.eq	85dec <_ZN4core3fmt9Formatter12pad_integral17hd76664d265795836E+0xfc>  // b.none
   85dd0:	8b1602ec 	add	x12, x23, x22
   85dd4:	3840154d 	ldrb	w13, [x10], #1
   85dd8:	121a05ad 	and	w13, w13, #0xc0
   85ddc:	710201bf 	cmp	w13, #0x80
   85de0:	9a8b056b 	cinc	x11, x11, ne  // ne = any
   85de4:	eb0a019f 	cmp	x12, x10
   85de8:	54ffff61 	b.ne	85dd4 <_ZN4core3fmt9Formatter12pad_integral17hd76664d265795836E+0xe4>  // b.any
   85dec:	8b090169 	add	x9, x11, x9
   85df0:	f940026a 	ldr	x10, [x19]
   85df4:	f100055f 	cmp	x10, #0x1
   85df8:	540001c1 	b.ne	85e30 <_ZN4core3fmt9Formatter12pad_integral17hd76664d265795836E+0x140>  // b.any
   85dfc:	f940066a 	ldr	x10, [x19, #8]
   85e00:	eb09015c 	subs	x28, x10, x9
   85e04:	54000169 	b.ls	85e30 <_ZN4core3fmt9Formatter12pad_integral17hd76664d265795836E+0x140>  // b.plast
   85e08:	37180488 	tbnz	w8, #3, 85e98 <_ZN4core3fmt9Formatter12pad_integral17hd76664d265795836E+0x1a8>
   85e0c:	3940e268 	ldrb	w8, [x19, #56]
   85e10:	71000d1f 	cmp	w8, #0x3
   85e14:	1a9f1508 	csinc	w8, w8, wzr, ne  // ne = any
   85e18:	72000508 	ands	w8, w8, #0x3
   85e1c:	54000680 	b.eq	85eec <_ZN4core3fmt9Formatter12pad_integral17hd76664d265795836E+0x1fc>  // b.none
   85e20:	7100051f 	cmp	w8, #0x1
   85e24:	540006a1 	b.ne	85ef8 <_ZN4core3fmt9Formatter12pad_integral17hd76664d265795836E+0x208>  // b.any
   85e28:	aa1f03fb 	mov	x27, xzr
   85e2c:	14000036 	b	85f04 <_ZN4core3fmt9Formatter12pad_integral17hd76664d265795836E+0x214>
   85e30:	aa1303e0 	mov	x0, x19
   85e34:	2a1803e1 	mov	w1, w24
   85e38:	aa1703e2 	mov	x2, x23
   85e3c:	aa1603e3 	mov	x3, x22
   85e40:	94000086 	bl	86058 <_ZN4core3fmt9Formatter12pad_integral12write_prefix17h4cec181bc4f6d72aE>
   85e44:	36000140 	tbz	w0, #0, 85e6c <_ZN4core3fmt9Formatter12pad_integral17hd76664d265795836E+0x17c>
   85e48:	52800039 	mov	w25, #0x1                   	// #1
   85e4c:	2a1903e0 	mov	w0, w25
   85e50:	a9454ff4 	ldp	x20, x19, [sp, #80]
   85e54:	a94457f6 	ldp	x22, x21, [sp, #64]
   85e58:	a9435ff8 	ldp	x24, x23, [sp, #48]
   85e5c:	a94267fa 	ldp	x26, x25, [sp, #32]
   85e60:	a9416ffc 	ldp	x28, x27, [sp, #16]
   85e64:	a8c67bfd 	ldp	x29, x30, [sp], #96
   85e68:	d65f03c0 	ret
   85e6c:	a9422260 	ldp	x0, x8, [x19, #32]
   85e70:	aa1503e1 	mov	x1, x21
   85e74:	aa1403e2 	mov	x2, x20
   85e78:	a9454ff4 	ldp	x20, x19, [sp, #80]
   85e7c:	f9400d03 	ldr	x3, [x8, #24]
   85e80:	a94457f6 	ldp	x22, x21, [sp, #64]
   85e84:	a9435ff8 	ldp	x24, x23, [sp, #48]
   85e88:	a94267fa 	ldp	x26, x25, [sp, #32]
   85e8c:	a9416ffc 	ldp	x28, x27, [sp, #16]
   85e90:	a8c67bfd 	ldp	x29, x30, [sp], #96
   85e94:	d61f0060 	br	x3
   85e98:	b940367a 	ldr	w26, [x19, #52]
   85e9c:	3940e27b 	ldrb	w27, [x19, #56]
   85ea0:	52800608 	mov	w8, #0x30                  	// #48
   85ea4:	52800039 	mov	w25, #0x1                   	// #1
   85ea8:	aa1303e0 	mov	x0, x19
   85eac:	2a1803e1 	mov	w1, w24
   85eb0:	aa1703e2 	mov	x2, x23
   85eb4:	aa1603e3 	mov	x3, x22
   85eb8:	b9003668 	str	w8, [x19, #52]
   85ebc:	3900e279 	strb	w25, [x19, #56]
   85ec0:	94000066 	bl	86058 <_ZN4core3fmt9Formatter12pad_integral12write_prefix17h4cec181bc4f6d72aE>
   85ec4:	3707fc40 	tbnz	w0, #0, 85e4c <_ZN4core3fmt9Formatter12pad_integral17hd76664d265795836E+0x15c>
   85ec8:	3940e268 	ldrb	w8, [x19, #56]
   85ecc:	71000d1f 	cmp	w8, #0x3
   85ed0:	1a9f1508 	csinc	w8, w8, wzr, ne  // ne = any
   85ed4:	72000508 	ands	w8, w8, #0x3
   85ed8:	54000620 	b.eq	85f9c <_ZN4core3fmt9Formatter12pad_integral17hd76664d265795836E+0x2ac>  // b.none
   85edc:	7100051f 	cmp	w8, #0x1
   85ee0:	54000641 	b.ne	85fa8 <_ZN4core3fmt9Formatter12pad_integral17hd76664d265795836E+0x2b8>  // b.any
   85ee4:	aa1f03f8 	mov	x24, xzr
   85ee8:	14000033 	b	85fb4 <_ZN4core3fmt9Formatter12pad_integral17hd76664d265795836E+0x2c4>
   85eec:	aa1c03fb 	mov	x27, x28
   85ef0:	aa1f03fc 	mov	x28, xzr
   85ef4:	14000004 	b	85f04 <_ZN4core3fmt9Formatter12pad_integral17hd76664d265795836E+0x214>
   85ef8:	91000788 	add	x8, x28, #0x1
   85efc:	d341ff9c 	lsr	x28, x28, #1
   85f00:	d341fd1b 	lsr	x27, x8, #1
   85f04:	a942767a 	ldp	x26, x29, [x19, #32]
   85f08:	b9403679 	ldr	w25, [x19, #52]
   85f0c:	9100079c 	add	x28, x28, #0x1
   85f10:	f100079c 	subs	x28, x28, #0x1
   85f14:	540000e0 	b.eq	85f30 <_ZN4core3fmt9Formatter12pad_integral17hd76664d265795836E+0x240>  // b.none
   85f18:	f94013a8 	ldr	x8, [x29, #32]
   85f1c:	aa1a03e0 	mov	x0, x26
   85f20:	2a1903e1 	mov	w1, w25
   85f24:	d63f0100 	blr	x8
   85f28:	3607ff40 	tbz	w0, #0, 85f10 <_ZN4core3fmt9Formatter12pad_integral17hd76664d265795836E+0x220>
   85f2c:	17ffffc7 	b	85e48 <_ZN4core3fmt9Formatter12pad_integral17hd76664d265795836E+0x158>
   85f30:	7144433f 	cmp	w25, #0x110, lsl #12
   85f34:	9a9b03fa 	csel	x26, xzr, x27, eq  // eq = none
   85f38:	54fff880 	b.eq	85e48 <_ZN4core3fmt9Formatter12pad_integral17hd76664d265795836E+0x158>  // b.none
   85f3c:	aa1303e0 	mov	x0, x19
   85f40:	2a1803e1 	mov	w1, w24
   85f44:	aa1703e2 	mov	x2, x23
   85f48:	aa1603e3 	mov	x3, x22
   85f4c:	94000043 	bl	86058 <_ZN4core3fmt9Formatter12pad_integral12write_prefix17h4cec181bc4f6d72aE>
   85f50:	3707f7c0 	tbnz	w0, #0, 85e48 <_ZN4core3fmt9Formatter12pad_integral17hd76664d265795836E+0x158>
   85f54:	a9422260 	ldp	x0, x8, [x19, #32]
   85f58:	aa1503e1 	mov	x1, x21
   85f5c:	aa1403e2 	mov	x2, x20
   85f60:	f9400d08 	ldr	x8, [x8, #24]
   85f64:	d63f0100 	blr	x8
   85f68:	3707f700 	tbnz	w0, #0, 85e48 <_ZN4core3fmt9Formatter12pad_integral17hd76664d265795836E+0x158>
   85f6c:	a9424e74 	ldp	x20, x19, [x19, #32]
   85f70:	aa1f03f5 	mov	x21, xzr
   85f74:	eb15035f 	cmp	x26, x21
   85f78:	54000680 	b.eq	86048 <_ZN4core3fmt9Formatter12pad_integral17hd76664d265795836E+0x358>  // b.none
   85f7c:	f9401268 	ldr	x8, [x19, #32]
   85f80:	aa1403e0 	mov	x0, x20
   85f84:	2a1903e1 	mov	w1, w25
   85f88:	910006b5 	add	x21, x21, #0x1
   85f8c:	d63f0100 	blr	x8
   85f90:	34ffff20 	cbz	w0, 85f74 <_ZN4core3fmt9Formatter12pad_integral17hd76664d265795836E+0x284>
   85f94:	d10006a8 	sub	x8, x21, #0x1
   85f98:	1400002d 	b	8604c <_ZN4core3fmt9Formatter12pad_integral17hd76664d265795836E+0x35c>
   85f9c:	aa1c03f8 	mov	x24, x28
   85fa0:	aa1f03fc 	mov	x28, xzr
   85fa4:	14000004 	b	85fb4 <_ZN4core3fmt9Formatter12pad_integral17hd76664d265795836E+0x2c4>
   85fa8:	91000788 	add	x8, x28, #0x1
   85fac:	d341ff9c 	lsr	x28, x28, #1
   85fb0:	d341fd18 	lsr	x24, x8, #1
   85fb4:	a9426677 	ldp	x23, x25, [x19, #32]
   85fb8:	b9403676 	ldr	w22, [x19, #52]
   85fbc:	9100079c 	add	x28, x28, #0x1
   85fc0:	f100079c 	subs	x28, x28, #0x1
   85fc4:	540000e0 	b.eq	85fe0 <_ZN4core3fmt9Formatter12pad_integral17hd76664d265795836E+0x2f0>  // b.none
   85fc8:	f9401328 	ldr	x8, [x25, #32]
   85fcc:	aa1703e0 	mov	x0, x23
   85fd0:	2a1603e1 	mov	w1, w22
   85fd4:	d63f0100 	blr	x8
   85fd8:	3607ff40 	tbz	w0, #0, 85fc0 <_ZN4core3fmt9Formatter12pad_integral17hd76664d265795836E+0x2d0>
   85fdc:	17ffff9b 	b	85e48 <_ZN4core3fmt9Formatter12pad_integral17hd76664d265795836E+0x158>
   85fe0:	714442df 	cmp	w22, #0x110, lsl #12
   85fe4:	9a9803f7 	csel	x23, xzr, x24, eq  // eq = none
   85fe8:	54fff300 	b.eq	85e48 <_ZN4core3fmt9Formatter12pad_integral17hd76664d265795836E+0x158>  // b.none
   85fec:	a9422260 	ldp	x0, x8, [x19, #32]
   85ff0:	aa1503e1 	mov	x1, x21
   85ff4:	aa1403e2 	mov	x2, x20
   85ff8:	f9400d08 	ldr	x8, [x8, #24]
   85ffc:	d63f0100 	blr	x8
   86000:	3707f240 	tbnz	w0, #0, 85e48 <_ZN4core3fmt9Formatter12pad_integral17hd76664d265795836E+0x158>
   86004:	a9425674 	ldp	x20, x21, [x19, #32]
   86008:	aa1f03f8 	mov	x24, xzr
   8600c:	eb1802ff 	cmp	x23, x24
   86010:	54000140 	b.eq	86038 <_ZN4core3fmt9Formatter12pad_integral17hd76664d265795836E+0x348>  // b.none
   86014:	f94012a8 	ldr	x8, [x21, #32]
   86018:	aa1403e0 	mov	x0, x20
   8601c:	2a1603e1 	mov	w1, w22
   86020:	91000718 	add	x24, x24, #0x1
   86024:	d63f0100 	blr	x8
   86028:	34ffff20 	cbz	w0, 8600c <_ZN4core3fmt9Formatter12pad_integral17hd76664d265795836E+0x31c>
   8602c:	d1000708 	sub	x8, x24, #0x1
   86030:	eb17011f 	cmp	x8, x23
   86034:	54fff0a3 	b.cc	85e48 <_ZN4core3fmt9Formatter12pad_integral17hd76664d265795836E+0x158>  // b.lo, b.ul, b.last
   86038:	2a1f03f9 	mov	w25, wzr
   8603c:	b900367a 	str	w26, [x19, #52]
   86040:	3900e27b 	strb	w27, [x19, #56]
   86044:	17ffff82 	b	85e4c <_ZN4core3fmt9Formatter12pad_integral17hd76664d265795836E+0x15c>
   86048:	aa1a03e8 	mov	x8, x26
   8604c:	eb1a011f 	cmp	x8, x26
   86050:	1a9f27f9 	cset	w25, cc  // cc = lo, ul, last
   86054:	17ffff7e 	b	85e4c <_ZN4core3fmt9Formatter12pad_integral17hd76664d265795836E+0x15c>

0000000000086058 <_ZN4core3fmt9Formatter12pad_integral12write_prefix17h4cec181bc4f6d72aE>:
   86058:	a9be57fe 	stp	x30, x21, [sp, #-32]!
   8605c:	a9014ff4 	stp	x20, x19, [sp, #16]
   86060:	aa0303f3 	mov	x19, x3
   86064:	aa0203f4 	mov	x20, x2
   86068:	7144403f 	cmp	w1, #0x110, lsl #12
   8606c:	aa0003f5 	mov	x21, x0
   86070:	54000120 	b.eq	86094 <_ZN4core3fmt9Formatter12pad_integral12write_prefix17h4cec181bc4f6d72aE+0x3c>  // b.none
   86074:	a94222a0 	ldp	x0, x8, [x21, #32]
   86078:	f9401108 	ldr	x8, [x8, #32]
   8607c:	d63f0100 	blr	x8
   86080:	360000a0 	tbz	w0, #0, 86094 <_ZN4core3fmt9Formatter12pad_integral12write_prefix17h4cec181bc4f6d72aE+0x3c>
   86084:	52800020 	mov	w0, #0x1                   	// #1
   86088:	a9414ff4 	ldp	x20, x19, [sp, #16]
   8608c:	a8c257fe 	ldp	x30, x21, [sp], #32
   86090:	d65f03c0 	ret
   86094:	b4000114 	cbz	x20, 860b4 <_ZN4core3fmt9Formatter12pad_integral12write_prefix17h4cec181bc4f6d72aE+0x5c>
   86098:	a94222a0 	ldp	x0, x8, [x21, #32]
   8609c:	aa1403e1 	mov	x1, x20
   860a0:	aa1303e2 	mov	x2, x19
   860a4:	a9414ff4 	ldp	x20, x19, [sp, #16]
   860a8:	f9400d03 	ldr	x3, [x8, #24]
   860ac:	a8c257fe 	ldp	x30, x21, [sp], #32
   860b0:	d61f0060 	br	x3
   860b4:	2a1f03e0 	mov	w0, wzr
   860b8:	a9414ff4 	ldp	x20, x19, [sp, #16]
   860bc:	a8c257fe 	ldp	x30, x21, [sp], #32
   860c0:	d65f03c0 	ret

00000000000860c4 <_ZN4core3fmt9Formatter3pad17h59d95a2e2006fc28E>:
   860c4:	a9bc67fe 	stp	x30, x25, [sp, #-64]!
   860c8:	f9400008 	ldr	x8, [x0]
   860cc:	f9400809 	ldr	x9, [x0, #16]
   860d0:	a9034ff4 	stp	x20, x19, [sp, #48]
   860d4:	aa0203f3 	mov	x19, x2
   860d8:	f100051f 	cmp	x8, #0x1
   860dc:	aa0103f4 	mov	x20, x1
   860e0:	a9015ff8 	stp	x24, x23, [sp, #16]
   860e4:	a90257f6 	stp	x22, x21, [sp, #32]
   860e8:	54000081 	b.ne	860f8 <_ZN4core3fmt9Formatter3pad17h59d95a2e2006fc28E+0x34>  // b.any
   860ec:	f100053f 	cmp	x9, #0x1
   860f0:	54000080 	b.eq	86100 <_ZN4core3fmt9Formatter3pad17h59d95a2e2006fc28E+0x3c>  // b.none
   860f4:	1400005a 	b	8625c <_ZN4core3fmt9Formatter3pad17h59d95a2e2006fc28E+0x198>
   860f8:	f100053f 	cmp	x9, #0x1
   860fc:	54001081 	b.ne	8630c <_ZN4core3fmt9Formatter3pad17h59d95a2e2006fc28E+0x248>  // b.any
   86100:	f9400c0b 	ldr	x11, [x0, #24]
   86104:	8b13028a 	add	x10, x20, x19
   86108:	aa1f03e9 	mov	x9, xzr
   8610c:	b400066b 	cbz	x11, 861d8 <_ZN4core3fmt9Formatter3pad17h59d95a2e2006fc28E+0x114>
   86110:	aa1403ed 	mov	x13, x20
   86114:	1400000e 	b	8614c <_ZN4core3fmt9Formatter3pad17h59d95a2e2006fc28E+0x88>
   86118:	38401591 	ldrb	w17, [x12], #1
   8611c:	12001631 	and	w17, w17, #0x3f
   86120:	530e09ef 	ubfiz	w15, w15, #18, #3
   86124:	331415cf 	bfi	w15, w14, #12, #6
   86128:	331a160f 	bfi	w15, w16, #6, #6
   8612c:	2a1101ee 	orr	w14, w15, w17
   86130:	714441df 	cmp	w14, #0x110, lsl #12
   86134:	54000900 	b.eq	86254 <_ZN4core3fmt9Formatter3pad17h59d95a2e2006fc28E+0x190>  // b.none
   86138:	cb0d0129 	sub	x9, x9, x13
   8613c:	f100056b 	subs	x11, x11, #0x1
   86140:	8b0c0129 	add	x9, x9, x12
   86144:	aa0c03ed 	mov	x13, x12
   86148:	540004a0 	b.eq	861dc <_ZN4core3fmt9Formatter3pad17h59d95a2e2006fc28E+0x118>  // b.none
   8614c:	eb0a01bf 	cmp	x13, x10
   86150:	54000820 	b.eq	86254 <_ZN4core3fmt9Formatter3pad17h59d95a2e2006fc28E+0x190>  // b.none
   86154:	aa0d03ec 	mov	x12, x13
   86158:	38c0158f 	ldrsb	w15, [x12], #1
   8615c:	36fffeef 	tbz	w15, #31, 86138 <_ZN4core3fmt9Formatter3pad17h59d95a2e2006fc28E+0x74>
   86160:	eb0a019f 	cmp	x12, x10
   86164:	54000100 	b.eq	86184 <_ZN4core3fmt9Formatter3pad17h59d95a2e2006fc28E+0xc0>  // b.none
   86168:	394005ae 	ldrb	w14, [x13, #1]
   8616c:	910009ac 	add	x12, x13, #0x2
   86170:	120015ce 	and	w14, w14, #0x3f
   86174:	12001def 	and	w15, w15, #0xff
   86178:	710381ff 	cmp	w15, #0xe0
   8617c:	54fffde3 	b.cc	86138 <_ZN4core3fmt9Formatter3pad17h59d95a2e2006fc28E+0x74>  // b.lo, b.ul, b.last
   86180:	14000006 	b	86198 <_ZN4core3fmt9Formatter3pad17h59d95a2e2006fc28E+0xd4>
   86184:	2a1f03ee 	mov	w14, wzr
   86188:	aa0a03ec 	mov	x12, x10
   8618c:	12001def 	and	w15, w15, #0xff
   86190:	710381ff 	cmp	w15, #0xe0
   86194:	54fffd23 	b.cc	86138 <_ZN4core3fmt9Formatter3pad17h59d95a2e2006fc28E+0x74>  // b.lo, b.ul, b.last
   86198:	eb0a019f 	cmp	x12, x10
   8619c:	540000c0 	b.eq	861b4 <_ZN4core3fmt9Formatter3pad17h59d95a2e2006fc28E+0xf0>  // b.none
   861a0:	38401590 	ldrb	w16, [x12], #1
   861a4:	12001610 	and	w16, w16, #0x3f
   861a8:	7103c1ff 	cmp	w15, #0xf0
   861ac:	54fffc63 	b.cc	86138 <_ZN4core3fmt9Formatter3pad17h59d95a2e2006fc28E+0x74>  // b.lo, b.ul, b.last
   861b0:	14000005 	b	861c4 <_ZN4core3fmt9Formatter3pad17h59d95a2e2006fc28E+0x100>
   861b4:	2a1f03f0 	mov	w16, wzr
   861b8:	aa0a03ec 	mov	x12, x10
   861bc:	7103c1ff 	cmp	w15, #0xf0
   861c0:	54fffbc3 	b.cc	86138 <_ZN4core3fmt9Formatter3pad17h59d95a2e2006fc28E+0x74>  // b.lo, b.ul, b.last
   861c4:	eb0a019f 	cmp	x12, x10
   861c8:	54fffa81 	b.ne	86118 <_ZN4core3fmt9Formatter3pad17h59d95a2e2006fc28E+0x54>  // b.any
   861cc:	2a1f03f1 	mov	w17, wzr
   861d0:	aa0a03ec 	mov	x12, x10
   861d4:	17ffffd3 	b	86120 <_ZN4core3fmt9Formatter3pad17h59d95a2e2006fc28E+0x5c>
   861d8:	aa1403ec 	mov	x12, x20
   861dc:	eb0a019f 	cmp	x12, x10
   861e0:	540003a0 	b.eq	86254 <_ZN4core3fmt9Formatter3pad17h59d95a2e2006fc28E+0x190>  // b.none
   861e4:	aa0c03eb 	mov	x11, x12
   861e8:	38c0156d 	ldrsb	w13, [x11], #1
   861ec:	37f8014d 	tbnz	w13, #31, 86214 <_ZN4core3fmt9Formatter3pad17h59d95a2e2006fc28E+0x150>
   861f0:	b40002a9 	cbz	x9, 86244 <_ZN4core3fmt9Formatter3pad17h59d95a2e2006fc28E+0x180>
   861f4:	eb13013f 	cmp	x9, x19
   861f8:	54000222 	b.cs	8623c <_ZN4core3fmt9Formatter3pad17h59d95a2e2006fc28E+0x178>  // b.hs, b.nlast
   861fc:	38e96a8a 	ldrsb	w10, [x20, x9]
   86200:	3101015f 	cmn	w10, #0x40
   86204:	5400020a 	b.ge	86244 <_ZN4core3fmt9Formatter3pad17h59d95a2e2006fc28E+0x180>  // b.tcont
   86208:	aa1f03ea 	mov	x10, xzr
   8620c:	aa1f03e9 	mov	x9, xzr
   86210:	1400000e 	b	86248 <_ZN4core3fmt9Formatter3pad17h59d95a2e2006fc28E+0x184>
   86214:	eb0a017f 	cmp	x11, x10
   86218:	12001dab 	and	w11, w13, #0xff
   8621c:	54001280 	b.eq	8646c <_ZN4core3fmt9Formatter3pad17h59d95a2e2006fc28E+0x3a8>  // b.none
   86220:	3940058e 	ldrb	w14, [x12, #1]
   86224:	9100098d 	add	x13, x12, #0x2
   86228:	120015cc 	and	w12, w14, #0x3f
   8622c:	531a658c 	lsl	w12, w12, #6
   86230:	7103817f 	cmp	w11, #0xe0
   86234:	54001242 	b.cs	8647c <_ZN4core3fmt9Formatter3pad17h59d95a2e2006fc28E+0x3b8>  // b.hs, b.nlast
   86238:	17ffffee 	b	861f0 <_ZN4core3fmt9Formatter3pad17h59d95a2e2006fc28E+0x12c>
   8623c:	eb13013f 	cmp	x9, x19
   86240:	54fffe41 	b.ne	86208 <_ZN4core3fmt9Formatter3pad17h59d95a2e2006fc28E+0x144>  // b.any
   86244:	aa1403ea 	mov	x10, x20
   86248:	f100015f 	cmp	x10, #0x0
   8624c:	9a8a0294 	csel	x20, x20, x10, eq  // eq = none
   86250:	9a890273 	csel	x19, x19, x9, eq  // eq = none
   86254:	f100051f 	cmp	x8, #0x1
   86258:	540005a1 	b.ne	8630c <_ZN4core3fmt9Formatter3pad17h59d95a2e2006fc28E+0x248>  // b.any
   8625c:	b40000d3 	cbz	x19, 86274 <_ZN4core3fmt9Formatter3pad17h59d95a2e2006fc28E+0x1b0>
   86260:	f100067f 	cmp	x19, #0x1
   86264:	54000101 	b.ne	86284 <_ZN4core3fmt9Formatter3pad17h59d95a2e2006fc28E+0x1c0>  // b.any
   86268:	aa1f03e9 	mov	x9, xzr
   8626c:	aa1403e8 	mov	x8, x20
   86270:	14000018 	b	862d0 <_ZN4core3fmt9Formatter3pad17h59d95a2e2006fc28E+0x20c>
   86274:	f9400408 	ldr	x8, [x0, #8]
   86278:	b40004a8 	cbz	x8, 8630c <_ZN4core3fmt9Formatter3pad17h59d95a2e2006fc28E+0x248>
   8627c:	aa1f03ea 	mov	x10, xzr
   86280:	14000046 	b	86398 <_ZN4core3fmt9Formatter3pad17h59d95a2e2006fc28E+0x2d4>
   86284:	927ffa6b 	and	x11, x19, #0xfffffffffffffffe
   86288:	aa1f03e9 	mov	x9, xzr
   8628c:	aa1f03ea 	mov	x10, xzr
   86290:	8b0b0288 	add	x8, x20, x11
   86294:	9100068c 	add	x12, x20, #0x1
   86298:	aa0b03ed 	mov	x13, x11
   8629c:	385ff18e 	ldurb	w14, [x12, #-1]
   862a0:	3840258f 	ldrb	w15, [x12], #2
   862a4:	121a05ce 	and	w14, w14, #0xc0
   862a8:	121a05ef 	and	w15, w15, #0xc0
   862ac:	710201df 	cmp	w14, #0x80
   862b0:	9a890529 	cinc	x9, x9, ne  // ne = any
   862b4:	710201ff 	cmp	w15, #0x80
   862b8:	9a8a054a 	cinc	x10, x10, ne  // ne = any
   862bc:	f10009ad 	subs	x13, x13, #0x2
   862c0:	54fffee1 	b.ne	8629c <_ZN4core3fmt9Formatter3pad17h59d95a2e2006fc28E+0x1d8>  // b.any
   862c4:	eb0b027f 	cmp	x19, x11
   862c8:	8b090149 	add	x9, x10, x9
   862cc:	54000100 	b.eq	862ec <_ZN4core3fmt9Formatter3pad17h59d95a2e2006fc28E+0x228>  // b.none
   862d0:	8b13028a 	add	x10, x20, x19
   862d4:	3840150b 	ldrb	w11, [x8], #1
   862d8:	121a056b 	and	w11, w11, #0xc0
   862dc:	7102017f 	cmp	w11, #0x80
   862e0:	9a890529 	cinc	x9, x9, ne  // ne = any
   862e4:	eb08015f 	cmp	x10, x8
   862e8:	54ffff61 	b.ne	862d4 <_ZN4core3fmt9Formatter3pad17h59d95a2e2006fc28E+0x210>  // b.any
   862ec:	f9400408 	ldr	x8, [x0, #8]
   862f0:	eb08013f 	cmp	x9, x8
   862f4:	540000c2 	b.cs	8630c <_ZN4core3fmt9Formatter3pad17h59d95a2e2006fc28E+0x248>  // b.hs, b.nlast
   862f8:	f1000a7f 	cmp	x19, #0x2
   862fc:	540001a2 	b.cs	86330 <_ZN4core3fmt9Formatter3pad17h59d95a2e2006fc28E+0x26c>  // b.hs, b.nlast
   86300:	aa1f03ea 	mov	x10, xzr
   86304:	aa1403e9 	mov	x9, x20
   86308:	1400001d 	b	8637c <_ZN4core3fmt9Formatter3pad17h59d95a2e2006fc28E+0x2b8>
   8630c:	a9422000 	ldp	x0, x8, [x0, #32]
   86310:	aa1403e1 	mov	x1, x20
   86314:	aa1303e2 	mov	x2, x19
   86318:	a9434ff4 	ldp	x20, x19, [sp, #48]
   8631c:	f9400d03 	ldr	x3, [x8, #24]
   86320:	a94257f6 	ldp	x22, x21, [sp, #32]
   86324:	a9415ff8 	ldp	x24, x23, [sp, #16]
   86328:	a8c467fe 	ldp	x30, x25, [sp], #64
   8632c:	d61f0060 	br	x3
   86330:	927ffa6c 	and	x12, x19, #0xfffffffffffffffe
   86334:	aa1f03ea 	mov	x10, xzr
   86338:	aa1f03eb 	mov	x11, xzr
   8633c:	8b0c0289 	add	x9, x20, x12
   86340:	9100068d 	add	x13, x20, #0x1
   86344:	aa0c03ee 	mov	x14, x12
   86348:	385ff1af 	ldurb	w15, [x13, #-1]
   8634c:	384025b0 	ldrb	w16, [x13], #2
   86350:	121a05ef 	and	w15, w15, #0xc0
   86354:	121a0610 	and	w16, w16, #0xc0
   86358:	710201ff 	cmp	w15, #0x80
   8635c:	9a8a054a 	cinc	x10, x10, ne  // ne = any
   86360:	7102021f 	cmp	w16, #0x80
   86364:	9a8b056b 	cinc	x11, x11, ne  // ne = any
   86368:	f10009ce 	subs	x14, x14, #0x2
   8636c:	54fffee1 	b.ne	86348 <_ZN4core3fmt9Formatter3pad17h59d95a2e2006fc28E+0x284>  // b.any
   86370:	eb0c027f 	cmp	x19, x12
   86374:	8b0a016a 	add	x10, x11, x10
   86378:	54000100 	b.eq	86398 <_ZN4core3fmt9Formatter3pad17h59d95a2e2006fc28E+0x2d4>  // b.none
   8637c:	8b13028b 	add	x11, x20, x19
   86380:	3840152c 	ldrb	w12, [x9], #1
   86384:	121a058c 	and	w12, w12, #0xc0
   86388:	7102019f 	cmp	w12, #0x80
   8638c:	9a8a054a 	cinc	x10, x10, ne  // ne = any
   86390:	eb09017f 	cmp	x11, x9
   86394:	54ffff61 	b.ne	86380 <_ZN4core3fmt9Formatter3pad17h59d95a2e2006fc28E+0x2bc>  // b.any
   86398:	3940e009 	ldrb	w9, [x0, #56]
   8639c:	cb0a0108 	sub	x8, x8, x10
   863a0:	71000d3f 	cmp	w9, #0x3
   863a4:	1a8903e9 	csel	w9, wzr, w9, eq  // eq = none
   863a8:	72000529 	ands	w9, w9, #0x3
   863ac:	540000a0 	b.eq	863c0 <_ZN4core3fmt9Formatter3pad17h59d95a2e2006fc28E+0x2fc>  // b.none
   863b0:	7100053f 	cmp	w9, #0x1
   863b4:	540000c1 	b.ne	863cc <_ZN4core3fmt9Formatter3pad17h59d95a2e2006fc28E+0x308>  // b.any
   863b8:	aa1f03f8 	mov	x24, xzr
   863bc:	14000007 	b	863d8 <_ZN4core3fmt9Formatter3pad17h59d95a2e2006fc28E+0x314>
   863c0:	aa0803f8 	mov	x24, x8
   863c4:	aa1f03e8 	mov	x8, xzr
   863c8:	14000004 	b	863d8 <_ZN4core3fmt9Formatter3pad17h59d95a2e2006fc28E+0x314>
   863cc:	91000509 	add	x9, x8, #0x1
   863d0:	d341fd08 	lsr	x8, x8, #1
   863d4:	d341fd38 	lsr	x24, x9, #1
   863d8:	a9425c15 	ldp	x21, x23, [x0, #32]
   863dc:	b9403416 	ldr	w22, [x0, #52]
   863e0:	91000519 	add	x25, x8, #0x1
   863e4:	f1000739 	subs	x25, x25, #0x1
   863e8:	540000e0 	b.eq	86404 <_ZN4core3fmt9Formatter3pad17h59d95a2e2006fc28E+0x340>  // b.none
   863ec:	f94012e8 	ldr	x8, [x23, #32]
   863f0:	aa1503e0 	mov	x0, x21
   863f4:	2a1603e1 	mov	w1, w22
   863f8:	d63f0100 	blr	x8
   863fc:	3607ff40 	tbz	w0, #0, 863e4 <_ZN4core3fmt9Formatter3pad17h59d95a2e2006fc28E+0x320>
   86400:	1400000a 	b	86428 <_ZN4core3fmt9Formatter3pad17h59d95a2e2006fc28E+0x364>
   86404:	714442df 	cmp	w22, #0x110, lsl #12
   86408:	9a9803f8 	csel	x24, xzr, x24, eq  // eq = none
   8640c:	540000e0 	b.eq	86428 <_ZN4core3fmt9Formatter3pad17h59d95a2e2006fc28E+0x364>  // b.none
   86410:	f9400ee8 	ldr	x8, [x23, #24]
   86414:	aa1503e0 	mov	x0, x21
   86418:	aa1403e1 	mov	x1, x20
   8641c:	aa1303e2 	mov	x2, x19
   86420:	d63f0100 	blr	x8
   86424:	360000e0 	tbz	w0, #0, 86440 <_ZN4core3fmt9Formatter3pad17h59d95a2e2006fc28E+0x37c>
   86428:	52800020 	mov	w0, #0x1                   	// #1
   8642c:	a9434ff4 	ldp	x20, x19, [sp, #48]
   86430:	a94257f6 	ldp	x22, x21, [sp, #32]
   86434:	a9415ff8 	ldp	x24, x23, [sp, #16]
   86438:	a8c467fe 	ldp	x30, x25, [sp], #64
   8643c:	d65f03c0 	ret
   86440:	aa1f03f3 	mov	x19, xzr
   86444:	eb13031f 	cmp	x24, x19
   86448:	54000280 	b.eq	86498 <_ZN4core3fmt9Formatter3pad17h59d95a2e2006fc28E+0x3d4>  // b.none
   8644c:	f94012e8 	ldr	x8, [x23, #32]
   86450:	aa1503e0 	mov	x0, x21
   86454:	2a1603e1 	mov	w1, w22
   86458:	91000673 	add	x19, x19, #0x1
   8645c:	d63f0100 	blr	x8
   86460:	34ffff20 	cbz	w0, 86444 <_ZN4core3fmt9Formatter3pad17h59d95a2e2006fc28E+0x380>
   86464:	d1000668 	sub	x8, x19, #0x1
   86468:	1400000d 	b	8649c <_ZN4core3fmt9Formatter3pad17h59d95a2e2006fc28E+0x3d8>
   8646c:	2a1f03ec 	mov	w12, wzr
   86470:	aa0a03ed 	mov	x13, x10
   86474:	7103817f 	cmp	w11, #0xe0
   86478:	54ffebc3 	b.cc	861f0 <_ZN4core3fmt9Formatter3pad17h59d95a2e2006fc28E+0x12c>  // b.lo, b.ul, b.last
   8647c:	eb0a01bf 	cmp	x13, x10
   86480:	54000140 	b.eq	864a8 <_ZN4core3fmt9Formatter3pad17h59d95a2e2006fc28E+0x3e4>  // b.none
   86484:	384015ae 	ldrb	w14, [x13], #1
   86488:	120015ce 	and	w14, w14, #0x3f
   8648c:	7103c17f 	cmp	w11, #0xf0
   86490:	54000142 	b.cs	864b8 <_ZN4core3fmt9Formatter3pad17h59d95a2e2006fc28E+0x3f4>  // b.hs, b.nlast
   86494:	17ffff57 	b	861f0 <_ZN4core3fmt9Formatter3pad17h59d95a2e2006fc28E+0x12c>
   86498:	aa1803e8 	mov	x8, x24
   8649c:	eb18011f 	cmp	x8, x24
   864a0:	1a9f27e0 	cset	w0, cc  // cc = lo, ul, last
   864a4:	17ffffe2 	b	8642c <_ZN4core3fmt9Formatter3pad17h59d95a2e2006fc28E+0x368>
   864a8:	2a1f03ee 	mov	w14, wzr
   864ac:	aa0a03ed 	mov	x13, x10
   864b0:	7103c17f 	cmp	w11, #0xf0
   864b4:	54ffe9e3 	b.cc	861f0 <_ZN4core3fmt9Formatter3pad17h59d95a2e2006fc28E+0x12c>  // b.lo, b.ul, b.last
   864b8:	eb0a01bf 	cmp	x13, x10
   864bc:	2a0c01ca 	orr	w10, w14, w12
   864c0:	54000080 	b.eq	864d0 <_ZN4core3fmt9Formatter3pad17h59d95a2e2006fc28E+0x40c>  // b.none
   864c4:	394001ac 	ldrb	w12, [x13]
   864c8:	1200158c 	and	w12, w12, #0x3f
   864cc:	14000002 	b	864d4 <_ZN4core3fmt9Formatter3pad17h59d95a2e2006fc28E+0x410>
   864d0:	2a1f03ec 	mov	w12, wzr
   864d4:	530e096b 	ubfiz	w11, w11, #18, #3
   864d8:	331a2d4b 	bfi	w11, w10, #6, #12
   864dc:	2a0c016a 	orr	w10, w11, w12
   864e0:	7144415f 	cmp	w10, #0x110, lsl #12
   864e4:	54ffeb80 	b.eq	86254 <_ZN4core3fmt9Formatter3pad17h59d95a2e2006fc28E+0x190>  // b.none
   864e8:	17ffff42 	b	861f0 <_ZN4core3fmt9Formatter3pad17h59d95a2e2006fc28E+0x12c>

00000000000864ec <_ZN4core3fmt9Formatter15debug_lower_hex17he895c92ce3e1e3eeE>:
   864ec:	3940c008 	ldrb	w8, [x0, #48]
   864f0:	53041100 	ubfx	w0, w8, #4, #1
   864f4:	d65f03c0 	ret

00000000000864f8 <_ZN4core3fmt9Formatter15debug_upper_hex17h9a3cde1d80970c0eE>:
   864f8:	3940c008 	ldrb	w8, [x0, #48]
   864fc:	53051500 	ubfx	w0, w8, #5, #1
   86500:	d65f03c0 	ret

0000000000086504 <_ZN4core3fmt9Formatter12debug_struct17ha099bc2c3542888fE>:
   86504:	a9bf4ffe 	stp	x30, x19, [sp, #-16]!
   86508:	aa0003f3 	mov	x19, x0
   8650c:	a9422000 	ldp	x0, x8, [x0, #32]
   86510:	f9400d08 	ldr	x8, [x8, #24]
   86514:	d63f0100 	blr	x8
   86518:	7100001f 	cmp	w0, #0x0
   8651c:	9a9f07e1 	cset	x1, ne  // ne = any
   86520:	aa1303e0 	mov	x0, x19
   86524:	a8c14ffe 	ldp	x30, x19, [sp], #16
   86528:	d65f03c0 	ret

000000000008652c <_ZN4core3fmt9Formatter11debug_tuple17h13fb0cff51b5c17aE>:
   8652c:	a9be57fe 	stp	x30, x21, [sp, #-32]!
   86530:	a9014ff4 	stp	x20, x19, [sp, #16]
   86534:	aa0003f4 	mov	x20, x0
   86538:	a9422400 	ldp	x0, x9, [x0, #32]
   8653c:	aa0203f3 	mov	x19, x2
   86540:	aa0803f5 	mov	x21, x8
   86544:	f9400d29 	ldr	x9, [x9, #24]
   86548:	d63f0120 	blr	x9
   8654c:	f100027f 	cmp	x19, #0x0
   86550:	a9007eb4 	stp	x20, xzr, [x21]
   86554:	a9414ff4 	ldp	x20, x19, [sp, #16]
   86558:	1a9f17e8 	cset	w8, eq  // eq = none
   8655c:	390042a0 	strb	w0, [x21, #16]
   86560:	390046a8 	strb	w8, [x21, #17]
   86564:	a8c257fe 	ldp	x30, x21, [sp], #32
   86568:	d65f03c0 	ret

000000000008656c <_ZN42_$LT$str$u20$as$u20$core..fmt..Display$GT$3fmt17h5f2a536c1cace94aE>:
   8656c:	aa0103e8 	mov	x8, x1
   86570:	aa0003e1 	mov	x1, x0
   86574:	aa0203e0 	mov	x0, x2
   86578:	aa0803e2 	mov	x2, x8
   8657c:	17fffed2 	b	860c4 <_ZN4core3fmt9Formatter3pad17h59d95a2e2006fc28E>

0000000000086580 <_ZN41_$LT$char$u20$as$u20$core..fmt..Debug$GT$3fmt17haddc4d8efb0bbfd5E>:
   86580:	d10183ff 	sub	sp, sp, #0x60
   86584:	a9054ff4 	stp	x20, x19, [sp, #80]
   86588:	a9422033 	ldp	x19, x8, [x1, #32]
   8658c:	aa0003f4 	mov	x20, x0
   86590:	528004e1 	mov	w1, #0x27                  	// #39
   86594:	a9016ffe 	stp	x30, x27, [sp, #16]
   86598:	f9401102 	ldr	x2, [x8, #32]
   8659c:	aa1303e0 	mov	x0, x19
   865a0:	a90267fa 	stp	x26, x25, [sp, #32]
   865a4:	a9035ff8 	stp	x24, x23, [sp, #48]
   865a8:	a90457f6 	stp	x22, x21, [sp, #64]
   865ac:	f90007e2 	str	x2, [sp, #8]
   865b0:	d63f0040 	blr	x2
   865b4:	36000120 	tbz	w0, #0, 865d8 <_ZN41_$LT$char$u20$as$u20$core..fmt..Debug$GT$3fmt17haddc4d8efb0bbfd5E+0x58>
   865b8:	a9454ff4 	ldp	x20, x19, [sp, #80]
   865bc:	a94457f6 	ldp	x22, x21, [sp, #64]
   865c0:	a9435ff8 	ldp	x24, x23, [sp, #48]
   865c4:	a94267fa 	ldp	x26, x25, [sp, #32]
   865c8:	a9416ffe 	ldp	x30, x27, [sp, #16]
   865cc:	52800020 	mov	w0, #0x1                   	// #1
   865d0:	910183ff 	add	sp, sp, #0x60
   865d4:	d65f03c0 	ret
   865d8:	b9400294 	ldr	w20, [x20]
   865dc:	51002688 	sub	w8, w20, #0x9
   865e0:	7100791f 	cmp	w8, #0x1e
   865e4:	54000188 	b.hi	86614 <_ZN41_$LT$char$u20$as$u20$core..fmt..Debug$GT$3fmt17haddc4d8efb0bbfd5E+0x94>  // b.pmore
   865e8:	d0000009 	adrp	x9, 88000 <anon.57ef2e3c02ffeaf529e6c598bd0b036c.16.llvm.5445877691761700591+0x10e>
   865ec:	91294129 	add	x9, x9, #0xa50
   865f0:	100000ca 	adr	x10, 86608 <_ZN41_$LT$char$u20$as$u20$core..fmt..Debug$GT$3fmt17haddc4d8efb0bbfd5E+0x88>
   865f4:	3868692b 	ldrb	w11, [x9, x8]
   865f8:	8b0b094a 	add	x10, x10, x11, lsl #2
   865fc:	52800e95 	mov	w21, #0x74                  	// #116
   86600:	52800057 	mov	w23, #0x2                   	// #2
   86604:	d61f0140 	br	x10
   86608:	52800dd5 	mov	w21, #0x6e                  	// #110
   8660c:	52800057 	mov	w23, #0x2                   	// #2
   86610:	1400005c 	b	86780 <_ZN41_$LT$char$u20$as$u20$core..fmt..Debug$GT$3fmt17haddc4d8efb0bbfd5E+0x200>
   86614:	7101729f 	cmp	w20, #0x5c
   86618:	54000081 	b.ne	86628 <_ZN41_$LT$char$u20$as$u20$core..fmt..Debug$GT$3fmt17haddc4d8efb0bbfd5E+0xa8>  // b.any
   8661c:	52800057 	mov	w23, #0x2                   	// #2
   86620:	2a1403f5 	mov	w21, w20
   86624:	14000057 	b	86780 <_ZN41_$LT$char$u20$as$u20$core..fmt..Debug$GT$3fmt17haddc4d8efb0bbfd5E+0x200>
   86628:	2a1403e0 	mov	w0, w20
   8662c:	97fffccc 	bl	8595c <_ZN4core7unicode12unicode_data15grapheme_extend6lookup17h9125850df650cd1dE>
   86630:	37000980 	tbnz	w0, #0, 86760 <_ZN41_$LT$char$u20$as$u20$core..fmt..Debug$GT$3fmt17haddc4d8efb0bbfd5E+0x1e0>
   86634:	7140429f 	cmp	w20, #0x10, lsl #12
   86638:	54000222 	b.cs	8667c <_ZN41_$LT$char$u20$as$u20$core..fmt..Debug$GT$3fmt17haddc4d8efb0bbfd5E+0xfc>  // b.hs, b.nlast
   8663c:	b0000001 	adrp	x1, 87000 <anon.18d3f1f317091c7eeaf7c365eb201f34.15.llvm.3855770260100345529+0x38>
   86640:	b0000003 	adrp	x3, 87000 <anon.18d3f1f317091c7eeaf7c365eb201f34.15.llvm.3855770260100345529+0x38>
   86644:	d0000005 	adrp	x5, 88000 <anon.57ef2e3c02ffeaf529e6c598bd0b036c.16.llvm.5445877691761700591+0x10e>
   86648:	913a8021 	add	x1, x1, #0xea0
   8664c:	913bc863 	add	x3, x3, #0xef2
   86650:	910050a5 	add	x5, x5, #0x14
   86654:	52800522 	mov	w2, #0x29                  	// #41
   86658:	52802444 	mov	w4, #0x122                 	// #290
   8665c:	528026a6 	mov	w6, #0x135                 	// #309
   86660:	2a1403e0 	mov	w0, w20
   86664:	97fffa54 	bl	84fb4 <_ZN4core7unicode9printable5check17h3df87d4e8e554ccdE.llvm.5445877691761700591>
   86668:	37000760 	tbnz	w0, #0, 86754 <_ZN41_$LT$char$u20$as$u20$core..fmt..Debug$GT$3fmt17haddc4d8efb0bbfd5E+0x1d4>
   8666c:	1400003d 	b	86760 <_ZN41_$LT$char$u20$as$u20$core..fmt..Debug$GT$3fmt17haddc4d8efb0bbfd5E+0x1e0>
   86670:	52800e55 	mov	w21, #0x72                  	// #114
   86674:	52800057 	mov	w23, #0x2                   	// #2
   86678:	14000042 	b	86780 <_ZN41_$LT$char$u20$as$u20$core..fmt..Debug$GT$3fmt17haddc4d8efb0bbfd5E+0x200>
   8667c:	7140829f 	cmp	w20, #0x20, lsl #12
   86680:	540001c2 	b.cs	866b8 <_ZN41_$LT$char$u20$as$u20$core..fmt..Debug$GT$3fmt17haddc4d8efb0bbfd5E+0x138>  // b.hs, b.nlast
   86684:	d0000001 	adrp	x1, 88000 <anon.57ef2e3c02ffeaf529e6c598bd0b036c.16.llvm.5445877691761700591+0x10e>
   86688:	d0000003 	adrp	x3, 88000 <anon.57ef2e3c02ffeaf529e6c598bd0b036c.16.llvm.5445877691761700591+0x10e>
   8668c:	d0000005 	adrp	x5, 88000 <anon.57ef2e3c02ffeaf529e6c598bd0b036c.16.llvm.5445877691761700591+0x10e>
   86690:	91052421 	add	x1, x1, #0x149
   86694:	91065463 	add	x3, x3, #0x195
   86698:	910910a5 	add	x5, x5, #0x244
   8669c:	528004c2 	mov	w2, #0x26                  	// #38
   866a0:	528015e4 	mov	w4, #0xaf                  	// #175
   866a4:	52803466 	mov	w6, #0x1a3                 	// #419
   866a8:	2a1403e0 	mov	w0, w20
   866ac:	97fffa42 	bl	84fb4 <_ZN4core7unicode9printable5check17h3df87d4e8e554ccdE.llvm.5445877691761700591>
   866b0:	37000520 	tbnz	w0, #0, 86754 <_ZN41_$LT$char$u20$as$u20$core..fmt..Debug$GT$3fmt17haddc4d8efb0bbfd5E+0x1d4>
   866b4:	1400002b 	b	86760 <_ZN41_$LT$char$u20$as$u20$core..fmt..Debug$GT$3fmt17haddc4d8efb0bbfd5E+0x1e0>
   866b8:	52803de8 	mov	w8, #0x1ef                 	// #495
   866bc:	72a001c8 	movk	w8, #0xe, lsl #16
   866c0:	6b08029f 	cmp	w20, w8
   866c4:	540004e8 	b.hi	86760 <_ZN41_$LT$char$u20$as$u20$core..fmt..Debug$GT$3fmt17haddc4d8efb0bbfd5E+0x1e0>  // b.pmore
   866c8:	529d96a8 	mov	w8, #0xecb5                	// #60597
   866cc:	72bfff88 	movk	w8, #0xfffc, lsl #16
   866d0:	529db6a9 	mov	w9, #0xedb5                	// #60853
   866d4:	0b080288 	add	w8, w20, w8
   866d8:	72a00149 	movk	w9, #0xa, lsl #16
   866dc:	6b09011f 	cmp	w8, w9
   866e0:	54000403 	b.cc	86760 <_ZN41_$LT$char$u20$as$u20$core..fmt..Debug$GT$3fmt17haddc4d8efb0bbfd5E+0x1e0>  // b.lo, b.ul, b.last
   866e4:	5280bc48 	mov	w8, #0x5e2                 	// #1506
   866e8:	72bfffa8 	movk	w8, #0xfffd, lsl #16
   866ec:	0b080288 	add	w8, w20, w8
   866f0:	7117891f 	cmp	w8, #0x5e2
   866f4:	54000363 	b.cc	86760 <_ZN41_$LT$char$u20$as$u20$core..fmt..Debug$GT$3fmt17haddc4d8efb0bbfd5E+0x1e0>  // b.lo, b.ul, b.last
   866f8:	1138f508 	add	w8, w8, #0xe3d
   866fc:	71307d1f 	cmp	w8, #0xc1f
   86700:	54000303 	b.cc	86760 <_ZN41_$LT$char$u20$as$u20$core..fmt..Debug$GT$3fmt17haddc4d8efb0bbfd5E+0x1e0>  // b.lo, b.ul, b.last
   86704:	52862bc8 	mov	w8, #0x315e                	// #12638
   86708:	72bfffa8 	movk	w8, #0xfffd, lsl #16
   8670c:	0b080288 	add	w8, w20, w8
   86710:	7100391f 	cmp	w8, #0xe
   86714:	54000263 	b.cc	86760 <_ZN41_$LT$char$u20$as$u20$core..fmt..Debug$GT$3fmt17haddc4d8efb0bbfd5E+0x1e0>  // b.lo, b.ul, b.last
   86718:	529703c9 	mov	w9, #0xb81e                	// #47134
   8671c:	121f4e88 	and	w8, w20, #0x1ffffe
   86720:	72a00049 	movk	w9, #0x2, lsl #16
   86724:	6b09011f 	cmp	w8, w9
   86728:	540001c0 	b.eq	86760 <_ZN41_$LT$char$u20$as$u20$core..fmt..Debug$GT$3fmt17haddc4d8efb0bbfd5E+0x1e0>  // b.none
   8672c:	528b2448 	mov	w8, #0x5922                	// #22818
   86730:	72bfffa8 	movk	w8, #0xfffd, lsl #16
   86734:	0b080288 	add	w8, w20, w8
   86738:	7100891f 	cmp	w8, #0x22
   8673c:	54000123 	b.cc	86760 <_ZN41_$LT$char$u20$as$u20$core..fmt..Debug$GT$3fmt17haddc4d8efb0bbfd5E+0x1e0>  // b.lo, b.ul, b.last
   86740:	52891968 	mov	w8, #0x48cb                	// #18635
   86744:	72bfffa8 	movk	w8, #0xfffd, lsl #16
   86748:	0b080288 	add	w8, w20, w8
   8674c:	71002d1f 	cmp	w8, #0xb
   86750:	54000083 	b.cc	86760 <_ZN41_$LT$char$u20$as$u20$core..fmt..Debug$GT$3fmt17haddc4d8efb0bbfd5E+0x1e0>  // b.lo, b.ul, b.last
   86754:	52800037 	mov	w23, #0x1                   	// #1
   86758:	2a1403f5 	mov	w21, w20
   8675c:	14000009 	b	86780 <_ZN41_$LT$char$u20$as$u20$core..fmt..Debug$GT$3fmt17haddc4d8efb0bbfd5E+0x200>
   86760:	32000288 	orr	w8, w20, #0x1
   86764:	5ac01108 	clz	w8, w8
   86768:	2a1403e9 	mov	w9, w20
   8676c:	d2c000aa 	mov	x10, #0x500000000           	// #21474836480
   86770:	53027d08 	lsr	w8, w8, #2
   86774:	aa0a0138 	orr	x24, x9, x10
   86778:	52000916 	eor	w22, w8, #0x7
   8677c:	52800077 	mov	w23, #0x3                   	// #3
   86780:	d0000014 	adrp	x20, 88000 <anon.57ef2e3c02ffeaf529e6c598bd0b036c.16.llvm.5445877691761700591+0x10e>
   86784:	d0000019 	adrp	x25, 88000 <anon.57ef2e3c02ffeaf529e6c598bd0b036c.16.llvm.5445877691761700591+0x10e>
   86788:	9129be94 	add	x20, x20, #0xa6f
   8678c:	9129cf39 	add	x25, x25, #0xa73
   86790:	52800afa 	mov	w26, #0x57                  	// #87
   86794:	5280061b 	mov	w27, #0x30                  	// #48
   86798:	14000007 	b	867b4 <_ZN41_$LT$char$u20$as$u20$core..fmt..Debug$GT$3fmt17haddc4d8efb0bbfd5E+0x234>
   8679c:	2a1f03f7 	mov	w23, wzr
   867a0:	2a1503e1 	mov	w1, w21
   867a4:	f94007e2 	ldr	x2, [sp, #8]
   867a8:	aa1303e0 	mov	x0, x19
   867ac:	d63f0040 	blr	x2
   867b0:	3707f040 	tbnz	w0, #0, 865b8 <_ZN41_$LT$char$u20$as$u20$core..fmt..Debug$GT$3fmt17haddc4d8efb0bbfd5E+0x38>
   867b4:	2a1703e8 	mov	w8, w23
   867b8:	10ffff29 	adr	x9, 8679c <_ZN41_$LT$char$u20$as$u20$core..fmt..Debug$GT$3fmt17haddc4d8efb0bbfd5E+0x21c>
   867bc:	38686a8a 	ldrb	w10, [x20, x8]
   867c0:	8b0a0929 	add	x9, x9, x10, lsl #2
   867c4:	52800037 	mov	w23, #0x1                   	// #1
   867c8:	52800b81 	mov	w1, #0x5c                  	// #92
   867cc:	d61f0120 	br	x9
   867d0:	d3609f08 	ubfx	x8, x24, #32, #8
   867d4:	10000089 	adr	x9, 867e4 <_ZN41_$LT$char$u20$as$u20$core..fmt..Debug$GT$3fmt17haddc4d8efb0bbfd5E+0x264>
   867d8:	38686b2a 	ldrb	w10, [x25, x8]
   867dc:	8b0a0929 	add	x9, x9, x10, lsl #2
   867e0:	d61f0120 	br	x9
   867e4:	9258df18 	and	x24, x24, #0xffffff00ffffffff
   867e8:	52800077 	mov	w23, #0x3                   	// #3
   867ec:	52800fa1 	mov	w1, #0x7d                  	// #125
   867f0:	17ffffed 	b	867a4 <_ZN41_$LT$char$u20$as$u20$core..fmt..Debug$GT$3fmt17haddc4d8efb0bbfd5E+0x224>
   867f4:	531e0ac8 	ubfiz	w8, w22, #2, #3
   867f8:	1ac82708 	lsr	w8, w24, w8
   867fc:	12000d08 	and	w8, w8, #0xf
   86800:	7100291f 	cmp	w8, #0xa
   86804:	1a9a3369 	csel	w9, w27, w26, cc  // cc = lo, ul, last
   86808:	0b080121 	add	w1, w9, w8
   8680c:	b4000276 	cbz	x22, 86858 <_ZN41_$LT$char$u20$as$u20$core..fmt..Debug$GT$3fmt17haddc4d8efb0bbfd5E+0x2d8>
   86810:	d10006d6 	sub	x22, x22, #0x1
   86814:	52800077 	mov	w23, #0x3                   	// #3
   86818:	17ffffe3 	b	867a4 <_ZN41_$LT$char$u20$as$u20$core..fmt..Debug$GT$3fmt17haddc4d8efb0bbfd5E+0x224>
   8681c:	9258df08 	and	x8, x24, #0xffffff00ffffffff
   86820:	52800077 	mov	w23, #0x3                   	// #3
   86824:	b25f0118 	orr	x24, x8, #0x200000000
   86828:	52800f61 	mov	w1, #0x7b                  	// #123
   8682c:	17ffffde 	b	867a4 <_ZN41_$LT$char$u20$as$u20$core..fmt..Debug$GT$3fmt17haddc4d8efb0bbfd5E+0x224>
   86830:	9258df08 	and	x8, x24, #0xffffff00ffffffff
   86834:	52800077 	mov	w23, #0x3                   	// #3
   86838:	b2600518 	orr	x24, x8, #0x300000000
   8683c:	52800ea1 	mov	w1, #0x75                  	// #117
   86840:	17ffffd9 	b	867a4 <_ZN41_$LT$char$u20$as$u20$core..fmt..Debug$GT$3fmt17haddc4d8efb0bbfd5E+0x224>
   86844:	9258df08 	and	x8, x24, #0xffffff00ffffffff
   86848:	52800077 	mov	w23, #0x3                   	// #3
   8684c:	b25e0118 	orr	x24, x8, #0x400000000
   86850:	52800b81 	mov	w1, #0x5c                  	// #92
   86854:	17ffffd4 	b	867a4 <_ZN41_$LT$char$u20$as$u20$core..fmt..Debug$GT$3fmt17haddc4d8efb0bbfd5E+0x224>
   86858:	9258df08 	and	x8, x24, #0xffffff00ffffffff
   8685c:	b2600118 	orr	x24, x8, #0x100000000
   86860:	52800077 	mov	w23, #0x3                   	// #3
   86864:	17ffffd0 	b	867a4 <_ZN41_$LT$char$u20$as$u20$core..fmt..Debug$GT$3fmt17haddc4d8efb0bbfd5E+0x224>
   86868:	aa1303e0 	mov	x0, x19
   8686c:	f94007e2 	ldr	x2, [sp, #8]
   86870:	a9454ff4 	ldp	x20, x19, [sp, #80]
   86874:	a94457f6 	ldp	x22, x21, [sp, #64]
   86878:	a9435ff8 	ldp	x24, x23, [sp, #48]
   8687c:	a94267fa 	ldp	x26, x25, [sp, #32]
   86880:	a9416ffe 	ldp	x30, x27, [sp, #16]
   86884:	528004e1 	mov	w1, #0x27                  	// #39
   86888:	910183ff 	add	sp, sp, #0x60
   8688c:	d61f0040 	br	x2

0000000000086890 <_ZN42_$LT$$RF$T$u20$as$u20$core..fmt..Debug$GT$3fmt17h2ac745672fd40ad8E>:
   86890:	d10243ff 	sub	sp, sp, #0x90
   86894:	b9403029 	ldr	w9, [x1, #48]
   86898:	f940000a 	ldr	x10, [x0]
   8689c:	aa0103e8 	mov	x8, x1
   868a0:	f90043fe 	str	x30, [sp, #128]
   868a4:	372005c9 	tbnz	w9, #4, 8695c <_ZN42_$LT$$RF$T$u20$as$u20$core..fmt..Debug$GT$3fmt17h2ac745672fd40ad8E+0xcc>
   868a8:	372807a9 	tbnz	w9, #5, 8699c <_ZN42_$LT$$RF$T$u20$as$u20$core..fmt..Debug$GT$3fmt17h2ac745672fd40ad8E+0x10c>
   868ac:	f9400149 	ldr	x9, [x10]
   868b0:	d344fd2a 	lsr	x10, x9, #4
   868b4:	f109c55f 	cmp	x10, #0x271
   868b8:	54000b03 	b.cc	86a18 <_ZN42_$LT$$RF$T$u20$as$u20$core..fmt..Debug$GT$3fmt17h2ac745672fd40ad8E+0x188>  // b.lo, b.ul, b.last
   868bc:	d28b296b 	mov	x11, #0x594b                	// #22859
   868c0:	f2a710cb 	movk	x11, #0x3886, lsl #16
   868c4:	f2d8bacb 	movk	x11, #0xc5d6, lsl #32
   868c8:	5290a3ed 	mov	w13, #0x851f                	// #34079
   868cc:	b000000f 	adrp	x15, 87000 <anon.18d3f1f317091c7eeaf7c365eb201f34.15.llvm.3855770260100345529+0x38>
   868d0:	529c1ff1 	mov	w17, #0xe0ff                	// #57599
   868d4:	aa1f03ea 	mov	x10, xzr
   868d8:	f2e68dab 	movk	x11, #0x346d, lsl #48
   868dc:	5284e20c 	mov	w12, #0x2710                	// #10000
   868e0:	72aa3d6d 	movk	w13, #0x51eb, lsl #16
   868e4:	52800c8e 	mov	w14, #0x64                  	// #100
   868e8:	912849ef 	add	x15, x15, #0xa12
   868ec:	910003f0 	mov	x16, sp
   868f0:	72a0beb1 	movk	w17, #0x5f5, lsl #16
   868f4:	aa0903f2 	mov	x18, x9
   868f8:	9bcb7d29 	umulh	x9, x9, x11
   868fc:	d34bfd29 	lsr	x9, x9, #11
   86900:	eb11025f 	cmp	x18, x17
   86904:	1b0cc932 	msub	w18, w9, w12, w18
   86908:	12003e41 	and	w1, w18, #0xffff
   8690c:	9bad7c21 	umull	x1, w1, w13
   86910:	d365fc21 	lsr	x1, x1, #37
   86914:	1b0ec832 	msub	w18, w1, w14, w18
   86918:	8b0105e1 	add	x1, x15, x1, lsl #1
   8691c:	8b3225f2 	add	x18, x15, w18, uxth #1
   86920:	39400022 	ldrb	w2, [x1]
   86924:	39400421 	ldrb	w1, [x1, #1]
   86928:	39400643 	ldrb	w3, [x18, #1]
   8692c:	39400252 	ldrb	w18, [x18]
   86930:	8b0a0200 	add	x0, x16, x10
   86934:	d100114a 	sub	x10, x10, #0x4
   86938:	39009001 	strb	w1, [x0, #36]
   8693c:	39008c02 	strb	w2, [x0, #35]
   86940:	39009803 	strb	w3, [x0, #38]
   86944:	39009412 	strb	w18, [x0, #37]
   86948:	54fffd68 	b.hi	868f4 <_ZN42_$LT$$RF$T$u20$as$u20$core..fmt..Debug$GT$3fmt17h2ac745672fd40ad8E+0x64>  // b.pmore
   8694c:	91009d4a 	add	x10, x10, #0x27
   86950:	f1018d3f 	cmp	x9, #0x63
   86954:	5400068c 	b.gt	86a24 <_ZN42_$LT$$RF$T$u20$as$u20$core..fmt..Debug$GT$3fmt17h2ac745672fd40ad8E+0x194>
   86958:	14000045 	b	86a6c <_ZN42_$LT$$RF$T$u20$as$u20$core..fmt..Debug$GT$3fmt17h2ac745672fd40ad8E+0x1dc>
   8695c:	f940014b 	ldr	x11, [x10]
   86960:	aa1f03e9 	mov	x9, xzr
   86964:	910003ea 	mov	x10, sp
   86968:	12000d6e 	and	w14, w11, #0xf
   8696c:	5280060f 	mov	w15, #0x30                  	// #48
   86970:	d344fd6d 	lsr	x13, x11, #4
   86974:	33000d6f 	bfxil	w15, w11, #0, #4
   86978:	11015dcb 	add	w11, w14, #0x57
   8697c:	710029df 	cmp	w14, #0xa
   86980:	8b09014c 	add	x12, x10, x9
   86984:	1a8b31eb 	csel	w11, w15, w11, cc  // cc = lo, ul, last
   86988:	3901fd8b 	strb	w11, [x12, #127]
   8698c:	d1000529 	sub	x9, x9, #0x1
   86990:	aa0d03eb 	mov	x11, x13
   86994:	b5fffead 	cbnz	x13, 86968 <_ZN42_$LT$$RF$T$u20$as$u20$core..fmt..Debug$GT$3fmt17h2ac745672fd40ad8E+0xd8>
   86998:	14000010 	b	869d8 <_ZN42_$LT$$RF$T$u20$as$u20$core..fmt..Debug$GT$3fmt17h2ac745672fd40ad8E+0x148>
   8699c:	f940014b 	ldr	x11, [x10]
   869a0:	aa1f03e9 	mov	x9, xzr
   869a4:	910003ea 	mov	x10, sp
   869a8:	12000d6e 	and	w14, w11, #0xf
   869ac:	5280060f 	mov	w15, #0x30                  	// #48
   869b0:	d344fd6d 	lsr	x13, x11, #4
   869b4:	33000d6f 	bfxil	w15, w11, #0, #4
   869b8:	1100ddcb 	add	w11, w14, #0x37
   869bc:	710029df 	cmp	w14, #0xa
   869c0:	8b09014c 	add	x12, x10, x9
   869c4:	1a8b31eb 	csel	w11, w15, w11, cc  // cc = lo, ul, last
   869c8:	3901fd8b 	strb	w11, [x12, #127]
   869cc:	d1000529 	sub	x9, x9, #0x1
   869d0:	aa0d03eb 	mov	x11, x13
   869d4:	b5fffead 	cbnz	x13, 869a8 <_ZN42_$LT$$RF$T$u20$as$u20$core..fmt..Debug$GT$3fmt17h2ac745672fd40ad8E+0x118>
   869d8:	91020120 	add	x0, x9, #0x80
   869dc:	f102041f 	cmp	x0, #0x81
   869e0:	54000822 	b.cs	86ae4 <_ZN42_$LT$$RF$T$u20$as$u20$core..fmt..Debug$GT$3fmt17h2ac745672fd40ad8E+0x254>  // b.hs, b.nlast
   869e4:	910003ea 	mov	x10, sp
   869e8:	cb0903e5 	neg	x5, x9
   869ec:	8b090149 	add	x9, x10, x9
   869f0:	b0000002 	adrp	x2, 87000 <anon.18d3f1f317091c7eeaf7c365eb201f34.15.llvm.3855770260100345529+0x38>
   869f4:	91020124 	add	x4, x9, #0x80
   869f8:	91284042 	add	x2, x2, #0xa10
   869fc:	52800021 	mov	w1, #0x1                   	// #1
   86a00:	52800043 	mov	w3, #0x2                   	// #2
   86a04:	aa0803e0 	mov	x0, x8
   86a08:	97fffcba 	bl	85cf0 <_ZN4core3fmt9Formatter12pad_integral17hd76664d265795836E>
   86a0c:	f94043fe 	ldr	x30, [sp, #128]
   86a10:	910243ff 	add	sp, sp, #0x90
   86a14:	d65f03c0 	ret
   86a18:	528004ea 	mov	w10, #0x27                  	// #39
   86a1c:	f1018d3f 	cmp	x9, #0x63
   86a20:	5400026d 	b.le	86a6c <_ZN42_$LT$$RF$T$u20$as$u20$core..fmt..Debug$GT$3fmt17h2ac745672fd40ad8E+0x1dc>
   86a24:	5290a3ec 	mov	w12, #0x851f                	// #34079
   86a28:	12003d2b 	and	w11, w9, #0xffff
   86a2c:	72aa3d6c 	movk	w12, #0x51eb, lsl #16
   86a30:	9bac7d6b 	umull	x11, w11, w12
   86a34:	52800c8d 	mov	w13, #0x64                  	// #100
   86a38:	b000000c 	adrp	x12, 87000 <anon.18d3f1f317091c7eeaf7c365eb201f34.15.llvm.3855770260100345529+0x38>
   86a3c:	d365fd6b 	lsr	x11, x11, #37
   86a40:	9128498c 	add	x12, x12, #0xa12
   86a44:	1b0da569 	msub	w9, w11, w13, w9
   86a48:	8b292589 	add	x9, x12, w9, uxth #1
   86a4c:	3940052c 	ldrb	w12, [x9, #1]
   86a50:	39400129 	ldrb	w9, [x9]
   86a54:	d100094a 	sub	x10, x10, #0x2
   86a58:	910003ed 	mov	x13, sp
   86a5c:	8b0a01ad 	add	x13, x13, x10
   86a60:	390001a9 	strb	w9, [x13]
   86a64:	aa0b03e9 	mov	x9, x11
   86a68:	390005ac 	strb	w12, [x13, #1]
   86a6c:	f100293f 	cmp	x9, #0xa
   86a70:	540000ca 	b.ge	86a88 <_ZN42_$LT$$RF$T$u20$as$u20$core..fmt..Debug$GT$3fmt17h2ac745672fd40ad8E+0x1f8>  // b.tcont
   86a74:	d100054a 	sub	x10, x10, #0x1
   86a78:	1100c129 	add	w9, w9, #0x30
   86a7c:	910003eb 	mov	x11, sp
   86a80:	382a6969 	strb	w9, [x11, x10]
   86a84:	1400000b 	b	86ab0 <_ZN42_$LT$$RF$T$u20$as$u20$core..fmt..Debug$GT$3fmt17h2ac745672fd40ad8E+0x220>
   86a88:	b000000b 	adrp	x11, 87000 <anon.18d3f1f317091c7eeaf7c365eb201f34.15.llvm.3855770260100345529+0x38>
   86a8c:	9128496b 	add	x11, x11, #0xa12
   86a90:	8b090569 	add	x9, x11, x9, lsl #1
   86a94:	3940052b 	ldrb	w11, [x9, #1]
   86a98:	39400129 	ldrb	w9, [x9]
   86a9c:	d100094a 	sub	x10, x10, #0x2
   86aa0:	910003ec 	mov	x12, sp
   86aa4:	8b0a018c 	add	x12, x12, x10
   86aa8:	3900058b 	strb	w11, [x12, #1]
   86aac:	39000189 	strb	w9, [x12]
   86ab0:	910003e9 	mov	x9, sp
   86ab4:	528004eb 	mov	w11, #0x27                  	// #39
   86ab8:	b0000002 	adrp	x2, 87000 <anon.18d3f1f317091c7eeaf7c365eb201f34.15.llvm.3855770260100345529+0x38>
   86abc:	8b0a0124 	add	x4, x9, x10
   86ac0:	cb0a0165 	sub	x5, x11, x10
   86ac4:	91370042 	add	x2, x2, #0xdc0
   86ac8:	52800021 	mov	w1, #0x1                   	// #1
   86acc:	aa0803e0 	mov	x0, x8
   86ad0:	aa1f03e3 	mov	x3, xzr
   86ad4:	97fffc87 	bl	85cf0 <_ZN4core3fmt9Formatter12pad_integral17hd76664d265795836E>
   86ad8:	f94043fe 	ldr	x30, [sp, #128]
   86adc:	910243ff 	add	sp, sp, #0x90
   86ae0:	d65f03c0 	ret
   86ae4:	b0000002 	adrp	x2, 87000 <anon.18d3f1f317091c7eeaf7c365eb201f34.15.llvm.3855770260100345529+0x38>
   86ae8:	9127e042 	add	x2, x2, #0x9f8
   86aec:	52801001 	mov	w1, #0x80                  	// #128
   86af0:	97fff7a2 	bl	84978 <_ZN4core5slice5index26slice_start_index_len_fail17h92d701fb2ff102e6E>
   86af4:	d4200020 	brk	#0x1

0000000000086af8 <_ZN42_$LT$$RF$T$u20$as$u20$core..fmt..Debug$GT$3fmt17hf8d96556af33d64dE>:
   86af8:	a9402000 	ldp	x0, x8, [x0]
   86afc:	f9400d02 	ldr	x2, [x8, #24]
   86b00:	d61f0040 	br	x2

0000000000086b04 <_ZN44_$LT$$RF$T$u20$as$u20$core..fmt..Display$GT$3fmt17hea010d7adc6701a8E>:
   86b04:	a9400808 	ldp	x8, x2, [x0]
   86b08:	aa0103e0 	mov	x0, x1
   86b0c:	aa0803e1 	mov	x1, x8
   86b10:	17fffd6d 	b	860c4 <_ZN4core3fmt9Formatter3pad17h59d95a2e2006fc28E>

0000000000086b14 <memcpy>:
   86b14:	d10103ff 	sub	sp, sp, #0x40
   86b18:	b4000222 	cbz	x2, 86b5c <memcpy+0x48>
   86b1c:	f100205f 	cmp	x2, #0x8
   86b20:	540000e3 	b.cc	86b3c <memcpy+0x28>  // b.lo, b.ul, b.last
   86b24:	8b020028 	add	x8, x1, x2
   86b28:	eb00011f 	cmp	x8, x0
   86b2c:	540001c9 	b.ls	86b64 <memcpy+0x50>  // b.plast
   86b30:	8b020008 	add	x8, x0, x2
   86b34:	eb01011f 	cmp	x8, x1
   86b38:	54000169 	b.ls	86b64 <memcpy+0x50>  // b.plast
   86b3c:	aa1f03e8 	mov	x8, xzr
   86b40:	cb080049 	sub	x9, x2, x8
   86b44:	8b08000a 	add	x10, x0, x8
   86b48:	8b080028 	add	x8, x1, x8
   86b4c:	3840150b 	ldrb	w11, [x8], #1
   86b50:	f1000529 	subs	x9, x9, #0x1
   86b54:	3800154b 	strb	w11, [x10], #1
   86b58:	54ffffa1 	b.ne	86b4c <memcpy+0x38>  // b.any
   86b5c:	910103ff 	add	sp, sp, #0x40
   86b60:	d65f03c0 	ret
   86b64:	f100805f 	cmp	x2, #0x20
   86b68:	54000062 	b.cs	86b74 <memcpy+0x60>  // b.hs, b.nlast
   86b6c:	aa1f03e8 	mov	x8, xzr
   86b70:	1400009a 	b	86dd8 <memcpy+0x2c4>
   86b74:	927be848 	and	x8, x2, #0xffffffffffffffe0
   86b78:	91004029 	add	x9, x1, #0x10
   86b7c:	9100400b 	add	x11, x0, #0x10
   86b80:	aa0803ea 	mov	x10, x8
   86b84:	aa0903ed 	mov	x13, x9
   86b88:	385f112c 	ldurb	w12, [x9, #-15]
   86b8c:	385f0dae 	ldrb	w14, [x13, #-16]!
   86b90:	f100814a 	subs	x10, x10, #0x20
   86b94:	aa0d03f1 	mov	x17, x13
   86b98:	39400daf 	ldrb	w15, [x13, #3]
   86b9c:	394009b0 	ldrb	w16, [x13, #2]
   86ba0:	38404e32 	ldrb	w18, [x17, #4]!
   86ba4:	385f5123 	ldurb	w3, [x9, #-11]
   86ba8:	b3781d8e 	bfi	x14, x12, #8, #8
   86bac:	b3781df0 	bfi	x16, x15, #8, #8
   86bb0:	39400e24 	ldrb	w4, [x17, #3]
   86bb4:	39400a31 	ldrb	w17, [x17, #2]
   86bb8:	33181c72 	bfi	w18, w3, #8, #8
   86bbc:	b3703e0e 	bfi	x14, x16, #16, #16
   86bc0:	aa0d03ec 	mov	x12, x13
   86bc4:	33181c91 	bfi	w17, w4, #8, #8
   86bc8:	33103e32 	bfi	w18, w17, #16, #16
   86bcc:	b3607e4e 	bfi	x14, x18, #32, #32
   86bd0:	f9000bee 	str	x14, [sp, #16]
   86bd4:	394025ae 	ldrb	w14, [x13, #9]
   86bd8:	38408d8f 	ldrb	w15, [x12, #8]!
   86bdc:	39400d90 	ldrb	w16, [x12, #3]
   86be0:	39400991 	ldrb	w17, [x12, #2]
   86be4:	38404d92 	ldrb	w18, [x12, #4]!
   86be8:	394035ad 	ldrb	w13, [x13, #13]
   86bec:	b3781dcf 	bfi	x15, x14, #8, #8
   86bf0:	b3781e11 	bfi	x17, x16, #8, #8
   86bf4:	39400d83 	ldrb	w3, [x12, #3]
   86bf8:	3940098c 	ldrb	w12, [x12, #2]
   86bfc:	33181db2 	bfi	w18, w13, #8, #8
   86c00:	b3703e2f 	bfi	x15, x17, #16, #16
   86c04:	aa0903ee 	mov	x14, x9
   86c08:	33181c6c 	bfi	w12, w3, #8, #8
   86c0c:	33103d92 	bfi	w18, w12, #16, #16
   86c10:	b3607e4f 	bfi	x15, x18, #32, #32
   86c14:	f9000fef 	str	x15, [sp, #24]
   86c18:	3dc007e0 	ldr	q0, [sp, #16]
   86c1c:	39400d2c 	ldrb	w12, [x9, #3]
   86c20:	3940092d 	ldrb	w13, [x9, #2]
   86c24:	3940052f 	ldrb	w15, [x9, #1]
   86c28:	39400130 	ldrb	w16, [x9]
   86c2c:	38404dd1 	ldrb	w17, [x14, #4]!
   86c30:	39401532 	ldrb	w18, [x9, #5]
   86c34:	b3781d8d 	bfi	x13, x12, #8, #8
   86c38:	b3781df0 	bfi	x16, x15, #8, #8
   86c3c:	39400dc3 	ldrb	w3, [x14, #3]
   86c40:	394009ce 	ldrb	w14, [x14, #2]
   86c44:	33181e51 	bfi	w17, w18, #8, #8
   86c48:	b3703db0 	bfi	x16, x13, #16, #16
   86c4c:	aa0903ec 	mov	x12, x9
   86c50:	33181c6e 	bfi	w14, w3, #8, #8
   86c54:	33103dd1 	bfi	w17, w14, #16, #16
   86c58:	b3607e30 	bfi	x16, x17, #32, #32
   86c5c:	f90003f0 	str	x16, [sp]
   86c60:	3940252d 	ldrb	w13, [x9, #9]
   86c64:	38408d8e 	ldrb	w14, [x12, #8]!
   86c68:	39400d8f 	ldrb	w15, [x12, #3]
   86c6c:	39400990 	ldrb	w16, [x12, #2]
   86c70:	38404d91 	ldrb	w17, [x12, #4]!
   86c74:	39403532 	ldrb	w18, [x9, #13]
   86c78:	b3781dae 	bfi	x14, x13, #8, #8
   86c7c:	b3781df0 	bfi	x16, x15, #8, #8
   86c80:	39400d83 	ldrb	w3, [x12, #3]
   86c84:	3940098c 	ldrb	w12, [x12, #2]
   86c88:	33181e51 	bfi	w17, w18, #8, #8
   86c8c:	3d800fe0 	str	q0, [sp, #48]
   86c90:	b3703e0e 	bfi	x14, x16, #16, #16
   86c94:	33181c6c 	bfi	w12, w3, #8, #8
   86c98:	33103d91 	bfi	w17, w12, #16, #16
   86c9c:	f9401bec 	ldr	x12, [sp, #48]
   86ca0:	b3607e2e 	bfi	x14, x17, #32, #32
   86ca4:	f90007ee 	str	x14, [sp, #8]
   86ca8:	aa0b03ed 	mov	x13, x11
   86cac:	3dc003e1 	ldr	q1, [sp]
   86cb0:	381f0dac 	strb	w12, [x13, #-16]!
   86cb4:	f9401ff0 	ldr	x16, [sp, #56]
   86cb8:	d358fd8f 	lsr	x15, x12, #24
   86cbc:	d368fd8e 	lsr	x14, x12, #40
   86cc0:	39000daf 	strb	w15, [x13, #3]
   86cc4:	d348fd8f 	lsr	x15, x12, #8
   86cc8:	381f516e 	sturb	w14, [x11, #-11]
   86ccc:	d350fd8e 	lsr	x14, x12, #16
   86cd0:	381f116f 	sturb	w15, [x11, #-15]
   86cd4:	d368fe0f 	lsr	x15, x16, #40
   86cd8:	390009ae 	strb	w14, [x13, #2]
   86cdc:	aa0d03ee 	mov	x14, x13
   86ce0:	390035af 	strb	w15, [x13, #13]
   86ce4:	d348fe0f 	lsr	x15, x16, #8
   86ce8:	38008dd0 	strb	w16, [x14, #8]!
   86cec:	390025af 	strb	w15, [x13, #9]
   86cf0:	d358fe0f 	lsr	x15, x16, #24
   86cf4:	39000dcf 	strb	w15, [x14, #3]
   86cf8:	d350fe0f 	lsr	x15, x16, #16
   86cfc:	390009cf 	strb	w15, [x14, #2]
   86d00:	d360fd8f 	lsr	x15, x12, #32
   86d04:	38004daf 	strb	w15, [x13, #4]!
   86d08:	d360fe0f 	lsr	x15, x16, #32
   86d0c:	38004dcf 	strb	w15, [x14, #4]!
   86d10:	d378fd8f 	lsr	x15, x12, #56
   86d14:	d370fd8c 	lsr	x12, x12, #48
   86d18:	39000daf 	strb	w15, [x13, #3]
   86d1c:	d378fe0f 	lsr	x15, x16, #56
   86d20:	d370fe10 	lsr	x16, x16, #48
   86d24:	390009ac 	strb	w12, [x13, #2]
   86d28:	39000dcf 	strb	w15, [x14, #3]
   86d2c:	390009d0 	strb	w16, [x14, #2]
   86d30:	3d800be1 	str	q1, [sp, #32]
   86d34:	f94013ec 	ldr	x12, [sp, #32]
   86d38:	aa0b03ed 	mov	x13, x11
   86d3c:	9100816e 	add	x14, x11, #0x20
   86d40:	91008129 	add	x9, x9, #0x20
   86d44:	3900016c 	strb	w12, [x11]
   86d48:	d368fd8f 	lsr	x15, x12, #40
   86d4c:	f94017f0 	ldr	x16, [sp, #40]
   86d50:	3900156f 	strb	w15, [x11, #5]
   86d54:	d358fd8f 	lsr	x15, x12, #24
   86d58:	39000d6f 	strb	w15, [x11, #3]
   86d5c:	d350fd8f 	lsr	x15, x12, #16
   86d60:	3900096f 	strb	w15, [x11, #2]
   86d64:	d348fd8f 	lsr	x15, x12, #8
   86d68:	3900056f 	strb	w15, [x11, #1]
   86d6c:	d368fe0f 	lsr	x15, x16, #40
   86d70:	38008db0 	strb	w16, [x13, #8]!
   86d74:	3900356f 	strb	w15, [x11, #13]
   86d78:	d358fe0f 	lsr	x15, x16, #24
   86d7c:	39000daf 	strb	w15, [x13, #3]
   86d80:	d350fe0f 	lsr	x15, x16, #16
   86d84:	390009af 	strb	w15, [x13, #2]
   86d88:	d348fe0f 	lsr	x15, x16, #8
   86d8c:	3900256f 	strb	w15, [x11, #9]
   86d90:	d360fe0f 	lsr	x15, x16, #32
   86d94:	38004daf 	strb	w15, [x13, #4]!
   86d98:	d360fd8f 	lsr	x15, x12, #32
   86d9c:	38004d6f 	strb	w15, [x11, #4]!
   86da0:	d378fe0f 	lsr	x15, x16, #56
   86da4:	39000daf 	strb	w15, [x13, #3]
   86da8:	d378fd8f 	lsr	x15, x12, #56
   86dac:	d370fd8c 	lsr	x12, x12, #48
   86db0:	d370fe10 	lsr	x16, x16, #48
   86db4:	39000d6f 	strb	w15, [x11, #3]
   86db8:	3900096c 	strb	w12, [x11, #2]
   86dbc:	aa0e03eb 	mov	x11, x14
   86dc0:	390009b0 	strb	w16, [x13, #2]
   86dc4:	54ffee01 	b.ne	86b84 <memcpy+0x70>  // b.any
   86dc8:	eb02011f 	cmp	x8, x2
   86dcc:	54ffec80 	b.eq	86b5c <memcpy+0x48>  // b.none
   86dd0:	f27d045f 	tst	x2, #0x18
   86dd4:	54ffeb60 	b.eq	86b40 <memcpy+0x2c>  // b.none
   86dd8:	aa0803ea 	mov	x10, x8
   86ddc:	927df048 	and	x8, x2, #0xfffffffffffffff8
   86de0:	8b0a0029 	add	x9, x1, x10
   86de4:	8b0a000b 	add	x11, x0, x10
   86de8:	cb08014a 	sub	x10, x10, x8
   86dec:	aa0903ed 	mov	x13, x9
   86df0:	3940152c 	ldrb	w12, [x9, #5]
   86df4:	38404dae 	ldrb	w14, [x13, #4]!
   86df8:	3940052f 	ldrb	w15, [x9, #1]
   86dfc:	39400130 	ldrb	w16, [x9]
   86e00:	39400d31 	ldrb	w17, [x9, #3]
   86e04:	39400da3 	ldrb	w3, [x13, #3]
   86e08:	394009ad 	ldrb	w13, [x13, #2]
   86e0c:	39400932 	ldrb	w18, [x9, #2]
   86e10:	33181d8e 	bfi	w14, w12, #8, #8
   86e14:	3900056f 	strb	w15, [x11, #1]
   86e18:	2a0d03ef 	mov	w15, w13
   86e1c:	33181c6f 	bfi	w15, w3, #8, #8
   86e20:	33103dee 	bfi	w14, w15, #16, #16
   86e24:	3900156c 	strb	w12, [x11, #5]
   86e28:	9100216c 	add	x12, x11, #0x8
   86e2c:	39000972 	strb	w18, [x11, #2]
   86e30:	39000d71 	strb	w17, [x11, #3]
   86e34:	39000170 	strb	w16, [x11]
   86e38:	38004d6e 	strb	w14, [x11, #4]!
   86e3c:	b100214a 	adds	x10, x10, #0x8
   86e40:	3900096d 	strb	w13, [x11, #2]
   86e44:	39000d63 	strb	w3, [x11, #3]
   86e48:	91002129 	add	x9, x9, #0x8
   86e4c:	aa0c03eb 	mov	x11, x12
   86e50:	54fffce1 	b.ne	86dec <memcpy+0x2d8>  // b.any
   86e54:	eb02011f 	cmp	x8, x2
   86e58:	54ffe820 	b.eq	86b5c <memcpy+0x48>  // b.none
   86e5c:	17ffff39 	b	86b40 <memcpy+0x2c>

Disassembly of section .rodata:

0000000000086e60 <anon.18d3f1f317091c7eeaf7c365eb201f34.0.llvm.3855770260100345529>:
   86e60:	6e697250 	uabdl2	v16.4s, v18.8h, v9.8h
   86e64:	6f742074 	umlal2	v20.4s, v3.8h, v4.h[3]
   86e68:	696e5520 	ldpsw	x0, x21, [x9, #-144]
   86e6c:	6974696e 	ldpsw	x14, x26, [x11, #-96]
   86e70:	7a696c61 	.inst	0x7a696c61 ; undefined
   86e74:	43206465 	.inst	0x43206465 ; undefined
   86e78:	6f736e6f 	.inst	0x6f736e6f ; undefined
   86e7c:	 	.inst	0x7273656c ; undefined

0000000000086e7e <anon.18d3f1f317091c7eeaf7c365eb201f34.1.llvm.3855770260100345529>:
   86e7e:	5c637273 	ldr	d19, 14dcca <HEAP_START+0xc513a>
   86e82:	74616c70 	.inst	0x74616c70 ; undefined
   86e86:	6d726f66 	ldp	d6, d27, [x27, #-224]
   86e8a:	7361725c 	.inst	0x7361725c ; undefined
   86e8e:	5c336970 	ldr	d16, edbba <HEAP_START+0x6502a>
   86e92:	72617473 	.inst	0x72617473 ; undefined
   86e96:	73722e74 	.inst	0x73722e74 ; undefined
   86e9a:	00000000 	udf	#0
	...

0000000000086ea0 <anon.18d3f1f317091c7eeaf7c365eb201f34.2.llvm.3855770260100345529>:
   86ea0:	00086e7e 	.inst	0x00086e7e ; undefined
   86ea4:	00000000 	udf	#0
   86ea8:	0000001c 	udf	#28
   86eac:	00000000 	udf	#0
   86eb0:	00000022 	udf	#34
   86eb4:	00000005 	udf	#5

0000000000086eb8 <anon.18d3f1f317091c7eeaf7c365eb201f34.3.llvm.3855770260100345529>:
   86eb8:	00086e7e 	.inst	0x00086e7e ; undefined
   86ebc:	00000000 	udf	#0
   86ec0:	0000001c 	udf	#28
   86ec4:	00000000 	udf	#0
   86ec8:	00000023 	udf	#35
   86ecc:	00000005 	udf	#5

0000000000086ed0 <anon.18d3f1f317091c7eeaf7c365eb201f34.4.llvm.3855770260100345529>:
   86ed0:	54524155 	.inst	0x54524155 ; undefined
   86ed4:	6e6f4320 	raddhn2	v0.8h, v25.4s, v15.4s
   86ed8:	7463656e 	.inst	0x7463656e ; undefined
   86edc:	206e6f69 	.inst	0x206e6f69 ; undefined
   86ee0:	74696e49 	.inst	0x74696e49 ; undefined
   86ee4:	696c6169 	ldpsw	x9, x24, [x11, #-160]
   86ee8:	0064657a 	.inst	0x0064657a ; undefined
   86eec:	00000000 	udf	#0

0000000000086ef0 <anon.18d3f1f317091c7eeaf7c365eb201f34.5.llvm.3855770260100345529>:
   86ef0:	00086ed0 	.inst	0x00086ed0 ; undefined
   86ef4:	00000000 	udf	#0
   86ef8:	0000001b 	udf	#27
   86efc:	00000000 	udf	#0

0000000000086f00 <anon.18d3f1f317091c7eeaf7c365eb201f34.7.llvm.3855770260100345529>:
   86f00:	00086e7e 	.inst	0x00086e7e ; undefined
   86f04:	00000000 	udf	#0
   86f08:	0000001c 	udf	#28
   86f0c:	00000000 	udf	#0
   86f10:	00000024 	udf	#36
   86f14:	00000005 	udf	#5

0000000000086f18 <anon.18d3f1f317091c7eeaf7c365eb201f34.8.llvm.3855770260100345529>:
   86f18:	00086e7e 	.inst	0x00086e7e ; undefined
   86f1c:	00000000 	udf	#0
   86f20:	0000001c 	udf	#28
   86f24:	00000000 	udf	#0
   86f28:	00000025 	udf	#37
   86f2c:	00000005 	udf	#5

0000000000086f30 <anon.18d3f1f317091c7eeaf7c365eb201f34.9.llvm.3855770260100345529>:
   86f30:	74696e49 	.inst	0x74696e49 ; undefined
   86f34:	696c6169 	ldpsw	x9, x24, [x11, #-160]
   86f38:	676e697a 	.inst	0x676e697a ; undefined
   86f3c:	61654820 	.inst	0x61654820 ; undefined
   86f40:	6c412070 	ldnp	d16, d8, [x3, #16]
   86f44:	61636f6c 	.inst	0x61636f6c ; undefined
   86f48:	00726f74 	.inst	0x00726f74 ; undefined
   86f4c:	00000000 	udf	#0

0000000000086f50 <anon.18d3f1f317091c7eeaf7c365eb201f34.10.llvm.3855770260100345529>:
   86f50:	00086f30 	.inst	0x00086f30 ; undefined
   86f54:	00000000 	udf	#0
   86f58:	0000001b 	udf	#27
   86f5c:	00000000 	udf	#0

0000000000086f60 <anon.18d3f1f317091c7eeaf7c365eb201f34.11.llvm.3855770260100345529>:
   86f60:	00086e7e 	.inst	0x00086e7e ; undefined
   86f64:	00000000 	udf	#0
   86f68:	0000001c 	udf	#28
   86f6c:	00000000 	udf	#0
   86f70:	00000029 	udf	#41
   86f74:	00000005 	udf	#5

0000000000086f78 <anon.18d3f1f317091c7eeaf7c365eb201f34.12.llvm.3855770260100345529>:
   86f78:	70616548 	adr	x8, 149c23 <HEAP_START+0xc1093>
   86f7c:	6c6c4120 	ldnp	d0, d16, [x9, #-320]
   86f80:	7461636f 	.inst	0x7461636f ; undefined
   86f84:	6920726f 	stgp	x15, x28, [x19, #-1024]
   86f88:	6974696e 	ldpsw	x14, x26, [x11, #-96]
   86f8c:	7a696c61 	.inst	0x7a696c61 ; undefined
   86f90:	61206465 	.inst	0x61206465 ; undefined
   86f94:	 	.inst	0x77202074 ; undefined

0000000000086f96 <anon.18d3f1f317091c7eeaf7c365eb201f34.13.llvm.3855770260100345529>:
   86f96:	74697720 	.inst	0x74697720 ; undefined
   86f9a:	69732068 	.inst	0x69732068 ; undefined
   86f9e:	0020657a 	.inst	0x0020657a ; NYI
   86fa2:	00000000 	udf	#0
	...

0000000000086fa8 <anon.18d3f1f317091c7eeaf7c365eb201f34.14.llvm.3855770260100345529>:
   86fa8:	00086f78 	.inst	0x00086f78 ; undefined
   86fac:	00000000 	udf	#0
   86fb0:	0000001e 	udf	#30
   86fb4:	00000000 	udf	#0
   86fb8:	00086f96 	.inst	0x00086f96 ; undefined
   86fbc:	00000000 	udf	#0
   86fc0:	0000000b 	udf	#11
   86fc4:	00000000 	udf	#0

0000000000086fc8 <anon.18d3f1f317091c7eeaf7c365eb201f34.15.llvm.3855770260100345529>:
	...
   86fd0:	00000002 	udf	#2
	...
   86fe0:	00000002 	udf	#2
	...
   86ff0:	00000020 	udf	#32
   86ff4:	00000004 	udf	#4
   86ff8:	00000003 	udf	#3
   86ffc:	00000000 	udf	#0
   87000:	00000001 	udf	#1
   87004:	00000000 	udf	#0
   87008:	00000002 	udf	#2
	...
   87018:	00000002 	udf	#2
	...
   87028:	00000020 	udf	#32
   8702c:	00000000 	udf	#0
   87030:	00000003 	udf	#3
   87034:	00000000 	udf	#0

0000000000087038 <anon.18d3f1f317091c7eeaf7c365eb201f34.16.llvm.3855770260100345529>:
   87038:	00086e7e 	.inst	0x00086e7e ; undefined
   8703c:	00000000 	udf	#0
   87040:	0000001c 	udf	#28
   87044:	00000000 	udf	#0
   87048:	0000002c 	udf	#44
   8704c:	00000005 	udf	#5

0000000000087050 <anon.18d3f1f317091c7eeaf7c365eb201f34.17.llvm.3855770260100345529>:
   87050:	00086e7e 	.inst	0x00086e7e ; undefined
   87054:	00000000 	udf	#0
   87058:	0000001c 	udf	#28
   8705c:	00000000 	udf	#0
   87060:	00000030 	udf	#48
   87064:	00000005 	udf	#5

0000000000087068 <anon.18d3f1f317091c7eeaf7c365eb201f34.18.llvm.3855770260100345529>:
   87068:	74696e49 	.inst	0x74696e49 ; undefined
   8706c:	696c6169 	ldpsw	x9, x24, [x11, #-160]
   87070:	676e697a 	.inst	0x676e697a ; undefined
   87074:	61745320 	.inst	0x61745320 ; undefined
   87078:	20737574 	.inst	0x20737574 ; undefined
   8707c:	6867694c 	.inst	0x6867694c ; undefined
   87080:	00000074 	udf	#116
   87084:	00000000 	udf	#0

0000000000087088 <anon.18d3f1f317091c7eeaf7c365eb201f34.19.llvm.3855770260100345529>:
   87088:	00087068 	.inst	0x00087068 ; undefined
   8708c:	00000000 	udf	#0
   87090:	00000019 	udf	#25
   87094:	00000000 	udf	#0

0000000000087098 <anon.18d3f1f317091c7eeaf7c365eb201f34.20.llvm.3855770260100345529>:
   87098:	00086e7e 	.inst	0x00086e7e ; undefined
   8709c:	00000000 	udf	#0
   870a0:	0000001c 	udf	#28
   870a4:	00000000 	udf	#0
   870a8:	00000032 	udf	#50
   870ac:	00000005 	udf	#5

00000000000870b0 <anon.18d3f1f317091c7eeaf7c365eb201f34.21.llvm.3855770260100345529>:
   870b0:	74617453 	.inst	0x74617453 ; undefined
   870b4:	4c207375 	.inst	0x4c207375 ; undefined
   870b8:	74686769 	.inst	0x74686769 ; undefined
   870bc:	696e4920 	ldpsw	x0, x18, [x9, #-144]
   870c0:	6c616974 	ldnp	d20, d26, [x11, #-496]
   870c4:	64657a69 	.inst	0x64657a69 ; undefined

00000000000870c8 <anon.18d3f1f317091c7eeaf7c365eb201f34.22.llvm.3855770260100345529>:
   870c8:	000870b0 	.inst	0x000870b0 ; undefined
   870cc:	00000000 	udf	#0
   870d0:	00000018 	udf	#24
   870d4:	00000000 	udf	#0

00000000000870d8 <anon.18d3f1f317091c7eeaf7c365eb201f34.23.llvm.3855770260100345529>:
   870d8:	00086e7e 	.inst	0x00086e7e ; undefined
   870dc:	00000000 	udf	#0
   870e0:	0000001c 	udf	#28
   870e4:	00000000 	udf	#0
   870e8:	00000036 	udf	#54
   870ec:	00000005 	udf	#5

00000000000870f0 <anon.18d3f1f317091c7eeaf7c365eb201f34.24.llvm.3855770260100345529>:
   870f0:	00086e7e 	.inst	0x00086e7e ; undefined
   870f4:	00000000 	udf	#0
   870f8:	0000001c 	udf	#28
   870fc:	00000000 	udf	#0
   87100:	00000037 	udf	#55
   87104:	00000005 	udf	#5

0000000000087108 <anon.18d3f1f317091c7eeaf7c365eb201f34.25.llvm.3855770260100345529>:
   87108:	74696e49 	.inst	0x74696e49 ; undefined
   8710c:	696c6169 	ldpsw	x9, x24, [x11, #-160]
   87110:	676e697a 	.inst	0x676e697a ; undefined
   87114:	55504720 	.inst	0x55504720 ; undefined

0000000000087118 <anon.18d3f1f317091c7eeaf7c365eb201f34.26.llvm.3855770260100345529>:
   87118:	00087108 	.inst	0x00087108 ; undefined
   8711c:	00000000 	udf	#0
   87120:	00000010 	udf	#16
   87124:	00000000 	udf	#0

0000000000087128 <anon.18d3f1f317091c7eeaf7c365eb201f34.27.llvm.3855770260100345529>:
   87128:	00086e7e 	.inst	0x00086e7e ; undefined
   8712c:	00000000 	udf	#0
   87130:	0000001c 	udf	#28
   87134:	00000000 	udf	#0
   87138:	0000003b 	udf	#59
   8713c:	00000005 	udf	#5

0000000000087140 <anon.18d3f1f317091c7eeaf7c365eb201f34.28.llvm.3855770260100345529>:
   87140:	20555047 	.inst	0x20555047 ; undefined
   87144:	74696e49 	.inst	0x74696e49 ; undefined
   87148:	696c6169 	ldpsw	x9, x24, [x11, #-160]
   8714c:	2064657a 	.inst	0x2064657a ; undefined
   87150:	68746977 	.inst	0x68746977 ; undefined
   87154:	6e6f4320 	raddhn2	v0.8h, v25.4s, v15.4s
   87158:	3a676966 	.inst	0x3a676966 ; undefined
   8715c:	00000000 	udf	#0

0000000000087160 <anon.18d3f1f317091c7eeaf7c365eb201f34.29.llvm.3855770260100345529>:
   87160:	00087140 	.inst	0x00087140 ; undefined
   87164:	00000000 	udf	#0
   87168:	0000001c 	udf	#28
   8716c:	00000000 	udf	#0

0000000000087170 <anon.18d3f1f317091c7eeaf7c365eb201f34.30.llvm.3855770260100345529>:
   87170:	00086e7e 	.inst	0x00086e7e ; undefined
   87174:	00000000 	udf	#0
   87178:	0000001c 	udf	#28
   8717c:	00000000 	udf	#0
   87180:	0000003f 	udf	#63
   87184:	00000005 	udf	#5

0000000000087188 <anon.18d3f1f317091c7eeaf7c365eb201f34.31.llvm.3855770260100345529>:
   87188:	00086f00 	.inst	0x00086f00 ; undefined
	...

0000000000087198 <anon.18d3f1f317091c7eeaf7c365eb201f34.32.llvm.3855770260100345529>:
   87198:	00086e7e 	.inst	0x00086e7e ; undefined
   8719c:	00000000 	udf	#0
   871a0:	0000001c 	udf	#28
   871a4:	00000000 	udf	#0
   871a8:	00000040 	udf	#64
   871ac:	00000005 	udf	#5

00000000000871b0 <anon.18d3f1f317091c7eeaf7c365eb201f34.33.llvm.3855770260100345529>:
   871b0:	00086e7e 	.inst	0x00086e7e ; undefined
   871b4:	00000000 	udf	#0
   871b8:	0000001c 	udf	#28
   871bc:	00000000 	udf	#0
   871c0:	00000041 	udf	#65
   871c4:	00000005 	udf	#5

00000000000871c8 <anon.18d3f1f317091c7eeaf7c365eb201f34.34.llvm.3855770260100345529>:
   871c8:	74696e49 	.inst	0x74696e49 ; undefined
   871cc:	696c6169 	ldpsw	x9, x24, [x11, #-160]
   871d0:	676e697a 	.inst	0x676e697a ; undefined
   871d4:	6e614320 	raddhn2	v0.8h, v25.4s, v1.4s
   871d8:	00736176 	.inst	0x00736176 ; undefined
   871dc:	00000000 	udf	#0

00000000000871e0 <anon.18d3f1f317091c7eeaf7c365eb201f34.35.llvm.3855770260100345529>:
   871e0:	000871c8 	.inst	0x000871c8 ; undefined
   871e4:	00000000 	udf	#0
   871e8:	00000013 	udf	#19
   871ec:	00000000 	udf	#0

00000000000871f0 <anon.18d3f1f317091c7eeaf7c365eb201f34.36.llvm.3855770260100345529>:
   871f0:	00086e7e 	.inst	0x00086e7e ; undefined
   871f4:	00000000 	udf	#0
   871f8:	0000001c 	udf	#28
   871fc:	00000000 	udf	#0
   87200:	00000043 	udf	#67
   87204:	00000005 	udf	#5

0000000000087208 <anon.18d3f1f317091c7eeaf7c365eb201f34.37.llvm.3855770260100345529>:
   87208:	766e6143 	.inst	0x766e6143 ; undefined
   8720c:	49207361 	.inst	0x49207361 ; undefined
   87210:	6974696e 	ldpsw	x14, x26, [x11, #-96]
   87214:	7a696c61 	.inst	0x7a696c61 ; undefined
   87218:	00006465 	udf	#25701
   8721c:	00000000 	udf	#0

0000000000087220 <anon.18d3f1f317091c7eeaf7c365eb201f34.38.llvm.3855770260100345529>:
   87220:	00087208 	.inst	0x00087208 ; undefined
   87224:	00000000 	udf	#0
   87228:	00000012 	udf	#18
   8722c:	00000000 	udf	#0

0000000000087230 <anon.18d3f1f317091c7eeaf7c365eb201f34.39.llvm.3855770260100345529>:
   87230:	00086e7e 	.inst	0x00086e7e ; undefined
   87234:	00000000 	udf	#0
   87238:	0000001c 	udf	#28
   8723c:	00000000 	udf	#0
   87240:	00000047 	udf	#71
   87244:	00000005 	udf	#5

0000000000087248 <anon.18d3f1f317091c7eeaf7c365eb201f34.40.llvm.3855770260100345529>:
   87248:	77617244 	.inst	0x77617244 ; undefined
   8724c:	20676e69 	.inst	0x20676e69 ; undefined
   87250:	766e6143 	.inst	0x766e6143 ; undefined
   87254:	00007361 	udf	#29537

0000000000087258 <anon.18d3f1f317091c7eeaf7c365eb201f34.41.llvm.3855770260100345529>:
   87258:	00087248 	.inst	0x00087248 ; undefined
   8725c:	00000000 	udf	#0
   87260:	0000000e 	udf	#14
   87264:	00000000 	udf	#0

0000000000087268 <anon.18d3f1f317091c7eeaf7c365eb201f34.42.llvm.3855770260100345529>:
   87268:	00086e7e 	.inst	0x00086e7e ; undefined
   8726c:	00000000 	udf	#0
   87270:	0000001c 	udf	#28
   87274:	00000000 	udf	#0
   87278:	00000053 	udf	#83
   8727c:	00000005 	udf	#5

0000000000087280 <anon.b1b1c32d3cc72806b479d7d1c1a530fa.0.llvm.12889162221912371425>:
   87280:	65697254 	fnmls	z20.h, p4/m, z18.h, z9.h
   87284:	6f742064 	umlal2	v4.4s, v3.8h, v4.h[3]
   87288:	69727720 	ldpsw	x0, x29, [x25, #-112]
   8728c:	74206574 	.inst	0x74206574 ; undefined
   87290:	6d6d206f 	ldp	d15, d8, [x3, #-304]
   87294:	6f206f69 	.inst	0x6f206f69 ; undefined
   87298:	6f207475 	uqshl	v21.4s, v3.4s, #0
   8729c:	6f622066 	umlal2	v6.4s, v3.8h, v2.h[2]
   872a0:	73646e75 	.inst	0x73646e75 ; undefined

00000000000872a4 <anon.b1b1c32d3cc72806b479d7d1c1a530fa.1.llvm.12889162221912371425>:
   872a4:	5c637273 	ldr	d19, 14e0f0 <HEAP_START+0xc5560>
   872a8:	74616c70 	.inst	0x74616c70 ; undefined
   872ac:	6d726f66 	ldp	d6, d27, [x27, #-224]
   872b0:	7361725c 	.inst	0x7361725c ; undefined
   872b4:	5c336970 	ldr	d16, edfe0 <HEAP_START+0x65450>
   872b8:	6f696d6d 	.inst	0x6f696d6d ; undefined
   872bc:	0073722e 	.inst	0x0073722e ; undefined

00000000000872c0 <anon.b1b1c32d3cc72806b479d7d1c1a530fa.2.llvm.12889162221912371425>:
   872c0:	000872a4 	.inst	0x000872a4 ; undefined
   872c4:	00000000 	udf	#0
   872c8:	0000001b 	udf	#27
   872cc:	00000000 	udf	#0
   872d0:	00000028 	udf	#40
   872d4:	00000011 	udf	#17

00000000000872d8 <anon.b1b1c32d3cc72806b479d7d1c1a530fa.3.llvm.12889162221912371425>:
   872d8:	65697254 	fnmls	z20.h, p4/m, z18.h, z9.h
   872dc:	6f742064 	umlal2	v4.4s, v3.8h, v4.h[3]
   872e0:	61657220 	.inst	0x61657220 ; undefined
   872e4:	72662064 	.inst	0x72662064 ; undefined
   872e8:	6d206d6f 	stp	d15, d27, [x11, #-512]
   872ec:	206f696d 	.inst	0x206f696d ; undefined
   872f0:	2074756f 	.inst	0x2074756f ; undefined
   872f4:	6220666f 	.inst	0x6220666f ; undefined
   872f8:	646e756f 	.inst	0x646e756f ; undefined
   872fc:	00000073 	udf	#115

0000000000087300 <anon.b1b1c32d3cc72806b479d7d1c1a530fa.4.llvm.12889162221912371425>:
   87300:	000872a4 	.inst	0x000872a4 ; undefined
   87304:	00000000 	udf	#0
   87308:	0000001b 	udf	#27
   8730c:	00000000 	udf	#0
   87310:	00000031 	udf	#49
   87314:	00000011 	udf	#17
   87318:	656d6f53 	fnmls	z19.h, p3/m, z26.h, z13.h
   8731c:	656e6f4e 	fnmls	z14.h, p3/m, z26.h, z14.h
   87320:	00080a10 	.inst	0x00080a10 ; undefined
   87324:	00000000 	udf	#0
   87328:	00000008 	udf	#8
   8732c:	00000000 	udf	#0
   87330:	00000008 	udf	#8
   87334:	00000000 	udf	#0
   87338:	00081720 	.inst	0x00081720 ; undefined
   8733c:	00000000 	udf	#0
   87340:	3f000000 	.inst	0x3f000000 ; undefined
   87344:	00000000 	udf	#0
   87348:	00ffffff 	.inst	0x00ffffff ; undefined
   8734c:	00000000 	udf	#0
   87350:	00000780 	udf	#1920
   87354:	00000000 	udf	#0
   87358:	00000438 	udf	#1080
	...
   87364:	407f4000 	.inst	0x407f4000 ; undefined
   87368:	00000000 	udf	#0
   8736c:	406f4000 	.inst	0x406f4000 ; undefined
   87370:	00000000 	udf	#0
   87374:	4085e000 	.inst	0x4085e000 ; undefined
   87378:	00000000 	udf	#0
   8737c:	4070e000 	.inst	0x4070e000 ; undefined
   87380:	00000000 	udf	#0
   87384:	3ff00000 	.inst	0x3ff00000 ; undefined
	...

0000000000087390 <_ZN8graph_os8platform6raspi35start4MMIO17h24ebf51f049e258cE>:
   87390:	3f000000 	.inst	0x3f000000 ; undefined
   87394:	00000000 	udf	#0
   87398:	00ffffff 	.inst	0x00ffffff ; undefined
   8739c:	00000000 	udf	#0

00000000000873a0 <_ZN8graph_os8platform6raspi35start4GPIO17hdebcd2ae913bac12E>:
   873a0:	00087390 	.inst	0x00087390 ; undefined
   873a4:	00000000 	udf	#0

00000000000873a8 <anon.be8ac92c951d4bc70100f711392310ed.0.llvm.2060999182684745314>:
   873a8:	00000008 	udf	#8
	...

00000000000873b8 <anon.be8ac92c951d4bc70100f711392310ed.1.llvm.2060999182684745314>:
   873b8:	000814c8 	.inst	0x000814c8 ; undefined
	...
   873c8:	00000001 	udf	#1
   873cc:	00000000 	udf	#0
   873d0:	000814c0 	.inst	0x000814c0 ; undefined
   873d4:	00000000 	udf	#0
   873d8:	000814cc 	.inst	0x000814cc ; undefined
   873dc:	00000000 	udf	#0
   873e0:	000814cc 	.inst	0x000814cc ; undefined
   873e4:	00000000 	udf	#0

00000000000873e8 <anon.5e76f6172e33feb502ff3cab2a5e1de9.0.llvm.8677008616706921210>:
   873e8:	555c3a43 	.inst	0x555c3a43 ; undefined
   873ec:	73726573 	.inst	0x73726573 ; undefined
   873f0:	736f4d5c 	.inst	0x736f4d5c ; undefined
   873f4:	46207365 	.inst	0x46207365 ; undefined
   873f8:	6b6d7572 	.inst	0x6b6d7572 ; undefined
   873fc:	2e5c6e69 	.inst	0x2e5c6e69 ; undefined
   87400:	74737572 	.inst	0x74737572 ; undefined
   87404:	745c7075 	.inst	0x745c7075 ; undefined
   87408:	636c6f6f 	.inst	0x636c6f6f ; undefined
   8740c:	6e696168 	rsubhn2	v8.8h, v11.4s, v9.4s
   87410:	696e5c73 	ldpsw	x19, x23, [x3, #-144]
   87414:	6c746867 	ldnp	d7, d26, [x3, #-192]
   87418:	38782d79 	.inst	0x38782d79 ; undefined
   8741c:	34365f36 	cbz	w22, f4000 <HEAP_START+0x6b470>
   87420:	2d63702d 	ldp	s13, s28, [x1, #-232]
   87424:	646e6977 	.inst	0x646e6977 ; undefined
   87428:	2d73776f 	ldp	s15, s29, [x27, #-104]
   8742c:	6376736d 	.inst	0x6376736d ; undefined
   87430:	62696c5c 	.inst	0x62696c5c ; undefined
   87434:	7375725c 	.inst	0x7375725c ; undefined
   87438:	62696c74 	.inst	0x62696c74 ; undefined
   8743c:	6372735c 	.inst	0x6372735c ; undefined
   87440:	7375725c 	.inst	0x7375725c ; undefined
   87444:	696c5c74 	ldpsw	x20, x23, [x3, #-160]
   87448:	72617262 	.inst	0x72617262 ; undefined
   8744c:	6f635c79 	.inst	0x6f635c79 ; undefined
   87450:	735c6572 	.inst	0x735c6572 ; undefined
   87454:	615c6372 	.inst	0x615c6372 ; undefined
   87458:	636f6c6c 	.inst	0x636f6c6c ; undefined
   8745c:	79616c5c 	ldrh	w28, [x2, #4278]
   87460:	2e74756f 	uabd	v15.4h, v11.4h, v20.4h
   87464:	00007372 	udf	#29554

0000000000087468 <anon.5e76f6172e33feb502ff3cab2a5e1de9.1.llvm.8677008616706921210>:
   87468:	000873e8 	.inst	0x000873e8 ; undefined
   8746c:	00000000 	udf	#0
   87470:	0000007e 	udf	#126
   87474:	00000000 	udf	#0
   87478:	00000110 	udf	#272
   8747c:	00000039 	udf	#57

0000000000087480 <anon.5e76f6172e33feb502ff3cab2a5e1de9.2.llvm.8677008616706921210>:
   87480:	6c6c6163 	ldnp	d3, d24, [x11, #-320]
   87484:	60206465 	.inst	0x60206465 ; undefined
   87488:	75736552 	.inst	0x75736552 ; undefined
   8748c:	3a3a746c 	.inst	0x3a3a746c ; undefined
   87490:	72776e75 	.inst	0x72776e75 ; undefined
   87494:	29287061 	stp	w1, w28, [x3, #-192]
   87498:	6e6f2060 	usubl2	v0.4s, v3.8h, v15.8h
   8749c:	206e6120 	.inst	0x206e6120 ; undefined
   874a0:	72724560 	.inst	0x72724560 ; undefined
   874a4:	61762060 	.inst	0x61762060 ; undefined
   874a8:	0065756c 	.inst	0x0065756c ; undefined
   874ac:	00000000 	udf	#0

00000000000874b0 <anon.5e76f6172e33feb502ff3cab2a5e1de9.3.llvm.8677008616706921210>:
   874b0:	00081844 	.inst	0x00081844 ; undefined
	...
   874c0:	00000001 	udf	#1
   874c4:	00000000 	udf	#0
   874c8:	000848bc 	.inst	0x000848bc ; undefined
   874cc:	00000000 	udf	#0

00000000000874d0 <anon.5e76f6172e33feb502ff3cab2a5e1de9.5.llvm.8677008616706921210>:
   874d0:	5c637273 	ldr	d19, 14e31c <HEAP_START+0xc578c>
   874d4:	6f6c6c61 	.inst	0x6f6c6c61 ; undefined
   874d8:	6f746163 	umlsl2	v3.4s, v11.8h, v4.h[3]
   874dc:	6c6c5c72 	ldnp	d18, d23, [x3, #-320]
   874e0:	6c6c615f 	ldnp	d31, d24, [x10, #-320]
   874e4:	722e636f 	ands	w15, w27, #0xfffc07ff
   874e8:	 	.inst	0x636e4973 ; undefined

00000000000874e9 <anon.5e76f6172e33feb502ff3cab2a5e1de9.7.llvm.8677008616706921210>:
   874e9:	6f636e49 	.inst	0x6f636e49 ; undefined
   874ed:	7461706d 	.inst	0x7461706d ; undefined
   874f1:	656c6269 	fnmls	z9.h, p0/m, z19.h, z12.h
   874f5:	6d656d20 	ldp	d0, d27, [x9, #-432]
   874f9:	2079726f 	.inst	0x2079726f ; undefined
   874fd:	67696c61 	.inst	0x67696c61 ; undefined
   87501:	6e656d6e 	umin	v14.8h, v11.8h, v5.8h
   87505:	666f2074 	.inst	0x666f2074 ; undefined
   87509:	65726620 	fnmls	z0.h, p1/m, z17.h, z18.h
   8750d:	62206465 	.inst	0x62206465 ; undefined
   87511:	6b636f6c 	.inst	0x6b636f6c ; undefined
   87515:	 	adrp	x0, 89000 <HEAP_START+0x470>

0000000000087518 <anon.5e76f6172e33feb502ff3cab2a5e1de9.8.llvm.8677008616706921210>:
   87518:	000874d0 	.inst	0x000874d0 ; undefined
   8751c:	00000000 	udf	#0
   87520:	00000019 	udf	#25
   87524:	00000000 	udf	#0
   87528:	0000003e 	udf	#62
   8752c:	0000000d 	udf	#13

0000000000087530 <anon.5e76f6172e33feb502ff3cab2a5e1de9.9.llvm.8677008616706921210>:
   87530:	636f6c42 	.inst	0x636f6c42 ; undefined
   87534:	6f74206b 	umlal2	v11.4s, v3.8h, v4.h[3]
   87538:	6d73206f 	ldp	d15, d8, [x3, #-208]
   8753c:	206c6c61 	.inst	0x206c6c61 ; undefined
   87540:	66206f74 	.inst	0x66206f74 ; undefined
   87544:	00656572 	.inst	0x00656572 ; undefined

0000000000087548 <anon.5e76f6172e33feb502ff3cab2a5e1de9.10.llvm.8677008616706921210>:
   87548:	000874d0 	.inst	0x000874d0 ; undefined
   8754c:	00000000 	udf	#0
   87550:	00000019 	udf	#25
   87554:	00000000 	udf	#0
   87558:	00000042 	udf	#66
   8755c:	0000000d 	udf	#13

0000000000087560 <anon.5e76f6172e33feb502ff3cab2a5e1de9.13.llvm.8677008616706921210>:
   87560:	20656854 	.inst	0x20656854 ; undefined
   87564:	72727563 	.inst	0x72727563 ; undefined
   87568:	20746e65 	.inst	0x20746e65 ; undefined
   8756c:	636f6c62 	.inst	0x636f6c62 ; undefined
   87570:	6f64206b 	umlal2	v11.4s, v3.8h, v4.h[2]
   87574:	6e207365 	uabdl2	v5.8h, v27.16b, v0.16b
   87578:	7020746f 	adr	x15, c8407 <HEAP_START+0x3f877>
   8757c:	746e696f 	.inst	0x746e696f ; undefined
   87580:	206f7420 	.inst	0x206f7420 ; undefined
   87584:	746f6e61 	.inst	0x746f6e61 ; undefined
   87588:	20726568 	.inst	0x20726568 ; undefined
   8758c:	636f6c62 	.inst	0x636f6c62 ; undefined
   87590:	0000006b 	udf	#107
   87594:	00000000 	udf	#0

0000000000087598 <anon.5e76f6172e33feb502ff3cab2a5e1de9.14.llvm.8677008616706921210>:
   87598:	000874d0 	.inst	0x000874d0 ; undefined
   8759c:	00000000 	udf	#0
   875a0:	00000019 	udf	#25
   875a4:	00000000 	udf	#0
   875a8:	0000005a 	udf	#90
   875ac:	00000029 	udf	#41

00000000000875b0 <anon.5e76f6172e33feb502ff3cab2a5e1de9.15.llvm.8677008616706921210>:
   875b0:	6f79614c 	umlsl2	v12.4s, v10.8h, v9.h[3]
   875b4:	6d207475 	stp	d21, d29, [x3, #-512]
   875b8:	20747375 	.inst	0x20747375 ; undefined
   875bc:	65766168 	fnmls	z8.h, p0/m, z11.h, z22.h
   875c0:	776f7020 	.inst	0x776f7020 ; undefined
   875c4:	6f207265 	.inst	0x6f207265 ; undefined
   875c8:	77742066 	.inst	0x77742066 ; undefined
   875cc:	6c61206f 	ldnp	d15, d8, [x3, #-496]
   875d0:	6d6e6769 	ldp	d9, d25, [x27, #-288]
   875d4:	00746e65 	.inst	0x00746e65 ; undefined

00000000000875d8 <anon.5e76f6172e33feb502ff3cab2a5e1de9.16.llvm.8677008616706921210>:
   875d8:	000874d0 	.inst	0x000874d0 ; undefined
   875dc:	00000000 	udf	#0
   875e0:	00000019 	udf	#25
   875e4:	00000000 	udf	#0
   875e8:	00000080 	udf	#128
   875ec:	0000000d 	udf	#13

00000000000875f0 <anon.5e76f6172e33feb502ff3cab2a5e1de9.17.llvm.8677008616706921210>:
   875f0:	000874d0 	.inst	0x000874d0 ; undefined
   875f4:	00000000 	udf	#0
   875f8:	00000019 	udf	#25
   875fc:	00000000 	udf	#0
   87600:	00000085 	udf	#133
   87604:	0000000e 	udf	#14

0000000000087608 <anon.5e76f6172e33feb502ff3cab2a5e1de9.18.llvm.8677008616706921210>:
   87608:	6b6e694c 	.inst	0x6b6e694c ; undefined
   8760c:	694c6465 	ldpsw	x5, x25, [x3, #96]
   87610:	6c417473 	ldnp	d19, d29, [x3, #16]
   87614:	61636f6c 	.inst	0x61636f6c ; undefined
   87618:	 	.inst	0x66726f74 ; undefined

000000000008761b <anon.5e76f6172e33feb502ff3cab2a5e1de9.19.llvm.8677008616706921210>:
   8761b:	65657266 	fnmls	z6.h, p4/m, z19.h, z5.h
   8761f:	73696c5f 	.inst	0x73696c5f ; undefined
   87623:	00000074 	udf	#116
	...

0000000000087628 <anon.5e76f6172e33feb502ff3cab2a5e1de9.20.llvm.8677008616706921210>:
   87628:	00081844 	.inst	0x00081844 ; undefined
   8762c:	00000000 	udf	#0
   87630:	00000008 	udf	#8
   87634:	00000000 	udf	#0
   87638:	00000008 	udf	#8
   8763c:	00000000 	udf	#0
   87640:	000817b4 	.inst	0x000817b4 ; undefined
   87644:	00000000 	udf	#0
   87648:	65657246 	fnmls	z6.h, p4/m, z18.h, z5.h
   8764c:	636f6c42 	.inst	0x636f6c42 ; undefined
   87650:	7a69736b 	.inst	0x7a69736b ; undefined
   87654:	78656e65 	.inst	0x78656e65 ; undefined
   87658:	00000074 	udf	#116
   8765c:	00000000 	udf	#0
   87660:	00081844 	.inst	0x00081844 ; undefined
   87664:	00000000 	udf	#0
   87668:	00000008 	udf	#8
   8766c:	00000000 	udf	#0
   87670:	00000008 	udf	#8
   87674:	00000000 	udf	#0
   87678:	0008088c 	.inst	0x0008088c ; undefined
   8767c:	00000000 	udf	#0
   87680:	00081844 	.inst	0x00081844 ; undefined
   87684:	00000000 	udf	#0
   87688:	00000008 	udf	#8
   8768c:	00000000 	udf	#0
   87690:	00000008 	udf	#8
   87694:	00000000 	udf	#0
   87698:	000809a0 	.inst	0x000809a0 ; undefined
   8769c:	00000000 	udf	#0

00000000000876a0 <anon.b4b9c835bcc689e7fb4c1429670c3280.0.llvm.16698110762826979571>:
   876a0:	5c637273 	ldr	d19, 14e4ec <HEAP_START+0xc595c>
   876a4:	74616c70 	.inst	0x74616c70 ; undefined
   876a8:	6d726f66 	ldp	d6, d27, [x27, #-224]
   876ac:	7361725c 	.inst	0x7361725c ; undefined
   876b0:	5c336970 	ldr	d16, ee3dc <HEAP_START+0x6584c>
   876b4:	2e757067 	uabdl	v7.4s, v3.4h, v21.4h
   876b8:	00007372 	udf	#29554
   876bc:	00000000 	udf	#0

00000000000876c0 <anon.b4b9c835bcc689e7fb4c1429670c3280.1.llvm.16698110762826979571>:
   876c0:	000876a0 	.inst	0x000876a0 ; undefined
   876c4:	00000000 	udf	#0
   876c8:	0000001a 	udf	#26
   876cc:	00000000 	udf	#0
   876d0:	00000046 	udf	#70
   876d4:	00000009 	udf	#9
   876d8:	6f434246 	mls	v6.8h, v18.8h, v3.h[0]
   876dc:	6769666e 	.inst	0x6769666e ; undefined
   876e0:	5f796870 	.inst	0x5f796870 ; undefined
   876e4:	74646977 	.inst	0x74646977 ; undefined
   876e8:	00000068 	udf	#104
   876ec:	00000000 	udf	#0
   876f0:	000819ec 	.inst	0x000819ec ; undefined
   876f4:	00000000 	udf	#0
   876f8:	00000008 	udf	#8
   876fc:	00000000 	udf	#0
   87700:	00000008 	udf	#8
   87704:	00000000 	udf	#0
   87708:	000808f0 	.inst	0x000808f0 ; undefined
   8770c:	00000000 	udf	#0
   87710:	5f796870 	.inst	0x5f796870 ; undefined
   87714:	67696568 	.inst	0x67696568 ; undefined
   87718:	69767468 	ldpsw	x8, x29, [x3, #-80]
   8771c:	69775f72 	ldpsw	x18, x23, [x27, #-72]
   87720:	76687464 	.inst	0x76687464 ; undefined
   87724:	685f7269 	.inst	0x685f7269 ; undefined
   87728:	68676965 	.inst	0x68676965 ; undefined
   8772c:	64697774 	.inst	0x64697774 ; undefined
   87730:	6f5f6874 	umlsl2	v20.4s, v3.8h, v15.h[5]
   87734:	65686666 	fnmls	z6.h, p1/m, z19.h, z8.h
   87738:	74686769 	.inst	0x74686769 ; undefined
   8773c:	66666f5f 	.inst	0x66666f5f ; undefined
   87740:	74706564 	.inst	0x74706564 ; undefined
   87744:	6c787068 	ldnp	d8, d28, [x3, #-128]
   87748:	64726f5f 	.inst	0x64726f5f ; undefined
   8774c:	69707265 	ldpsw	x5, x28, [x19, #-128]
   87750:	00686374 	.inst	0x00686374 ; undefined
   87754:	00000000 	udf	#0
   87758:	00081ae8 	.inst	0x00081ae8 ; undefined
   8775c:	00000000 	udf	#0
   87760:	00000008 	udf	#8
   87764:	00000000 	udf	#0
   87768:	00000008 	udf	#8
   8776c:	00000000 	udf	#0
   87770:	00081bec 	.inst	0x00081bec ; undefined
   87774:	00000000 	udf	#0
   87778:	00081aec 	.inst	0x00081aec ; undefined
   8777c:	00000000 	udf	#0
   87780:	00081bb4 	.inst	0x00081bb4 ; undefined
   87784:	00000000 	udf	#0

0000000000087788 <anon.c75d1cd98a298e128ded3ea11ba0ef80.7.llvm.5130275823303334094>:
   87788:	00081ae8 	.inst	0x00081ae8 ; undefined
   8778c:	00000000 	udf	#0
   87790:	00000020 	udf	#32
   87794:	00000000 	udf	#0
   87798:	00000008 	udf	#8
   8779c:	00000000 	udf	#0
   877a0:	00081c08 	.inst	0x00081c08 ; undefined
   877a4:	00000000 	udf	#0
   877a8:	000819f0 	.inst	0x000819f0 ; undefined
   877ac:	00000000 	udf	#0
   877b0:	00081ab4 	.inst	0x00081ab4 ; undefined
   877b4:	00000000 	udf	#0

00000000000877b8 <anon.c75d1cd98a298e128ded3ea11ba0ef80.9.llvm.5130275823303334094>:
   877b8:	4c45285d 	.inst	0x4c45285d ; undefined

00000000000877bc <anon.c75d1cd98a298e128ded3ea11ba0ef80.10.llvm.5130275823303334094>:
   877bc:	 	.inst	0x203a2940 ; undefined

00000000000877bd <anon.c75d1cd98a298e128ded3ea11ba0ef80.11.llvm.5130275823303334094>:
   877bd:	 	.inst	0xb8203a29 ; undefined

00000000000877c0 <anon.c75d1cd98a298e128ded3ea11ba0ef80.12.llvm.5130275823303334094>:
   877c0:	000877b8 	.inst	0x000877b8 ; undefined
	...
   877d0:	000877b8 	.inst	0x000877b8 ; undefined
   877d4:	00000000 	udf	#0
   877d8:	00000004 	udf	#4
   877dc:	00000000 	udf	#0
   877e0:	000877bc 	.inst	0x000877bc ; undefined
   877e4:	00000000 	udf	#0
   877e8:	00000001 	udf	#1
   877ec:	00000000 	udf	#0
   877f0:	000877bd 	.inst	0x000877bd ; undefined
   877f4:	00000000 	udf	#0
   877f8:	00000003 	udf	#3
   877fc:	00000000 	udf	#0
   87800:	61462041 	.inst	0x61462041 ; undefined
   87804:	206c6174 	.inst	0x206c6174 ; undefined
   87808:	6e72654b 	umax	v11.8h, v10.8h, v18.8h
   8780c:	50206c65 	adr	x5, c859a <HEAP_START+0x3fa0a>
   87810:	63696e61 	.inst	0x63696e61 ; undefined
   87814:	63634f20 	.inst	0x63634f20 ; undefined
   87818:	64657275 	.inst	0x64657275 ; undefined
   8781c:	6d206f4e 	stp	d14, d27, [x26, #-512]
   87820:	61737365 	.inst	0x61737365 ; undefined
   87824:	73206567 	.inst	0x73206567 ; undefined
   87828:	6c707075 	ldnp	d21, d28, [x3, #-256]
   8782c:	4e646569 	smax	v9.8h, v11.8h, v4.8h
   87830:	6f6c206f 	umlal2	v15.4s, v3.8h, v12.h[2]
   87834:	69746163 	ldpsw	x3, x24, [x11, #-96]
   87838:	66206e6f 	.inst	0x66206e6f ; undefined
   8783c:	646e756f 	.inst	0x646e756f ; undefined
   87840:	00003a40 	udf	#14912
   87844:	00000000 	udf	#0
   87848:	00087840 	.inst	0x00087840 ; undefined
   8784c:	00000000 	udf	#0
   87850:	00000001 	udf	#1
   87854:	00000000 	udf	#0
   87858:	00087841 	.inst	0x00087841 ; undefined
   8785c:	00000000 	udf	#0
   87860:	00000001 	udf	#1
   87864:	00000000 	udf	#0
   87868:	61462041 	.inst	0x61462041 ; undefined
   8786c:	206c6174 	.inst	0x206c6174 ; undefined
   87870:	6f6c6c41 	.inst	0x6f6c6c41 ; undefined
   87874:	69746163 	ldpsw	x3, x24, [x11, #-96]
   87878:	45206e6f 	.inst	0x45206e6f ; undefined
   8787c:	726f7272 	.inst	0x726f7272 ; undefined
   87880:	63634f20 	.inst	0x63634f20 ; undefined
   87884:	64657275 	.inst	0x64657275 ; undefined
   87888:	62616e55 	.inst	0x62616e55 ; undefined
   8788c:	7420656c 	.inst	0x7420656c ; undefined
   87890:	6c61206f 	ldnp	d15, d8, [x3, #-496]
   87894:	61636f6c 	.inst	0x61636f6c ; undefined
   87898:	203a6574 	.inst	0x203a6574 ; undefined
   8789c:	69737520 	ldpsw	x0, x29, [x9, #-104]
   878a0:	6120676e 	.inst	0x6120676e ; undefined
   878a4:	636f6c6c 	.inst	0x636f6c6c ; undefined
   878a8:	726f7461 	.inst	0x726f7461 ; undefined
   878ac:	0000203a 	udf	#8250
   878b0:	00087888 	.inst	0x00087888 ; undefined
   878b4:	00000000 	udf	#0
   878b8:	00000014 	udf	#20
   878bc:	00000000 	udf	#0
   878c0:	0008789c 	.inst	0x0008789c ; undefined
   878c4:	00000000 	udf	#0
   878c8:	00000012 	udf	#18
   878cc:	00000000 	udf	#0

00000000000878d0 <anon.758dcabb0694e850681f43a7e6789d42.4.llvm.18210934547842185749>:
   878d0:	555c3a43 	.inst	0x555c3a43 ; undefined
   878d4:	73726573 	.inst	0x73726573 ; undefined
   878d8:	736f4d5c 	.inst	0x736f4d5c ; undefined
   878dc:	46207365 	.inst	0x46207365 ; undefined
   878e0:	6b6d7572 	.inst	0x6b6d7572 ; undefined
   878e4:	2e5c6e69 	.inst	0x2e5c6e69 ; undefined
   878e8:	74737572 	.inst	0x74737572 ; undefined
   878ec:	745c7075 	.inst	0x745c7075 ; undefined
   878f0:	636c6f6f 	.inst	0x636c6f6f ; undefined
   878f4:	6e696168 	rsubhn2	v8.8h, v11.4s, v9.4s
   878f8:	696e5c73 	ldpsw	x19, x23, [x3, #-144]
   878fc:	6c746867 	ldnp	d7, d26, [x3, #-192]
   87900:	38782d79 	.inst	0x38782d79 ; undefined
   87904:	34365f36 	cbz	w22, f44e8 <HEAP_START+0x6b958>
   87908:	2d63702d 	ldp	s13, s28, [x1, #-232]
   8790c:	646e6977 	.inst	0x646e6977 ; undefined
   87910:	2d73776f 	ldp	s15, s29, [x27, #-104]
   87914:	6376736d 	.inst	0x6376736d ; undefined
   87918:	62696c5c 	.inst	0x62696c5c ; undefined
   8791c:	7375725c 	.inst	0x7375725c ; undefined
   87920:	62696c74 	.inst	0x62696c74 ; undefined
   87924:	6372735c 	.inst	0x6372735c ; undefined
   87928:	7375725c 	.inst	0x7375725c ; undefined
   8792c:	696c5c74 	ldpsw	x20, x23, [x3, #-160]
   87930:	72617262 	.inst	0x72617262 ; undefined
   87934:	6c615c79 	ldnp	d25, d23, [x3, #-496]
   87938:	5c636f6c 	ldr	d12, 14e724 <HEAP_START+0xc5b94>
   8793c:	5c637273 	ldr	d19, 14e788 <HEAP_START+0xc5bf8>
   87940:	5f776172 	.inst	0x5f776172 ; undefined
   87944:	2e636576 	umax	v22.4h, v11.4h, v3.4h
   87948:	 	.inst	0x61637372 ; undefined

000000000008794a <anon.758dcabb0694e850681f43a7e6789d42.7.llvm.18210934547842185749>:
   8794a:	61706163 	.inst	0x61706163 ; undefined
   8794e:	79746963 	ldrh	w3, [x11, #6708]
   87952:	65766f20 	fnmls	z0.h, p3/m, z25.h, z22.h
   87956:	6f6c6672 	sqshlu	v18.2d, v19.2d, #44
   8795a:	00000077 	udf	#119
	...

0000000000087960 <anon.758dcabb0694e850681f43a7e6789d42.8.llvm.18210934547842185749>:
   87960:	000878d0 	.inst	0x000878d0 ; undefined
   87964:	00000000 	udf	#0
   87968:	0000007a 	udf	#122
   8796c:	00000000 	udf	#0
   87970:	0000022f 	udf	#559
   87974:	00000005 	udf	#5

0000000000087978 <anon.d5ec07b31832c4db4ecf75e38dd23978.0.llvm.15308412142352787931>:
   87978:	555c3a43 	.inst	0x555c3a43 ; undefined
   8797c:	73726573 	.inst	0x73726573 ; undefined
   87980:	736f4d5c 	.inst	0x736f4d5c ; undefined
   87984:	46207365 	.inst	0x46207365 ; undefined
   87988:	6b6d7572 	.inst	0x6b6d7572 ; undefined
   8798c:	2e5c6e69 	.inst	0x2e5c6e69 ; undefined
   87990:	74737572 	.inst	0x74737572 ; undefined
   87994:	745c7075 	.inst	0x745c7075 ; undefined
   87998:	636c6f6f 	.inst	0x636c6f6f ; undefined
   8799c:	6e696168 	rsubhn2	v8.8h, v11.4s, v9.4s
   879a0:	696e5c73 	ldpsw	x19, x23, [x3, #-144]
   879a4:	6c746867 	ldnp	d7, d26, [x3, #-192]
   879a8:	38782d79 	.inst	0x38782d79 ; undefined
   879ac:	34365f36 	cbz	w22, f4590 <HEAP_START+0x6ba00>
   879b0:	2d63702d 	ldp	s13, s28, [x1, #-232]
   879b4:	646e6977 	.inst	0x646e6977 ; undefined
   879b8:	2d73776f 	ldp	s15, s29, [x27, #-104]
   879bc:	6376736d 	.inst	0x6376736d ; undefined
   879c0:	62696c5c 	.inst	0x62696c5c ; undefined
   879c4:	7375725c 	.inst	0x7375725c ; undefined
   879c8:	62696c74 	.inst	0x62696c74 ; undefined
   879cc:	6372735c 	.inst	0x6372735c ; undefined
   879d0:	7375725c 	.inst	0x7375725c ; undefined
   879d4:	696c5c74 	ldpsw	x20, x23, [x3, #-160]
   879d8:	72617262 	.inst	0x72617262 ; undefined
   879dc:	6f635c79 	.inst	0x6f635c79 ; undefined
   879e0:	735c6572 	.inst	0x735c6572 ; undefined
   879e4:	665c6372 	.inst	0x665c6372 ; undefined
   879e8:	6e5c746d 	.inst	0x6e5c746d ; undefined
   879ec:	722e6d75 	ands	w21, w11, #0xfffc3fff
   879f0:	00000073 	udf	#115
   879f4:	00000000 	udf	#0

00000000000879f8 <anon.d5ec07b31832c4db4ecf75e38dd23978.1.llvm.15308412142352787931>:
   879f8:	00087978 	.inst	0x00087978 ; undefined
   879fc:	00000000 	udf	#0
   87a00:	00000079 	udf	#121
   87a04:	00000000 	udf	#0
   87a08:	00000065 	udf	#101
   87a0c:	00000014 	udf	#20

0000000000087a10 <anon.d5ec07b31832c4db4ecf75e38dd23978.2.llvm.15308412142352787931>:
   87a10:	 	adr	x16, e8915 <HEAP_START+0x5fd85>

0000000000087a12 <anon.d5ec07b31832c4db4ecf75e38dd23978.5.llvm.15308412142352787931>:
   87a12:	31303030 	adds	w16, w1, #0xc0c
   87a16:	33303230 	.inst	0x33303230 ; undefined
   87a1a:	35303430 	cbnz	w16, e809e <HEAP_START+0x5f50e>
   87a1e:	37303630 	tbnz	w16, #6, 880e2 <anon.57ef2e3c02ffeaf529e6c598bd0b036c.17.llvm.5445877691761700591+0xce>
   87a22:	39303830 	strb	w16, [x1, #3086]
   87a26:	31313031 	adds	w17, w1, #0xc4c
   87a2a:	33313231 	.inst	0x33313231 ; undefined
   87a2e:	35313431 	cbnz	w17, ea0b2 <HEAP_START+0x61522>
   87a32:	37313631 	tbnz	w17, #6, 8a0f6 <HEAP_START+0x1566>
   87a36:	39313831 	strb	w17, [x1, #3150]
   87a3a:	31323032 	adds	w18, w1, #0xc8c
   87a3e:	33323232 	.inst	0x33323232 ; undefined
   87a42:	35323432 	cbnz	w18, ec0c6 <HEAP_START+0x63536>
   87a46:	37323632 	tbnz	w18, #6, 8c10a <HEAP_START+0x357a>
   87a4a:	39323832 	strb	w18, [x1, #3214]
   87a4e:	31333033 	adds	w19, w1, #0xccc
   87a52:	33333233 	.inst	0x33333233 ; undefined
   87a56:	35333433 	cbnz	w19, ee0da <HEAP_START+0x6554a>
   87a5a:	37333633 	tbnz	w19, #6, 8e11e <HEAP_START+0x558e>
   87a5e:	39333833 	strb	w19, [x1, #3278]
   87a62:	31343034 	adds	w20, w1, #0xd0c
   87a66:	33343234 	.inst	0x33343234 ; undefined
   87a6a:	35343434 	cbnz	w20, f00ee <HEAP_START+0x6755e>
   87a6e:	37343634 	tbnz	w20, #6, 80132 <_ZN4core5alloc6global11GlobalAlloc7realloc17h52e759c52383ddaaE+0xc2>
   87a72:	39343834 	strb	w20, [x1, #3342]
   87a76:	31353035 	adds	w21, w1, #0xd4c
   87a7a:	33353235 	.inst	0x33353235 ; undefined
   87a7e:	35353435 	cbnz	w21, f2102 <HEAP_START+0x69572>
   87a82:	37353635 	tbnz	w21, #6, 82146 <rust_begin_unwind+0x12e>
   87a86:	39353835 	strb	w21, [x1, #3406]
   87a8a:	31363036 	adds	w22, w1, #0xd8c
   87a8e:	33363236 	.inst	0x33363236 ; undefined
   87a92:	35363436 	cbnz	w22, f4116 <HEAP_START+0x6b586>
   87a96:	37363636 	tbnz	w22, #6, 8415a <_ZN68_$LT$core..fmt..builders..PadAdapter$u20$as$u20$core..fmt..Write$GT$9write_str17h664f3ba9611891cdE+0x30a>
   87a9a:	39363836 	strb	w22, [x1, #3470]
   87a9e:	31373037 	adds	w23, w1, #0xdcc
   87aa2:	33373237 	.inst	0x33373237 ; undefined
   87aa6:	35373437 	cbnz	w23, f612a <HEAP_START+0x6d59a>
   87aaa:	37373637 	tbnz	w23, #6, 8616e <_ZN4core3fmt9Formatter3pad17h59d95a2e2006fc28E+0xaa>
   87aae:	39373837 	strb	w23, [x1, #3534]
   87ab2:	31383038 	adds	w24, w1, #0xe0c
   87ab6:	33383238 	.inst	0x33383238 ; undefined
   87aba:	35383438 	cbnz	w24, f813e <HEAP_START+0x6f5ae>
   87abe:	37383638 	tbnz	w24, #7, 88182 <anon.57ef2e3c02ffeaf529e6c598bd0b036c.18.llvm.5445877691761700591+0x39>
   87ac2:	39383838 	strb	w24, [x1, #3598]
   87ac6:	31393039 	adds	w25, w1, #0xe4c
   87aca:	33393239 	.inst	0x33393239 ; undefined
   87ace:	35393439 	cbnz	w25, fa152 <HEAP_START+0x715c2>
   87ad2:	37393639 	tbnz	w25, #7, 8a196 <HEAP_START+0x1606>
   87ad6:	39393839 	strb	w25, [x1, #3662]
   87ada:	20202020 	.inst	0x20202020 ; undefined
   87ade:	656e6f44 	fnmls	z4.h, p3/m, z26.h, z14.h
   87ae2:	555c3a43 	.inst	0x555c3a43 ; undefined
   87ae6:	73726573 	.inst	0x73726573 ; undefined
   87aea:	736f4d5c 	.inst	0x736f4d5c ; undefined
   87aee:	46207365 	.inst	0x46207365 ; undefined
   87af2:	6b6d7572 	.inst	0x6b6d7572 ; undefined
   87af6:	2e5c6e69 	.inst	0x2e5c6e69 ; undefined
   87afa:	74737572 	.inst	0x74737572 ; undefined
   87afe:	745c7075 	.inst	0x745c7075 ; undefined
   87b02:	636c6f6f 	.inst	0x636c6f6f ; undefined
   87b06:	6e696168 	rsubhn2	v8.8h, v11.4s, v9.4s
   87b0a:	696e5c73 	ldpsw	x19, x23, [x3, #-144]
   87b0e:	6c746867 	ldnp	d7, d26, [x3, #-192]
   87b12:	38782d79 	.inst	0x38782d79 ; undefined
   87b16:	34365f36 	cbz	w22, f46fa <HEAP_START+0x6bb6a>
   87b1a:	2d63702d 	ldp	s13, s28, [x1, #-232]
   87b1e:	646e6977 	.inst	0x646e6977 ; undefined
   87b22:	2d73776f 	ldp	s15, s29, [x27, #-104]
   87b26:	6376736d 	.inst	0x6376736d ; undefined
   87b2a:	62696c5c 	.inst	0x62696c5c ; undefined
   87b2e:	7375725c 	.inst	0x7375725c ; undefined
   87b32:	62696c74 	.inst	0x62696c74 ; undefined
   87b36:	6372735c 	.inst	0x6372735c ; undefined
   87b3a:	7375725c 	.inst	0x7375725c ; undefined
   87b3e:	696c5c74 	ldpsw	x20, x23, [x3, #-160]
   87b42:	72617262 	.inst	0x72617262 ; undefined
   87b46:	6f635c79 	.inst	0x6f635c79 ; undefined
   87b4a:	735c6572 	.inst	0x735c6572 ; undefined
   87b4e:	665c6372 	.inst	0x665c6372 ; undefined
   87b52:	625c746d 	.inst	0x625c746d ; undefined
   87b56:	646c6975 	.inst	0x646c6975 ; undefined
   87b5a:	2e737265 	uabdl	v5.4s, v19.4h, v19.4h
   87b5e:	7ae27372 	.inst	0x7ae27372 ; undefined
   87b62:	00000008 	udf	#8
   87b66:	007e0000 	.inst	0x007e0000 ; undefined
   87b6a:	00000000 	udf	#0
   87b6e:	00320000 	.inst	0x00320000 ; NYI
   87b72:	00210000 	.inst	0x00210000 ; NYI
   87b76:	7ae20000 	.inst	0x7ae20000 ; undefined
   87b7a:	00000008 	udf	#8
   87b7e:	007e0000 	.inst	0x007e0000 ; undefined
   87b82:	00000000 	udf	#0
   87b86:	00330000 	.inst	0x00330000 ; NYI
   87b8a:	00120000 	.inst	0x00120000 ; undefined
	...

0000000000087b90 <anon.8b678f236d690956eb0281bd8054fce2.8.llvm.17280607647294964220>:
   87b90:	 	.inst	0x3a0a7b20 ; undefined

0000000000087b93 <anon.8b678f236d690956eb0281bd8054fce2.9.llvm.17280607647294964220>:
   87b93:	 	bic	w26, w1, w12, lsl #8

0000000000087b95 <anon.8b678f236d690956eb0281bd8054fce2.10.llvm.17280607647294964220>:
   87b95:	 	.inst	0x202c0a2c ; undefined

0000000000087b97 <anon.8b678f236d690956eb0281bd8054fce2.11.llvm.17280607647294964220>:
   87b97:	 	.inst	0x7b20202c ; undefined

0000000000087b99 <anon.8b678f236d690956eb0281bd8054fce2.12.llvm.17280607647294964220>:
   87b99:	 	str	h0, [x25, #4156]

0000000000087b9c <anon.8b678f236d690956eb0281bd8054fce2.14.llvm.17280607647294964220>:
   87b9c:	 	ldnp	w29, w8, [x3, #-24]

0000000000087b9d <anon.8b678f236d690956eb0281bd8054fce2.17.llvm.17280607647294964220>:
   87b9d:	 	bic	w0, w9, w8, lsl #31

0000000000087b9f <anon.8b678f236d690956eb0281bd8054fce2.18.llvm.17280607647294964220>:
   87b9f:	 	stnp	s8, s2, [x17, #-192]

0000000000087ba1 <anon.8b678f236d690956eb0281bd8054fce2.19.llvm.17280607647294964220>:
   87ba1:	 	.inst	0x00292c28 ; NYI

0000000000087ba2 <anon.8b678f236d690956eb0281bd8054fce2.20.llvm.17280607647294964220>:
   87ba2:	 	udf	#10540

0000000000087ba3 <anon.8b678f236d690956eb0281bd8054fce2.21.llvm.17280607647294964220>:
   87ba3:	00000029 	udf	#41
   87ba7:	083e4c00 	.inst	0x083e4c00 ; undefined
   87bab:	00000000 	udf	#0
   87baf:	00000800 	udf	#2048
   87bb3:	00000000 	udf	#0
   87bb7:	00000800 	udf	#2048
   87bbb:	00000000 	udf	#0
   87bbf:	0846a800 	ldaxrb	w0, [x0]
   87bc3:	00000000 	udf	#0
   87bc7:	0846b000 	ldaxrb	w0, [x0]
   87bcb:	00000000 	udf	#0
   87bcf:	08479400 	ldaxrb	w0, [x0]
   87bd3:	00000000 	udf	#0
   87bd7:	083e4c00 	.inst	0x083e4c00 ; undefined
   87bdb:	00000000 	udf	#0
   87bdf:	00000800 	udf	#2048
   87be3:	00000000 	udf	#0
   87be7:	00000800 	udf	#2048
   87beb:	00000000 	udf	#0
   87bef:	08689000 	.inst	0x08689000 ; undefined
   87bf3:	00000000 	udf	#0
   87bf7:	79614c00 	ldrh	w0, [x0, #4262]
   87bfb:	7374756f 	.inst	0x7374756f ; undefined
   87bff:	5f657a69 	sqdmlsl	s9, h19, v5.h[6]
   87c03:	67696c61 	.inst	0x67696c61 ; undefined
   87c07:	00005f6e 	udf	#24430
   87c0b:	00000000 	udf	#0
   87c0f:	083e4c00 	.inst	0x083e4c00 ; undefined
   87c13:	00000000 	udf	#0
   87c17:	00000800 	udf	#2048
   87c1b:	00000000 	udf	#0
   87c1f:	00000800 	udf	#2048
   87c23:	00000000 	udf	#0
   87c27:	0856fc00 	ldaxrb	w0, [x0]
   87c2b:	00000000 	udf	#0
   87c2f:	79614c00 	ldrh	w0, [x0, #4262]
   87c33:	4574756f 	subhnt	z15.b, z11.h, z20.h
   87c37:	726f7272 	.inst	0x726f7272 ; undefined
   87c3b:	00000000 	udf	#0
   87c3f:	00000100 	udf	#256
   87c43:	00000000 	udf	#0
   87c47:	00001200 	udf	#4608
   87c4b:	00000000 	udf	#0
   87c4f:	6e617200 	uabdl2	v0.4s, v16.8h, v1.8h
   87c53:	65206567 	.inst	0x65206567 ; undefined
   87c57:	6920646e 	stgp	x14, x25, [x3, #-1024]
   87c5b:	7865646e 	.inst	0x7865646e ; undefined
   87c5f:	0848d420 	ldaxrb	w0, [x1]
	...
   87c6f:	00000100 	udf	#256
   87c73:	00000000 	udf	#0
   87c77:	084a5000 	ldxrb	w0, [x0]
   87c7b:	00000000 	udf	#0
   87c7f:	646e6900 	.inst	0x646e6900 ; undefined
   87c83:	6f207865 	.inst	0x6f207865 ; undefined
   87c87:	6f207475 	uqshl	v21.4s, v3.4s, #0
   87c8b:	6f622066 	umlal2	v6.4s, v3.8h, v2.h[2]
   87c8f:	73646e75 	.inst	0x73646e75 ; undefined
   87c93:	6874203a 	.inst	0x6874203a ; undefined
   87c97:	656c2065 	fmls	z5.h, p0/m, z3.h, z12.h
   87c9b:	7369206e 	.inst	0x7369206e ; undefined
   87c9f:	75622020 	.inst	0x75622020 ; undefined
   87ca3:	68742074 	.inst	0x68742074 ; undefined
   87ca7:	6e692065 	usubl2	v5.4s, v3.8h, v9.8h
   87cab:	20786564 	.inst	0x20786564 ; undefined
   87caf:	00207369 	.inst	0x00207369 ; NYI
   87cb3:	00000000 	udf	#0
   87cb7:	087c8000 	.inst	0x087c8000 ; undefined
   87cbb:	00000000 	udf	#0
   87cbf:	00002000 	udf	#8192
   87cc3:	00000000 	udf	#0
   87cc7:	087ca000 	.inst	0x087ca000 ; undefined
   87ccb:	00000000 	udf	#0
   87ccf:	00001200 	udf	#4608
   87cd3:	00000000 	udf	#0
   87cd7:	6e617200 	uabdl2	v0.4s, v16.8h, v1.8h
   87cdb:	73206567 	.inst	0x73206567 ; undefined
   87cdf:	74726174 	.inst	0x74726174 ; undefined
   87ce3:	646e6920 	.inst	0x646e6920 ; undefined
   87ce7:	20207865 	.inst	0x20207865 ; undefined
   87ceb:	2074756f 	.inst	0x2074756f ; undefined
   87cef:	7220666f 	ands	w15, w19, #0x3ffffff
   87cf3:	65676e61 	fnmls	z1.h, p3/m, z19.h, z7.h
   87cf7:	726f6620 	.inst	0x726f6620 ; undefined
   87cfb:	696c7320 	ldpsw	x0, x28, [x25, #-160]
   87cff:	6f206563 	sqshlu	v3.4s, v11.4s, #0
   87d03:	656c2066 	fmls	z6.h, p0/m, z3.h, z12.h
   87d07:	6874676e 	.inst	0x6874676e ; undefined
   87d0b:	00000020 	udf	#32
   87d0f:	087cd800 	.inst	0x087cd800 ; undefined
   87d13:	00000000 	udf	#0
   87d17:	00001200 	udf	#4608
   87d1b:	00000000 	udf	#0
   87d1f:	087cea00 	.inst	0x087cea00 ; undefined
   87d23:	00000000 	udf	#0
   87d27:	00002200 	udf	#8704
   87d2b:	00000000 	udf	#0
   87d2f:	087c5000 	.inst	0x087c5000 ; undefined
   87d33:	00000000 	udf	#0
   87d37:	00001000 	udf	#4096
   87d3b:	00000000 	udf	#0
   87d3f:	087cea00 	.inst	0x087cea00 ; undefined
   87d43:	00000000 	udf	#0
   87d47:	00002200 	udf	#8704
   87d4b:	00000000 	udf	#0
   87d4f:	696c7300 	ldpsw	x0, x28, [x24, #-160]
   87d53:	69206563 	stgp	x3, x25, [x11, #-1024]
   87d57:	7865646e 	.inst	0x7865646e ; undefined
   87d5b:	61747320 	.inst	0x61747320 ; undefined
   87d5f:	20737472 	.inst	0x20737472 ; undefined
   87d63:	20207461 	.inst	0x20207461 ; undefined
   87d67:	20747562 	.inst	0x20747562 ; undefined
   87d6b:	73646e65 	.inst	0x73646e65 ; undefined
   87d6f:	20746120 	.inst	0x20746120 ; undefined
   87d73:	00000000 	udf	#0
   87d77:	087d5000 	.inst	0x087d5000 ; undefined
   87d7b:	00000000 	udf	#0
   87d7f:	00001600 	udf	#5632
   87d83:	00000000 	udf	#0
   87d87:	087d6600 	.inst	0x087d6600 ; undefined
   87d8b:	00000000 	udf	#0
   87d8f:	00000d00 	udf	#3328
   87d93:	00000000 	udf	#0
   87d97:	087d9800 	.inst	0x087d9800 ; undefined
	...
   87da7:	002e2e00 	.inst	0x002e2e00 ; NYI
   87dab:	00000000 	udf	#0
   87daf:	087da800 	.inst	0x087da800 ; undefined
   87db3:	00000000 	udf	#0
   87db7:	00000200 	udf	#512
   87dbb:	00000000 	udf	#0
	...

0000000000087dc0 <anon.57ef2e3c02ffeaf529e6c598bd0b036c.8.llvm.5445877691761700591>:
   87dc0:	6c6c6163 	ldnp	d3, d24, [x11, #-320]
   87dc4:	60206465 	.inst	0x60206465 ; undefined
   87dc8:	6974704f 	ldpsw	x15, x28, [x2, #-96]
   87dcc:	3a3a6e6f 	.inst	0x3a3a6e6f ; undefined
   87dd0:	72776e75 	.inst	0x72776e75 ; undefined
   87dd4:	29287061 	stp	w1, w28, [x3, #-192]
   87dd8:	6e6f2060 	usubl2	v0.4s, v3.8h, v15.8h
   87ddc:	60206120 	.inst	0x60206120 ; undefined
   87de0:	656e6f4e 	fnmls	z14.h, p3/m, z26.h, z14.h
   87de4:	61762060 	.inst	0x61762060 ; undefined
   87de8:	4365756c 	.inst	0x4365756c ; undefined
   87dec:	73555c3a 	.inst	0x73555c3a ; undefined
   87df0:	5c737265 	ldr	d5, 16ec3c <HEAP_START+0xe60ac>
   87df4:	65736f4d 	fnmls	z13.h, p3/m, z26.h, z19.h
   87df8:	72462073 	.inst	0x72462073 ; undefined
   87dfc:	696b6d75 	ldpsw	x21, x27, [x11, #-168]
   87e00:	722e5c6e 	ands	w14, w3, #0xfffc03ff
   87e04:	75747375 	.inst	0x75747375 ; undefined
   87e08:	6f745c70 	.inst	0x6f745c70 ; undefined
   87e0c:	68636c6f 	.inst	0x68636c6f ; undefined
   87e10:	736e6961 	.inst	0x736e6961 ; undefined
   87e14:	67696e5c 	.inst	0x67696e5c ; undefined
   87e18:	796c7468 	ldrh	w8, [x3, #5690]
   87e1c:	3638782d 	tbz	w13, #7, 88d20 <HEAP_START+0x190>
   87e20:	2d34365f 	stp	s31, s13, [x18, #-96]
   87e24:	772d6370 	.inst	0x772d6370 ; undefined
   87e28:	6f646e69 	.inst	0x6f646e69 ; undefined
   87e2c:	6d2d7377 	stp	d23, d28, [x27, #-304]
   87e30:	5c637673 	ldr	d19, 14ecfc <HEAP_START+0xc616c>
   87e34:	5c62696c 	ldr	d12, 14cb60 <HEAP_START+0xc3fd0>
   87e38:	74737572 	.inst	0x74737572 ; undefined
   87e3c:	5c62696c 	ldr	d12, 14cb68 <HEAP_START+0xc3fd8>
   87e40:	5c637273 	ldr	d19, 14ec8c <HEAP_START+0xc60fc>
   87e44:	74737572 	.inst	0x74737572 ; undefined
   87e48:	62696c5c 	.inst	0x62696c5c ; undefined
   87e4c:	79726172 	ldrh	w18, [x11, #6448]
   87e50:	726f635c 	.inst	0x726f635c ; undefined
   87e54:	72735c65 	.inst	0x72735c65 ; undefined
   87e58:	6e755c63 	uqrshl	v3.8h, v3.8h, v21.8h
   87e5c:	646f6369 	.inst	0x646f6369 ; undefined
   87e60:	72705c65 	.inst	0x72705c65 ; undefined
   87e64:	61746e69 	.inst	0x61746e69 ; undefined
   87e68:	2e656c62 	umin	v2.4h, v3.4h, v5.4h
   87e6c:	00007372 	udf	#29554
   87e70:	00087deb 	.inst	0x00087deb ; undefined
   87e74:	00000000 	udf	#0
   87e78:	00000083 	udf	#131
   87e7c:	00000000 	udf	#0
   87e80:	0000000a 	udf	#10
   87e84:	0000001c 	udf	#28
   87e88:	00087deb 	.inst	0x00087deb ; undefined
   87e8c:	00000000 	udf	#0
   87e90:	00000083 	udf	#131
   87e94:	00000000 	udf	#0
   87e98:	0000001a 	udf	#26
   87e9c:	00000036 	udf	#54

0000000000087ea0 <anon.57ef2e3c02ffeaf529e6c598bd0b036c.15.llvm.5445877691761700591>:
   87ea0:	05030100 	orr	z0.d, z0.d, #0x1ff00000000
   87ea4:	03060605 	.inst	0x03060605 ; undefined
   87ea8:	08080607 	stxrb	w8, w7, [x16]
   87eac:	1c0a1109 	ldr	s9, 9c0cc <HEAP_START+0x1353c>
   87eb0:	140c190b 	b	38e2dc <HEAP_START+0x30574c>
   87eb4:	0d0e100d 	.inst	0x0d0e100d ; undefined
   87eb8:	0310040f 	.inst	0x0310040f ; undefined
   87ebc:	09131212 	.inst	0x09131212 ; undefined
   87ec0:	05170116 	mov	z22.b, p7/z, #8
   87ec4:	03190218 	.inst	0x03190218 ; undefined
   87ec8:	021c071a 	.inst	0x021c071a ; undefined
   87ecc:	161f011d 	b	fffffffff8848340 <HEAP_START+0xfffffffff87bf7b0>
   87ed0:	032b0320 	.inst	0x032b0320 ; undefined
   87ed4:	0b2d022c 	add	w12, w17, w13, uxtb
   87ed8:	0330012e 	.inst	0x0330012e ; undefined
   87edc:	01320231 	.inst	0x01320231 ; undefined
   87ee0:	02a902a7 	.inst	0x02a902a7 ; undefined
   87ee4:	08ab04aa 	.inst	0x08ab04aa ; undefined
   87ee8:	05fb02fa 	.inst	0x05fb02fa ; undefined
   87eec:	03fe04fd 	.inst	0x03fe04fd ; undefined
   87ef0:	 	.inst	0x78ad09ff ; undefined

0000000000087ef2 <anon.57ef2e3c02ffeaf529e6c598bd0b036c.16.llvm.5445877691761700591>:
   87ef2:	8b7978ad 	.inst	0x8b7978ad ; undefined
   87ef6:	5730a28d 	.inst	0x5730a28d ; undefined
   87efa:	908c8b58 	adrp	x24, ffffffff191ef000 <HEAP_START+0xffffffff19166470>
   87efe:	0edd1d1c 	.inst	0x0edd1d1c ; undefined
   87f02:	fb4c4b0f 	.inst	0xfb4c4b0f ; undefined
   87f06:	3f2f2efc 	.inst	0x3f2f2efc ; undefined
   87f0a:	b55f5d5c 	cbnz	x28, 146ab2 <HEAP_START+0xbdf22>
   87f0e:	8e8d84e2 	.inst	0x8e8d84e2 ; undefined
   87f12:	b1a99291 	.inst	0xb1a99291 ; undefined
   87f16:	c6c5bbba 	.inst	0xc6c5bbba ; undefined
   87f1a:	e4decac9 	st1h	{z9.s}, p2, [x22, z30.s, sxtw]
   87f1e:	0400ffe5 	msb	z5.b, p7/m, z0.b, z31.b
   87f22:	31291211 	adds	w17, w16, #0xa44
   87f26:	3b3a3734 	.inst	0x3b3a3734 ; undefined
   87f2a:	5d4a493d 	.inst	0x5d4a493d ; undefined
   87f2e:	a9928e84 	stp	x4, x3, [x20, #296]!
   87f32:	bbbab4b1 	.inst	0xbbbab4b1 ; undefined
   87f36:	cfcecac6 	.inst	0xcfcecac6 ; undefined
   87f3a:	0400e5e4 	msb	z4.b, p1/m, z0.b, z15.b
   87f3e:	12110e0d 	and	w13, w16, #0x78000
   87f42:	3a343129 	.inst	0x3a343129 ; undefined
   87f46:	4946453b 	.inst	0x4946453b ; undefined
   87f4a:	65645e4a 	fnmla	z10.h, p7/m, z18.h, z4.h
   87f4e:	9d9b9184 	.inst	0x9d9b9184 ; undefined
   87f52:	0dcfcec9 	ld1r	{v9.1d}, [x22], x15
   87f56:	49452911 	.inst	0x49452911 ; undefined
   87f5a:	8d656457 	.inst	0x8d656457 ; undefined
   87f5e:	bab4a991 	.inst	0xbab4a991 ; undefined
   87f62:	dfc9c5bb 	.inst	0xdfc9c5bb ; undefined
   87f66:	0df0e5e4 	ld4r	{v4.4h-v7.4h}, [x15], x16
   87f6a:	64494511 	fcmla	z17.h, p1/m, z8.h, z9.h, #180
   87f6e:	b2848065 	.inst	0xb2848065 ; undefined
   87f72:	d5bfbebc 	.inst	0xd5bfbebc ; undefined
   87f76:	83f1f0d7 	.inst	0x83f1f0d7 ; undefined
   87f7a:	a6a48b85 	.inst	0xa6a48b85 ; undefined
   87f7e:	c7c5bfbe 	.inst	0xc7c5bfbe ; undefined
   87f82:	dbdacfce 	.inst	0xdbdacfce ; undefined
   87f86:	cdbd9848 	.inst	0xcdbd9848 ; undefined
   87f8a:	49cfcec6 	.inst	0x49cfcec6 ; undefined
   87f8e:	59574f4e 	.inst	0x59574f4e ; undefined
   87f92:	8e895f5e 	.inst	0x8e895f5e ; undefined
   87f96:	b7b6b18f 	tbnz	x15, #54, 855c6 <_ZN4core3str16slice_error_fail17h0a884f572164fefcE+0x1ee>
   87f9a:	c7c6c1bf 	.inst	0xc7c6c1bf ; undefined
   87f9e:	171611d7 	b	fffffffffc60c6fa <HEAP_START+0xfffffffffc583b6a>
   87fa2:	f7f65c5b 	.inst	0xf7f65c5b ; undefined
   87fa6:	0d80fffe 	.inst	0x0d80fffe ; undefined
   87faa:	dfde716d 	.inst	0xdfde716d ; undefined
   87fae:	6e1f0f0e 	mov	v14.b[15], v24.b[1]
   87fb2:	5f1d1c6f 	.inst	0x5f1d1c6f ; undefined
   87fb6:	afae7e7d 	.inst	0xafae7e7d ; undefined
   87fba:	16fabcbb 	b	fffffffffbf372a6 <HEAP_START+0xfffffffffbeae716>
   87fbe:	461f1e17 	.inst	0x461f1e17 ; undefined
   87fc2:	584f4e47 	ldr	x7, 12698a <HEAP_START+0x9ddfa>
   87fc6:	7e5e5c5a 	.inst	0x7e5e5c5a ; undefined
   87fca:	d4c5b57f 	.inst	0xd4c5b57f ; undefined
   87fce:	f1f0dcd5 	.inst	0xf1f0dcd5 ; undefined
   87fd2:	8f7372f5 	.inst	0x8f7372f5 ; undefined
   87fd6:	2f967574 	.inst	0x2f967574 ; undefined
   87fda:	2f2e265f 	urshr	v31.2s, v18.2s, #18
   87fde:	bfb7afa7 	.inst	0xbfb7afa7 ; undefined
   87fe2:	dfd7cfc7 	.inst	0xdfd7cfc7 ; undefined
   87fe6:	9897409a 	ldrsw	x26, fffffffffffb67f6 <HEAP_START+0xfffffffffff2dc66>
   87fea:	c01f8f30 	.inst	0xc01f8f30 ; undefined
   87fee:	4effcec1 	fmls	v1.2d, v22.2d, v31.2d
   87ff2:	075b5a4f 	.inst	0x075b5a4f ; undefined
   87ff6:	27100f08 	.inst	0x27100f08 ; undefined
   87ffa:	6eefee2f 	facgt	v15.2d, v17.2d, v15.2d
   87ffe:	3f3d376f 	.inst	0x3f3d376f ; undefined
   88002:	91904542 	.inst	0x91904542 ; undefined
   88006:	6753fffe 	.inst	0x6753fffe ; undefined
   8800a:	d0c9c875 	adrp	x21, ffffffff93996000 <HEAP_START+0xffffffff9390d470>
   8800e:	e7d9d8d1 	.inst	0xe7d9d8d1 ; undefined
   88012:	 	.inst	0x2000fffe ; undefined

0000000000088014 <anon.57ef2e3c02ffeaf529e6c598bd0b036c.17.llvm.5445877691761700591>:
   88014:	225f2000 	.inst	0x225f2000 ; undefined
   88018:	8204df82 	.inst	0x8204df82 ; undefined
   8801c:	041b0844 	bic	z4.b, p2/m, z4.b, z2.b
   88020:	ac811106 	stp	q6, q4, [x8], #32
   88024:	35ab800e 	cbnz	w14, fffffffffffdf024 <HEAP_START+0xfffffffffff56494>
   88028:	e0800b28 	.inst	0xe0800b28 ; undefined
   8802c:	01081903 	.inst	0x01081903 ; undefined
   88030:	34042f04 	cbz	w4, 90610 <HEAP_START+0x7a80>
   88034:	01030704 	.inst	0x01030704 ; undefined
   88038:	11070607 	add	w7, w16, #0x1c1
   8803c:	120f500a 	and	w10, w0, #0xfffe003f
   88040:	03075507 	.inst	0x03075507 ; undefined
   88044:	090a1c04 	.inst	0x090a1c04 ; undefined
   88048:	07030803 	.inst	0x07030803 ; undefined
   8804c:	03030203 	.inst	0x03030203 ; undefined
   88050:	05040c03 	.inst	0x05040c03 ; undefined
   88054:	01060b03 	.inst	0x01060b03 ; undefined
   88058:	3a05150e 	.inst	0x3a05150e ; undefined
   8805c:	06071103 	.inst	0x06071103 ; undefined
   88060:	57071005 	.inst	0x57071005 ; undefined
   88064:	15070207 	b	4248880 <HEAP_START+0x41bfcf0>
   88068:	4304500d 	.inst	0x4304500d ; undefined
   8806c:	01032d03 	.inst	0x01032d03 ; undefined
   88070:	0f061104 	fmla	v4.4h, v8.4h, v6.h[0]
   88074:	1d043a0c 	.inst	0x1d043a0c ; undefined
   88078:	6d205f25 	stp	d5, d23, [x25, #-512]
   8807c:	80256a04 	.inst	0x80256a04 ; NYI
   88080:	b08205c8 	adrp	x8, ffffffff04141000 <HEAP_START+0xffffffff040b8470>
   88084:	82061a03 	.inst	0x82061a03 ; undefined
   88088:	075903fd 	.inst	0x075903fd ; undefined
   8808c:	09170b15 	.inst	0x09170b15 ; undefined
   88090:	0c140c14 	.inst	0x0c140c14 ; undefined
   88094:	060a066a 	.inst	0x060a066a ; undefined
   88098:	0759061a 	.inst	0x0759061a ; undefined
   8809c:	0a46052b 	and	w11, w9, w6, lsr #1
   880a0:	040c042c 	sabd	z12.b, p1/m, z12.b, z1.b
   880a4:	0b310301 	add	w1, w24, w17, uxtb
   880a8:	061a042c 	.inst	0x061a042c ; undefined
   880ac:	ac80030b 	stp	q11, q0, [x24], #0
   880b0:	21060a06 	.inst	0x21060a06 ; undefined
   880b4:	2d044c3f 	stp	s31, s19, [x1, #32]
   880b8:	3c087403 	str	b3, [x0], #135
   880bc:	3c030f03 	str	b3, [x24, #48]!
   880c0:	2b083807 	adds	w7, w0, w8, lsl #14
   880c4:	11ff8205 	.inst	0x11ff8205 ; undefined
   880c8:	112f0818 	add	w24, w0, #0xbc2
   880cc:	1020032d 	adr	x13, c8130 <HEAP_START+0x3f5a0>
   880d0:	8c800f21 	.inst	0x8c800f21 ; undefined
   880d4:	19978204 	ldapursb	x4, [x16, #-136]
   880d8:	9488150b 	bl	228d504 <HEAP_START+0x2204974>
   880dc:	3b052f05 	.inst	0x3b052f05 ; undefined
   880e0:	180e0207 	ldr	w7, a4120 <HEAP_START+0x1b590>
   880e4:	2db38009 	stp	s9, s0, [x0, #-100]!
   880e8:	d6800c74 	.inst	0xd6800c74 ; undefined
   880ec:	80050c1a 	.inst	0x80050c1a ; undefined
   880f0:	df8005ff 	.inst	0xdf8005ff ; undefined
   880f4:	030dee0c 	.inst	0x030dee0c ; undefined
   880f8:	37038d84 	tbnz	w4, #0, 8f2a8 <HEAP_START+0x6718>
   880fc:	145c8109 	b	17a8520 <HEAP_START+0x171f990>
   88100:	8008b880 	.inst	0x8008b880 ; undefined
   88104:	03382acb 	.inst	0x03382acb ; undefined
   88108:	0838060a 	.inst	0x0838060a ; undefined
   8810c:	060c0846 	.inst	0x060c0846 ; undefined
   88110:	031e0b74 	.inst	0x031e0b74 ; undefined
   88114:	0959045a 	.inst	0x0959045a ; undefined
   88118:	1c188380 	ldr	s0, b9188 <HEAP_START+0x305f8>
   8811c:	4c09160a 	.inst	0x4c09160a ; undefined
   88120:	068a8004 	.inst	0x068a8004 ; undefined
   88124:	170ca4ab 	b	fffffffffc3b13d0 <HEAP_START+0xfffffffffc328840>
   88128:	04a13104 	eor	z4.d, z8.d, z1.d
   8812c:	0726da81 	.inst	0x0726da81 ; undefined
   88130:	8005050c 	.inst	0x8005050c ; undefined
   88134:	6d8111a5 	stp	d5, d4, [x13, #16]!
   88138:	2a287810 	orn	w16, w0, w8, lsl #30
   8813c:	80044c06 	.inst	0x80044c06 ; undefined
   88140:	be80048d 	.inst	0xbe80048d ; undefined
   88144:	0f031b03 	fmla	v3.4h, v24.4h, v3.h[4]
   88148:	 	.inst	0x0106000d ; undefined

0000000000088149 <anon.57ef2e3c02ffeaf529e6c598bd0b036c.18.llvm.5445877691761700591>:
   88149:	01010600 	.inst	0x01010600 ; undefined
   8814d:	02040103 	.inst	0x02040103 ; undefined
   88151:	02090808 	.inst	0x02090808 ; undefined
   88155:	020b050a 	.inst	0x020b050a ; undefined
   88159:	0110040e 	.inst	0x0110040e ; undefined
   8815d:	05120211 	mov	z17.b, p2/z, #16
   88161:	01141113 	.inst	0x01141113 ; undefined
   88165:	02170215 	.inst	0x02170215 ; undefined
   88169:	051c0d19 	mov	z25.b, p12/z, #104
   8816d:	0124081d 	.inst	0x0124081d ; undefined
   88171:	026b036a 	.inst	0x026b036a ; undefined
   88175:	02d102bc 	.inst	0x02d102bc ; undefined
   88179:	09d50cd4 	.inst	0x09d50cd4 ; undefined
   8817d:	02d702d6 	.inst	0x02d702d6 ; undefined
   88181:	05e001da 	.inst	0x05e001da ; undefined
   88185:	02e802e1 	.inst	0x02e802e1 ; undefined
   88189:	04f020ee 	.inst	0x04f020ee ; undefined
   8818d:	02f902f8 	.inst	0x02f902f8 ; undefined
   88191:	01fb02fa 	.inst	0x01fb02fa ; undefined

0000000000088195 <anon.57ef2e3c02ffeaf529e6c598bd0b036c.19.llvm.5445877691761700591>:
   88195:	3e3b270c 	.inst	0x3e3b270c ; undefined
   88199:	9e8f4f4e 	.inst	0x9e8f4f4e ; undefined
   8819d:	07069f9e 	.inst	0x07069f9e ; undefined
   881a1:	3e3d3609 	.inst	0x3e3d3609 ; undefined
   881a5:	d1d0f356 	.inst	0xd1d0f356 ; undefined
   881a9:	36181404 	tbz	w4, #3, 88429 <anon.ef2124d7489b3658f16cf858d256e301.32.llvm.12547793553238377620+0x42>
   881ad:	7f575637 	sli	d23, d17, #23
   881b1:	bdafaeaa 	.inst	0xbdafaeaa ; undefined
   881b5:	8712e035 	.inst	0x8712e035 ; undefined
   881b9:	049e8e89 	.inst	0x049e8e89 ; undefined
   881bd:	12110e0d 	and	w13, w16, #0x78000
   881c1:	3a343129 	.inst	0x3a343129 ; undefined
   881c5:	4a494645 	eor	w5, w18, w9, lsr #17
   881c9:	65644f4e 	fnmla	z14.h, p3/m, z26.h, z4.h
   881cd:	1bb7b65c 	.inst	0x1bb7b65c ; undefined
   881d1:	0a08071c 	and	w28, w24, w8, lsl #1
   881d5:	3617140b 	tbz	w11, #2, 86455 <_ZN4core3fmt9Formatter3pad17h59d95a2e2006fc28E+0x391>
   881d9:	a9a83a39 	stp	x25, x14, [x17, #-384]!
   881dd:	3709d9d8 	tbnz	w24, #1, 8bd15 <HEAP_START+0x3185>
   881e1:	07a89190 	.inst	0x07a89190 ; undefined
   881e5:	663e3b0a 	.inst	0x663e3b0a ; undefined
   881e9:	6f928f69 	.inst	0x6f928f69 ; undefined
   881ed:	5aefee5f 	.inst	0x5aefee5f ; undefined
   881f1:	279b9a62 	.inst	0x279b9a62 ; undefined
   881f5:	a09d5528 	.inst	0xa09d5528 ; undefined
   881f9:	a7a4a3a1 	.inst	0xa7a4a3a1 ; undefined
   881fd:	bcbaada8 	.inst	0xbcbaada8 ; undefined
   88201:	0c0b06c4 	.inst	0x0c0b06c4 ; undefined
   88205:	3f3a1d15 	.inst	0x3f3a1d15 ; undefined
   88209:	a7a65145 	.inst	0xa7a65145 ; undefined
   8820d:	07a0cdcc 	.inst	0x07a0cdcc ; undefined
   88211:	25221a19 	whilehi	p9.b, x16, x2
   88215:	c6c53f3e 	.inst	0xc6c53f3e ; undefined
   88219:	25232004 	.inst	0x25232004 ; undefined
   8821d:	38332826 	.inst	0x38332826 ; undefined
   88221:	4c4a483a 	.inst	0x4c4a483a ; undefined
   88225:	56555350 	.inst	0x56555350 ; undefined
   88229:	5e5c5a58 	.inst	0x5e5c5a58 ; undefined
   8822d:	66656360 	.inst	0x66656360 ; undefined
   88231:	7d78736b 	ldr	h11, [x27, #7224]
   88235:	aaa48a7f 	orn	xzr, x19, x4, asr #34
   88239:	d0c0b0af 	adrp	x15, ffffffff8169e000 <HEAP_START+0xffffffff81615470>
   8823d:	cc79afae 	.inst	0xcc79afae ; undefined
   88241:	 	.inst	0x5e936f6e ; undefined

0000000000088244 <anon.57ef2e3c02ffeaf529e6c598bd0b036c.20.llvm.5445877691761700591>:
   88244:	057b225e 	mov	z30.b, z18.b[29]
   88248:	032d0403 	.inst	0x032d0403 ; undefined
   8824c:	2f010366 	.inst	0x2f010366 ; undefined
   88250:	1d82802e 	.inst	0x1d82802e ; undefined
   88254:	1c0f3103 	ldr	s3, a6874 <HEAP_START+0x1dce4>
   88258:	1e092404 	.inst	0x1e092404 ; undefined
   8825c:	44052b05 	cmla	z5.b, z24.b, z5.b, #180
   88260:	802a0e04 	.inst	0x802a0e04 ; NYI
   88264:	042406aa 	sub	z10.b, z21.b, z4.b
   88268:	08280424 	.inst	0x08280424 ; undefined
   8826c:	80010b34 	.inst	0x80010b34 ; undefined
   88270:	09378190 	.inst	0x09378190 ; undefined
   88274:	80080a16 	.inst	0x80080a16 ; undefined
   88278:	63033998 	.inst	0x63033998 ; undefined
   8827c:	16300908 	b	fffffffff8c8a69c <HEAP_START+0xfffffffff8c01b0c>
   88280:	1b032105 	madd	w5, w8, w3, w8
   88284:	38400105 	ldurb	w5, [x8]
   88288:	2f054b04 	.inst	0x2f054b04 ; undefined
   8828c:	09070a04 	.inst	0x09070a04 ; undefined
   88290:	27204007 	.inst	0x27204007 ; undefined
   88294:	36090c04 	tbz	w4, #1, 8a414 <HEAP_START+0x1884>
   88298:	1a053a03 	.inst	0x1a053a03 ; undefined
   8829c:	070c0407 	.inst	0x070c0407 ; undefined
   882a0:	33374950 	.inst	0x33374950 ; undefined
   882a4:	2e07330d 	ext	v13.8b, v24.8b, v7.8b, #6
   882a8:	26810a08 	.inst	0x26810a08 ; undefined
   882ac:	08284e52 	.inst	0x08284e52 ; undefined
   882b0:	141c562a 	b	79db58 <HEAP_START+0x714fc8>
   882b4:	044e0917 	.inst	0x044e0917 ; undefined
   882b8:	0e430f1e 	fmla	v30.4h, v24.4h, v3.4h
   882bc:	060a0719 	.inst	0x060a0719 ; undefined
   882c0:	09270848 	.inst	0x09270848 ; undefined
   882c4:	413f0b75 	.inst	0x413f0b75 ; undefined
   882c8:	053b062a 	ext	z10.b, z10.b, z17.b, #217
   882cc:	0651060a 	.inst	0x0651060a ; undefined
   882d0:	03100501 	.inst	0x03100501 ; undefined
   882d4:	628b8005 	.inst	0x628b8005 ; undefined
   882d8:	0a08481e 	and	w30, w0, w8, lsl #18
   882dc:	225ea680 	.inst	0x225ea680 ; undefined
   882e0:	060a0b45 	.inst	0x060a0b45 ; undefined
   882e4:	0739130d 	.inst	0x0739130d ; undefined
   882e8:	042c360a 	xar	z10.b, z10.b, z16.b, #4
   882ec:	3cc08010 	ldur	q16, [x0, #8]
   882f0:	480c5364 	stxrh	w12, w4, [x27]
   882f4:	45460a09 	uaddlb	z9.h, z16.b, z6.b
   882f8:	5308481b 	ubfx	w27, w0, #8, #11
   882fc:	0781391d 	.inst	0x0781391d ; undefined
   88300:	031d0a46 	.inst	0x031d0a46 ; undefined
   88304:	03374947 	.inst	0x03374947 ; undefined
   88308:	060a080e 	.inst	0x060a080e ; undefined
   8830c:	810a0739 	.inst	0x810a0739 ; undefined
   88310:	b7801936 	tbnz	x22, #48, 88634 <anon.f199e88e8ae5cdd0b58ec0c7667a1e0a.45.llvm.18267786270480924684+0xc>
   88314:	0d320f01 	.inst	0x0d320f01 ; undefined
   88318:	75669b83 	.inst	0x75669b83 ; undefined
   8831c:	8ac4800b 	and	x11, x0, x4, ror #32
   88320:	8f2f84bc 	.inst	0x8f2f84bc ; undefined
   88324:	a14782d1 	.inst	0xa14782d1 ; undefined
   88328:	073982b9 	.inst	0x073982b9 ; undefined
   8832c:	6002042a 	.inst	0x6002042a ; undefined
   88330:	0a460a26 	and	w6, w17, w6, lsr #2
   88334:	82130528 	.inst	0x82130528 ; undefined
   88338:	4b655bb0 	.inst	0x4b655bb0 ; undefined
   8833c:	11073904 	add	w4, w8, #0x1ce
   88340:	020b0540 	.inst	0x020b0540 ; undefined
   88344:	08f8970e 	.inst	0x08f8970e ; undefined
   88348:	092ad684 	.inst	0x092ad684 ; undefined
   8834c:	1f81f7a2 	.inst	0x1f81f7a2 ; undefined
   88350:	04110331 	.inst	0x04110331 ; undefined
   88354:	898c8108 	.inst	0x898c8108 ; undefined
   88358:	0d056b04 	.inst	0x0d056b04 ; undefined
   8835c:	10070903 	adr	x3, 9647c <HEAP_START+0xd8ec>
   88360:	f6806093 	.inst	0xf6806093 ; undefined
   88364:	6e08730a 	ext	v10.16b, v24.16b, v8.16b, #14
   88368:	9a804617 	csinc	x23, x16, x0, mi  // mi = first
   8836c:	09570c14 	.inst	0x09570c14 ; undefined
   88370:	81878019 	.inst	0x81878019 ; undefined
   88374:	42850347 	.inst	0x42850347 ; undefined
   88378:	5085150f 	adr	x15, fffffffffff9261a <HEAP_START+0xfffffffffff09a8a>
   8837c:	2dd5802b 	ldp	s11, s0, [x1, #172]!
   88380:	02041a03 	.inst	0x02041a03 ; undefined
   88384:	053a7081 	trn1	z1.b, z4.b, z26.b
   88388:	80008501 	.inst	0x80008501 ; undefined
   8838c:	044c29d7 	.inst	0x044c29d7 ; undefined
   88390:	8302040a 	.inst	0x8302040a ; undefined
   88394:	3d4c4411 	ldr	b17, [x0, #785]
   88398:	063cc280 	.inst	0x063cc280 ; undefined
   8839c:	05550401 	mov	z1.h, p5/z, #32
   883a0:	8102341b 	.inst	0x8102341b ; undefined
   883a4:	64042c0e 	.inst	0x64042c0e ; undefined
   883a8:	800a560c 	.inst	0x800a560c ; undefined
   883ac:	0d1d38ae 	.inst	0x0d1d38ae ; undefined
   883b0:	0709042c 	.inst	0x0709042c ; undefined
   883b4:	80060e02 	.inst	0x80060e02 ; undefined
   883b8:	08d8839a 	.inst	0x08d8839a ; undefined
   883bc:	030d030d 	.inst	0x030d030d ; undefined
   883c0:	07590c74 	.inst	0x07590c74 ; undefined
   883c4:	040c140c 	sabd	z12.b, p5/m, z12.b, z0.b
   883c8:	060a0838 	.inst	0x060a0838 ; undefined
   883cc:	4e220828 	.inst	0x4e220828 ; undefined
   883d0:	150c5481 	b	439d5d4 <HEAP_START+0x4314a44>
   883d4:	07050303 	.inst	0x07050303 ; undefined
   883d8:	07071909 	.inst	0x07071909 ; undefined
   883dc:	070d0309 	.inst	0x070d0309 ; undefined
   883e0:	25cb8029 	cmpeq	p9.d, p0/z, z1.d, #11
   883e4:	 	.inst	0x4306840a ; undefined

00000000000883e7 <anon.ef2124d7489b3658f16cf858d256e301.32.llvm.12547793553238377620>:
   883e7:	555c3a43 	.inst	0x555c3a43 ; undefined
   883eb:	73726573 	.inst	0x73726573 ; undefined
   883ef:	736f4d5c 	.inst	0x736f4d5c ; undefined
   883f3:	46207365 	.inst	0x46207365 ; undefined
   883f7:	6b6d7572 	.inst	0x6b6d7572 ; undefined
   883fb:	2e5c6e69 	.inst	0x2e5c6e69 ; undefined
   883ff:	74737572 	.inst	0x74737572 ; undefined
   88403:	745c7075 	.inst	0x745c7075 ; undefined
   88407:	636c6f6f 	.inst	0x636c6f6f ; undefined
   8840b:	6e696168 	rsubhn2	v8.8h, v11.4s, v9.4s
   8840f:	696e5c73 	ldpsw	x19, x23, [x3, #-144]
   88413:	6c746867 	ldnp	d7, d26, [x3, #-192]
   88417:	38782d79 	.inst	0x38782d79 ; undefined
   8841b:	34365f36 	cbz	w22, f4fff <HEAP_START+0x6c46f>
   8841f:	2d63702d 	ldp	s13, s28, [x1, #-232]
   88423:	646e6977 	.inst	0x646e6977 ; undefined
   88427:	2d73776f 	ldp	s15, s29, [x27, #-104]
   8842b:	6376736d 	.inst	0x6376736d ; undefined
   8842f:	62696c5c 	.inst	0x62696c5c ; undefined
   88433:	7375725c 	.inst	0x7375725c ; undefined
   88437:	62696c74 	.inst	0x62696c74 ; undefined
   8843b:	6372735c 	.inst	0x6372735c ; undefined
   8843f:	7375725c 	.inst	0x7375725c ; undefined
   88443:	696c5c74 	ldpsw	x20, x23, [x3, #-160]
   88447:	72617262 	.inst	0x72617262 ; undefined
   8844b:	6f635c79 	.inst	0x6f635c79 ; undefined
   8844f:	735c6572 	.inst	0x735c6572 ; undefined
   88453:	735c6372 	.inst	0x735c6372 ; undefined
   88457:	6563696c 	fnmls	z12.h, p2/m, z11.h, z3.h
   8845b:	6d656d5c 	ldp	d28, d27, [x10, #-432]
   8845f:	2e726863 	.inst	0x2e726863 ; undefined
   88463:	00007372 	udf	#29554
	...

0000000000088468 <anon.ef2124d7489b3658f16cf858d256e301.33.llvm.12547793553238377620>:
   88468:	000883e7 	.inst	0x000883e7 ; undefined
   8846c:	00000000 	udf	#0
   88470:	0000007e 	udf	#126
   88474:	00000000 	udf	#0
   88478:	0000005a 	udf	#90
   8847c:	00000005 	udf	#5
   88480:	00000001 	udf	#1
	...
   88490:	68772029 	.inst	0x68772029 ; undefined
   88494:	73206e65 	.inst	0x73206e65 ; undefined
   88498:	6963696c 	ldpsw	x12, x26, [x11, #-232]
   8849c:	6020676e 	.inst	0x6020676e ; undefined
   884a0:	00110000 	.inst	0x00110000 ; undefined
   884a4:	00000000 	udf	#0
   884a8:	79622820 	ldrh	w0, [x1, #4372]
   884ac:	20736574 	.inst	0x20736574 ; undefined
   884b0:	69637341 	ldpsw	x1, x28, [x26, #-232]
   884b4:	72745369 	.inst	0x72745369 ; undefined
   884b8:	73616942 	.inst	0x73616942 ; undefined
   884bc:	70466465 	adr	x5, 11514b <HEAP_START+0x8c5bb>
   884c0:	7265764f 	.inst	0x7265764f ; undefined
   884c4:	776f6c66 	.inst	0x776f6c66 ; undefined
   884c8:	6c6c6163 	ldnp	d3, d24, [x11, #-320]
   884cc:	60206465 	.inst	0x60206465 ; undefined
   884d0:	6974704f 	ldpsw	x15, x28, [x2, #-96]
   884d4:	3a3a6e6f 	.inst	0x3a3a6e6f ; undefined
   884d8:	72776e75 	.inst	0x72776e75 ; undefined
   884dc:	29287061 	stp	w1, w28, [x3, #-192]
   884e0:	6e6f2060 	usubl2	v0.4s, v3.8h, v15.8h
   884e4:	60206120 	.inst	0x60206120 ; undefined
   884e8:	656e6f4e 	fnmls	z14.h, p3/m, z26.h, z14.h
   884ec:	61762060 	.inst	0x61762060 ; undefined
   884f0:	5b65756c 	.inst	0x5b65756c ; undefined
   884f4:	5d2e2e2e 	.inst	0x5d2e2e2e ; undefined
   884f8:	65747962 	fnmls	z2.h, p6/m, z11.h, z20.h
   884fc:	646e6920 	.inst	0x646e6920 ; undefined
   88500:	20207865 	.inst	0x20207865 ; undefined
   88504:	6f207369 	.inst	0x6f207369 ; undefined
   88508:	6f207475 	uqshl	v21.4s, v3.4s, #0
   8850c:	6f622066 	umlal2	v6.4s, v3.8h, v2.h[2]
   88510:	73646e75 	.inst	0x73646e75 ; undefined
   88514:	20666f20 	.inst	0x20666f20 ; undefined
   88518:	00006060 	udf	#24672
   8851c:	00000000 	udf	#0
   88520:	000884f8 	.inst	0x000884f8 ; undefined
   88524:	00000000 	udf	#0
   88528:	0000000b 	udf	#11
   8852c:	00000000 	udf	#0
   88530:	00088503 	.inst	0x00088503 ; undefined
   88534:	00000000 	udf	#0
   88538:	00000016 	udf	#22
   8853c:	00000000 	udf	#0
   88540:	00088519 	.inst	0x00088519 ; undefined
   88544:	00000000 	udf	#0
   88548:	00000001 	udf	#1
   8854c:	00000000 	udf	#0
   88550:	69676562 	ldpsw	x2, x25, [x11, #-200]
   88554:	3d3c206e 	str	b14, [x3, #3848]
   88558:	646e6520 	.inst	0x646e6520 ; undefined
   8855c:	3c202820 	.inst	0x3c202820 ; undefined
   88560:	696b203d 	ldpsw	x29, x8, [x1, #-168]
   88564:	0000646e 	udf	#25710
   88568:	00088550 	.inst	0x00088550 ; undefined
   8856c:	00000000 	udf	#0
   88570:	0000000e 	udf	#14
   88574:	00000000 	udf	#0
   88578:	0008855e 	.inst	0x0008855e ; undefined
   8857c:	00000000 	udf	#0
   88580:	00000004 	udf	#4
   88584:	00000000 	udf	#0
   88588:	00088490 	.inst	0x00088490 ; undefined
   8858c:	00000000 	udf	#0
   88590:	00000010 	udf	#16
   88594:	00000000 	udf	#0
   88598:	00088519 	.inst	0x00088519 ; undefined
   8859c:	00000000 	udf	#0
   885a0:	00000001 	udf	#1
   885a4:	00000000 	udf	#0
   885a8:	20736920 	.inst	0x20736920 ; undefined
   885ac:	20746f6e 	.inst	0x20746f6e ; undefined
   885b0:	68632061 	.inst	0x68632061 ; undefined
   885b4:	62207261 	.inst	0x62207261 ; undefined
   885b8:	646e756f 	.inst	0x646e756f ; undefined
   885bc:	3b797261 	.inst	0x3b797261 ; undefined
   885c0:	20746920 	.inst	0x20746920 ; undefined
   885c4:	69207369 	stgp	x9, x28, [x27, #-1024]
   885c8:	6469736e 	.inst	0x6469736e ; undefined
   885cc:	20292065 	.inst	0x20292065 ; undefined
   885d0:	6020666f 	.inst	0x6020666f ; undefined
   885d4:	00000000 	udf	#0
   885d8:	000884f8 	.inst	0x000884f8 ; undefined
   885dc:	00000000 	udf	#0
   885e0:	0000000b 	udf	#11
   885e4:	00000000 	udf	#0
   885e8:	000885a8 	.inst	0x000885a8 ; undefined
   885ec:	00000000 	udf	#0
   885f0:	00000026 	udf	#38
   885f4:	00000000 	udf	#0
   885f8:	000884a8 	.inst	0x000884a8 ; undefined
   885fc:	00000000 	udf	#0
   88600:	00000008 	udf	#8
   88604:	00000000 	udf	#0
   88608:	000885ce 	.inst	0x000885ce ; undefined
   8860c:	00000000 	udf	#0
   88610:	00000006 	udf	#6
   88614:	00000000 	udf	#0
   88618:	00088519 	.inst	0x00088519 ; undefined
   8861c:	00000000 	udf	#0
   88620:	00000001 	udf	#1
   88624:	00000000 	udf	#0

0000000000088628 <anon.f199e88e8ae5cdd0b58ec0c7667a1e0a.45.llvm.18267786270480924684>:
   88628:	555c3a43 	.inst	0x555c3a43 ; undefined
   8862c:	73726573 	.inst	0x73726573 ; undefined
   88630:	736f4d5c 	.inst	0x736f4d5c ; undefined
   88634:	46207365 	.inst	0x46207365 ; undefined
   88638:	6b6d7572 	.inst	0x6b6d7572 ; undefined
   8863c:	2e5c6e69 	.inst	0x2e5c6e69 ; undefined
   88640:	74737572 	.inst	0x74737572 ; undefined
   88644:	745c7075 	.inst	0x745c7075 ; undefined
   88648:	636c6f6f 	.inst	0x636c6f6f ; undefined
   8864c:	6e696168 	rsubhn2	v8.8h, v11.4s, v9.4s
   88650:	696e5c73 	ldpsw	x19, x23, [x3, #-144]
   88654:	6c746867 	ldnp	d7, d26, [x3, #-192]
   88658:	38782d79 	.inst	0x38782d79 ; undefined
   8865c:	34365f36 	cbz	w22, f5240 <HEAP_START+0x6c6b0>
   88660:	2d63702d 	ldp	s13, s28, [x1, #-232]
   88664:	646e6977 	.inst	0x646e6977 ; undefined
   88668:	2d73776f 	ldp	s15, s29, [x27, #-104]
   8866c:	6376736d 	.inst	0x6376736d ; undefined
   88670:	62696c5c 	.inst	0x62696c5c ; undefined
   88674:	7375725c 	.inst	0x7375725c ; undefined
   88678:	62696c74 	.inst	0x62696c74 ; undefined
   8867c:	6372735c 	.inst	0x6372735c ; undefined
   88680:	7375725c 	.inst	0x7375725c ; undefined
   88684:	696c5c74 	ldpsw	x20, x23, [x3, #-160]
   88688:	72617262 	.inst	0x72617262 ; undefined
   8868c:	6f635c79 	.inst	0x6f635c79 ; undefined
   88690:	735c6572 	.inst	0x735c6572 ; undefined
   88694:	755c6372 	.inst	0x755c6372 ; undefined
   88698:	6f63696e 	umlsl2	v14.4s, v11.8h, v3.h[6]
   8869c:	755c6564 	.inst	0x755c6564 ; undefined
   886a0:	6f63696e 	umlsl2	v14.4s, v11.8h, v3.h[6]
   886a4:	645f6564 	fcmla	z4.h, p1/m, z11.h, z31.h, #270
   886a8:	2e617461 	uabd	v1.4h, v3.4h, v1.4h
   886ac:	00007372 	udf	#29554

00000000000886b0 <anon.f199e88e8ae5cdd0b58ec0c7667a1e0a.46.llvm.18267786270480924684>:
   886b0:	00088628 	.inst	0x00088628 ; undefined
   886b4:	00000000 	udf	#0
   886b8:	00000086 	udf	#134
   886bc:	00000000 	udf	#0
   886c0:	0000004b 	udf	#75
   886c4:	00000028 	udf	#40

00000000000886c8 <anon.f199e88e8ae5cdd0b58ec0c7667a1e0a.47.llvm.18267786270480924684>:
   886c8:	00088628 	.inst	0x00088628 ; undefined
   886cc:	00000000 	udf	#0
   886d0:	00000086 	udf	#134
   886d4:	00000000 	udf	#0
   886d8:	00000057 	udf	#87
   886dc:	00000016 	udf	#22

00000000000886e0 <anon.f199e88e8ae5cdd0b58ec0c7667a1e0a.48.llvm.18267786270480924684>:
   886e0:	00088628 	.inst	0x00088628 ; undefined
   886e4:	00000000 	udf	#0
   886e8:	00000086 	udf	#134
   886ec:	00000000 	udf	#0
   886f0:	00000052 	udf	#82
   886f4:	0000003e 	udf	#62

00000000000886f8 <_ZN4core7unicode12unicode_data15grapheme_extend17SHORT_OFFSET_RUNS17h063e233180d56fa9E.llvm.18267786270480924684>:
   886f8:	00000300 	udf	#768
   886fc:	00200483 	.inst	0x00200483 ; NYI
   88700:	00600591 	.inst	0x00600591 ; undefined
   88704:	00a0135d 	.inst	0x00a0135d ; undefined
   88708:	1ea01712 	.inst	0x1ea01712 ; undefined
   8870c:	1ee0200c 	.inst	0x1ee0200c ; undefined
   88710:	2b202cef 	adds	w15, w7, w0, uxth #3
   88714:	2ba0302a 	.inst	0x2ba0302a ; undefined
   88718:	2c60a66f 	ldnp	s15, s9, [x19, #-252]
   8871c:	2ce0a802 	ldp	s2, s10, [x0], #-252
   88720:	2de0fb1e 	ldp	s30, s30, [x24, #-252]!
   88724:	35a0fe00 	cbnz	w0, fffffffffffca6e4 <HEAP_START+0xfffffffffff41b54>
   88728:	35e0ff9e 	cbnz	w30, 4a718 <bss_size+0x4a715>
   8872c:	366101fd 	tbz	w29, #12, 8a768 <HEAP_START+0x1bd8>
   88730:	36a10a01 	tbz	w1, #20, 8a870 <HEAP_START+0x1ce0>
   88734:	37610d24 	tbnz	w4, #12, 8a8d8 <HEAP_START+0x1d48>
   88738:	38e10eab 	.inst	0x38e10eab ; undefined
   8873c:	3921182f 	strb	w15, [x1, #2118]
   88740:	46611c30 	.inst	0x46611c30 ; undefined
   88744:	4aa11ef3 	eon	w19, w23, w1, asr #7
   88748:	4e616af0 	fcvtn2	v16.4s, v23.2d
   8874c:	4ea16f4f 	smin	v15.4s, v26.4s, v1.4s
   88750:	4f21bc9d 	.inst	0x4f21bc9d ; undefined
   88754:	4fe1d165 	.inst	0x4fe1d165 ; undefined
   88758:	5021da00 	adr	x0, cc29a <HEAP_START+0x4370a>
   8875c:	51e1e000 	.inst	0x51e1e000 ; undefined
   88760:	5361e130 	.inst	0x5361e130 ; undefined
   88764:	54a1e2ec 	b.gt	fffffffffffcc3c0 <HEAP_START+0xfffffffffff43830>
   88768:	54e1e8d0 	.inst	0x54e1e8d0 ; undefined
   8876c:	552e0020 	.inst	0x552e0020 ; undefined
   88770:	55bf01f0 	.inst	0x55bf01f0 ; undefined

0000000000088774 <_ZN4core7unicode12unicode_data15grapheme_extend7OFFSETS17he7128fdf039e6ad6E.llvm.18267786270480924684>:
   88774:	07007000 	.inst	0x07007000 ; undefined
   88778:	01012d00 	.inst	0x01012d00 ; undefined
   8877c:	02010201 	.inst	0x02010201 ; undefined
   88780:	0b480101 	add	w1, w8, w8, lsr #0
   88784:	01101530 	.inst	0x01101530 ; undefined
   88788:	06020765 	.inst	0x06020765 ; undefined
   8878c:	04010202 	sub	z2.b, p0/m, z2.b, z16.b
   88790:	1b1e0123 	madd	w3, w9, w30, w0
   88794:	093a0b5b 	.inst	0x093a0b5b ; undefined
   88798:	04180109 	orr	z9.b, p0/m, z9.b, z8.b
   8879c:	03010901 	.inst	0x03010901 ; undefined
   887a0:	032b0501 	.inst	0x032b0501 ; undefined
   887a4:	20010f77 	.inst	0x20010f77 ; undefined
   887a8:	01010137 	.inst	0x01010137 ; undefined
   887ac:	01040804 	.inst	0x01040804 ; undefined
   887b0:	020a0703 	.inst	0x020a0703 ; undefined
   887b4:	013a011d 	.inst	0x013a011d ; undefined
   887b8:	04020101 	.inst	0x04020101 ; undefined
   887bc:	01090108 	.inst	0x01090108 ; undefined
   887c0:	011a020a 	.inst	0x011a020a ; undefined
   887c4:	01390202 	.inst	0x01390202 ; undefined
   887c8:	02040204 	.inst	0x02040204 ; undefined
   887cc:	01030302 	.inst	0x01030302 ; undefined
   887d0:	0103021e 	.inst	0x0103021e ; undefined
   887d4:	0139020b 	.inst	0x0139020b ; undefined
   887d8:	02010504 	.inst	0x02010504 ; undefined
   887dc:	02140104 	.inst	0x02140104 ; undefined
   887e0:	01010616 	.inst	0x01010616 ; undefined
   887e4:	0201013a 	.inst	0x0201013a ; undefined
   887e8:	01080401 	.inst	0x01080401 ; undefined
   887ec:	020a0307 	.inst	0x020a0307 ; undefined
   887f0:	013b011e 	.inst	0x013b011e ; undefined
   887f4:	010c0101 	.inst	0x010c0101 ; undefined
   887f8:	01280109 	.inst	0x01280109 ; undefined
   887fc:	03390103 	.inst	0x03390103 ; undefined
   88800:	04010305 	sub	z5.b, p0/m, z5.b, z24.b
   88804:	020b0207 	.inst	0x020b0207 ; undefined
   88808:	013a011d 	.inst	0x013a011d ; undefined
   8880c:	01020102 	.inst	0x01020102 ; undefined
   88810:	02050103 	.inst	0x02050103 ; undefined
   88814:	020b0207 	.inst	0x020b0207 ; undefined
   88818:	0239021c 	.inst	0x0239021c ; undefined
   8881c:	04020101 	.inst	0x04020101 ; undefined
   88820:	01090108 	.inst	0x01090108 ; undefined
   88824:	011d020a 	.inst	0x011d020a ; undefined
   88828:	01040148 	.inst	0x01040148 ; undefined
   8882c:	01010302 	.inst	0x01010302 ; undefined
   88830:	01510108 	.inst	0x01510108 ; undefined
   88834:	080c0702 	stxrb	w12, w2, [x24]
   88838:	09020162 	.inst	0x09020162 ; undefined
   8883c:	024a060b 	.inst	0x024a060b ; undefined
   88840:	0101011b 	.inst	0x0101011b ; undefined
   88844:	0e370101 	saddl	v1.8h, v8.8b, v23.8b
   88848:	02010501 	.inst	0x02010501 ; undefined
   8884c:	24010b05 	cmphs	p5.b, p2/z, z24.b, z1.b
   88850:	04660109 	add	z9.h, z8.h, z6.h
   88854:	02010601 	.inst	0x02010601 ; undefined
   88858:	02190202 	.inst	0x02190202 ; undefined
   8885c:	04100304 	mul	z4.b, p0/m, z4.b, z24.b
   88860:	0202010d 	.inst	0x0202010d ; undefined
   88864:	010f0106 	.inst	0x010f0106 ; undefined
   88868:	03000300 	.inst	0x03000300 ; undefined
   8886c:	021d031d 	.inst	0x021d031d ; undefined
   88870:	0240021e 	.inst	0x0240021e ; undefined
   88874:	01080701 	.inst	0x01080701 ; undefined
   88878:	01090b02 	.inst	0x01090b02 ; undefined
   8887c:	0277032d 	.inst	0x0277032d ; undefined
   88880:	03760122 	.inst	0x03760122 ; undefined
   88884:	01090204 	.inst	0x01090204 ; undefined
   88888:	02db0306 	.inst	0x02db0306 ; undefined
   8888c:	013a0102 	.inst	0x013a0102 ; undefined
   88890:	01010701 	.inst	0x01010701 ; undefined
   88894:	08020101 	stxrb	w2, w1, [x8]
   88898:	01020a06 	.inst	0x01020a06 ; undefined
   8889c:	043f1130 	sqadd	z16.b, z9.b, z31.b
   888a0:	01010730 	.inst	0x01010730 ; undefined
   888a4:	09280105 	.inst	0x09280105 ; undefined
   888a8:	0420020c 	add	z12.b, z16.b, z0.b
   888ac:	03010202 	.inst	0x03010202 ; undefined
   888b0:	02010138 	.inst	0x02010138 ; undefined
   888b4:	03010103 	.inst	0x03010103 ; undefined
   888b8:	0202083a 	.inst	0x0202083a ; undefined
   888bc:	0d010398 	.inst	0x0d010398 ; undefined
   888c0:	01040701 	.inst	0x01040701 ; undefined
   888c4:	02030106 	.inst	0x02030106 ; undefined
   888c8:	05013ac6 	orr	z6.s, z6.s, #0xfe00ffff
   888cc:	21c30100 	.inst	0x21c30100 ; undefined
   888d0:	018d0300 	.inst	0x018d0300 ; undefined
   888d4:	06002060 	.inst	0x06002060 ; undefined
   888d8:	04000269 	add	z9.b, p0/m, z9.b, z19.b
   888dc:	02200a01 	.inst	0x02200a01 ; undefined
   888e0:	01000250 	.inst	0x01000250 ; undefined
   888e4:	01040103 	.inst	0x01040103 ; undefined
   888e8:	01050219 	.inst	0x01050219 ; undefined
   888ec:	121a0297 	and	w23, w20, #0x40
   888f0:	0826010d 	.inst	0x0826010d ; undefined
   888f4:	032e0b19 	.inst	0x032e0b19 ; undefined
   888f8:	04020130 	.inst	0x04020130 ; undefined
   888fc:	01270202 	.inst	0x01270202 ; undefined
   88900:	02020643 	.inst	0x02020643 ; undefined
   88904:	010c0202 	.inst	0x010c0202 ; undefined
   88908:	012f0108 	.inst	0x012f0108 ; undefined
   8890c:	03010133 	.inst	0x03010133 ; undefined
   88910:	02050202 	.inst	0x02050202 ; undefined
   88914:	022a0101 	.inst	0x022a0101 ; undefined
   88918:	01ee0108 	.inst	0x01ee0108 ; undefined
   8891c:	01040102 	.inst	0x01040102 ; undefined
   88920:	10000100 	adr	x0, 88940 <_ZN4core7unicode12unicode_data15grapheme_extend7OFFSETS17he7128fdf039e6ad6E.llvm.18267786270480924684+0x1cc>
   88924:	02001010 	.inst	0x02001010 ; undefined
   88928:	01e20100 	.inst	0x01e20100 ; undefined
   8892c:	03000595 	.inst	0x03000595 ; undefined
   88930:	04050201 	.inst	0x04050201 ; undefined
   88934:	01040328 	.inst	0x01040328 ; undefined
   88938:	040002a5 	add	z5.b, p0/m, z5.b, z21.b
   8893c:	0b990200 	add	w0, w16, w25, asr #0
   88940:	0f3601b0 	.inst	0x0f3601b0 ; undefined
   88944:	04310338 	add	z24.b, z25.b, z17.b
   88948:	03450202 	.inst	0x03450202 ; undefined
   8894c:	08010524 	stxrb	w1, w4, [x9]
   88950:	020c013e 	.inst	0x020c013e ; undefined
   88954:	040a0934 	smin	z20.b, p2/m, z20.b, z9.b
   88958:	035f0102 	.inst	0x035f0102 ; undefined
   8895c:	02010102 	.inst	0x02010102 ; undefined
   88960:	01a00106 	.inst	0x01a00106 ; undefined
   88964:	02150803 	.inst	0x02150803 ; undefined
   88968:	01010239 	.inst	0x01010239 ; undefined
   8896c:	01160101 	.inst	0x01160101 ; undefined
   88970:	0503070e 	orr	z14.d, z14.d, #0xffffffff01ffffff
   88974:	030208c3 	.inst	0x030208c3 ; undefined
   88978:	01170101 	.inst	0x01170101 ; undefined
   8897c:	06020151 	.inst	0x06020151 ; undefined
   88980:	01020101 	.inst	0x01020101 ; undefined
   88984:	02010201 	.inst	0x02010201 ; undefined
   88988:	040201eb 	.inst	0x040201eb ; undefined
   8898c:	02010206 	.inst	0x02010206 ; undefined
   88990:	0855021b 	ldxrb	w27, [x16]
   88994:	02010102 	.inst	0x02010102 ; undefined
   88998:	0101016a 	.inst	0x0101016a ; undefined
   8899c:	01010602 	.inst	0x01010602 ; undefined
   889a0:	04020365 	.inst	0x04020365 ; undefined
   889a4:	09000501 	.inst	0x09000501 ; undefined
   889a8:	01f50201 	.inst	0x01f50201 ; undefined
   889ac:	0101020a 	.inst	0x0101020a ; undefined
   889b0:	04900104 	mul	z4.s, p0/m, z4.s, z8.s
   889b4:	01040202 	.inst	0x01040202 ; undefined
   889b8:	06280a20 	.inst	0x06280a20 ; undefined
   889bc:	01080402 	.inst	0x01080402 ; undefined
   889c0:	03020609 	.inst	0x03020609 ; undefined
   889c4:	02010d2e 	.inst	0x02010d2e ; undefined
   889c8:	06010700 	.inst	0x06010700 ; undefined
   889cc:	16520101 	b	fffffffff9508dd0 <HEAP_START+0xfffffffff9480240>
   889d0:	02010702 	.inst	0x02010702 ; undefined
   889d4:	067a0201 	.inst	0x067a0201 ; undefined
   889d8:	02010103 	.inst	0x02010103 ; undefined
   889dc:	01010701 	.inst	0x01010701 ; undefined
   889e0:	01030248 	.inst	0x01030248 ; undefined
   889e4:	02000101 	.inst	0x02000101 ; undefined
   889e8:	073b0500 	.inst	0x073b0500 ; undefined
   889ec:	043f0100 	add	z0.b, z8.b, z31.b
   889f0:	02000151 	.inst	0x02000151 ; undefined
   889f4:	03010100 	.inst	0x03010100 ; undefined
   889f8:	08080504 	stxrb	w8, w4, [x8]
   889fc:	041e0702 	.inst	0x041e0702 ; undefined
   88a00:	37000394 	tbnz	w20, #0, 88a70 <_ZN4core7unicode12unicode_data15grapheme_extend7OFFSETS17he7128fdf039e6ad6E.llvm.18267786270480924684+0x2fc>
   88a04:	01083204 	.inst	0x01083204 ; undefined
   88a08:	0516010e 	mov	z14.b, p6/z, #8
   88a0c:	07000f01 	.inst	0x07000f01 ; undefined
   88a10:	07021101 	.inst	0x07021101 ; undefined
   88a14:	05010201 	orr	z1.s, z1.s, #0x1ffff
   88a18:	04000700 	add	z0.b, p1/m, z0.b, z24.b
   88a1c:	076d0700 	.inst	0x076d0700 ; undefined
   88a20:	f0806000 	adrp	x0, ffffffff00c8b000 <HEAP_START+0xffffffff00c02470>
   88a24:	00203a00 	.inst	0x00203a00 ; NYI
   88a28:	00088a25 	.inst	0x00088a25 ; undefined
	...
   88a38:	00088a25 	.inst	0x00088a25 ; undefined
   88a3c:	00000000 	udf	#0
   88a40:	00000002 	udf	#2
	...
   88a4c:	00000020 	udf	#32
   88a50:	0808005e 	stxrb	w8, w30, [x2]
   88a54:	0808081a 	stxrb	w8, w26, [x0]
   88a58:	08080808 	stxrb	w8, w8, [x0]
   88a5c:	08080808 	stxrb	w8, w8, [x0]
   88a60:	08080808 	stxrb	w8, w8, [x0]
   88a64:	08080808 	stxrb	w8, w8, [x0]
   88a68:	08080808 	stxrb	w8, w8, [x0]
   88a6c:	33050808 	bfi	w8, w0, #27, #3
   88a70:	210d0200 	.inst	0x210d0200 ; undefined
   88a74:	130e0400 	sbfiz	w0, w0, #18, #2
   88a78:	00000018 	udf	#24
   88a7c:	00000000 	udf	#0

0000000000088a80 <anon.49eea379fafcae5b0dab2b0475fe0b2d.2.llvm.7516477757011690699>:
   88a80:	00085af0 	.inst	0x00085af0 ; undefined
   88a84:	00000000 	udf	#0
   88a88:	00000018 	udf	#24
   88a8c:	00000000 	udf	#0
   88a90:	00000008 	udf	#8
   88a94:	00000000 	udf	#0
   88a98:	00083e50 	.inst	0x00083e50 ; undefined
   88a9c:	00000000 	udf	#0
   88aa0:	00084594 	.inst	0x00084594 ; undefined
   88aa4:	00000000 	udf	#0
   88aa8:	00084674 	.inst	0x00084674 ; undefined
   88aac:	00000000 	udf	#0

Disassembly of section .data:

0000000000088ab0 <_ZN8graph_os8platform6raspi33gpu14MESSAGE_BUFFER17h3040ba92af69a932E.llvm.16698110762826979571>:
   88ab0:	0000008c 	udf	#140
   88ab4:	00000000 	udf	#0
   88ab8:	00048003 	.inst	0x00048003 ; undefined
   88abc:	00000008 	udf	#8
   88ac0:	00000008 	udf	#8
   88ac4:	00000780 	udf	#1920
   88ac8:	00000438 	udf	#1080
   88acc:	00048004 	.inst	0x00048004 ; undefined
   88ad0:	00000008 	udf	#8
   88ad4:	00000008 	udf	#8
   88ad8:	00000780 	udf	#1920
   88adc:	00000438 	udf	#1080
   88ae0:	00048009 	.inst	0x00048009 ; undefined
   88ae4:	00000008 	udf	#8
   88ae8:	00000008 	udf	#8
	...
   88af4:	00048005 	.inst	0x00048005 ; undefined
   88af8:	00000004 	udf	#4
   88afc:	00000004 	udf	#4
   88b00:	00000020 	udf	#32
   88b04:	00048006 	.inst	0x00048006 ; undefined
   88b08:	00000004 	udf	#4
   88b0c:	00000004 	udf	#4
   88b10:	00000001 	udf	#1
   88b14:	00040001 	.inst	0x00040001 ; undefined
   88b18:	00000008 	udf	#8
   88b1c:	00000008 	udf	#8
   88b20:	00001000 	udf	#4096
   88b24:	00000000 	udf	#0
   88b28:	00040008 	.inst	0x00040008 ; undefined
   88b2c:	00000004 	udf	#4
   88b30:	00000004 	udf	#4
	...

0000000000088b40 <_ZN8graph_os8platform6raspi34uart7CONSOLE17h15b4478f86d6aedeE>:
	...
   88b58:	00000002 	udf	#2
	...

Disassembly of section .bss:

0000000000088b68 <_ZN8graph_os9ALLOCATOR17h3e84c98eb91fd996E-0x8>:
	...

0000000000088b70 <_ZN8graph_os9ALLOCATOR17h3e84c98eb91fd996E>:
	...
