aarch64-none-elf-objdump --disassemble-all target/aarch64-unknown-none/release/graph_os

target/aarch64-unknown-none/release/graph_os:     file format elf64-littleaarch64


Disassembly of section .text:

0000000000080000 <_start>:
   80000:	d53800a1 	mrs	x1, mpidr_el1
   80004:	92400421 	and	x1, x1, #0x3
   80008:	b4000061 	cbz	x1, 80014 <_start+0x14>
   8000c:	d503205f 	wfe
   80010:	17ffffff 	b	8000c <_start+0xc>
   80014:	d5384240 	mrs	x0, currentel
   80018:	927e0400 	and	x0, x0, #0xc
   8001c:	f100301f 	cmp	x0, #0xc
   80020:	54000101 	b.ne	80040 <_start+0x40>  // b.any
   80024:	d280b622 	mov	x2, #0x5b1                 	// #1457
   80028:	d51e1102 	msr	scr_el3, x2
   8002c:	d2807922 	mov	x2, #0x3c9                 	// #969
   80030:	d51e4002 	msr	spsr_el3, x2
   80034:	10000062 	adr	x2, 80040 <_start+0x40>
   80038:	d51e4022 	msr	elr_el3, x2
   8003c:	d69f03e0 	eret
   80040:	f100101f 	cmp	x0, #0x4
   80044:	54000220 	b.eq	80088 <_start+0x88>  // b.none
   80048:	d53ce100 	mrs	x0, cnthctl_el2
   8004c:	b2400400 	orr	x0, x0, #0x3
   80050:	d51ce100 	msr	cnthctl_el2, x0
   80054:	d51ce07f 	msr	cntvoff_el2, xzr
   80058:	d2a00600 	mov	x0, #0x300000              	// #3145728
   8005c:	d51c1140 	msr	cptr_el2, x0
   80060:	d5181040 	msr	cpacr_el1, x0
   80064:	d2b00000 	mov	x0, #0x80000000            	// #2147483648
   80068:	b27f0000 	orr	x0, x0, #0x2
   8006c:	d51c1100 	msr	hcr_el2, x0
   80070:	d53c1100 	mrs	x0, hcr_el2
   80074:	d2807882 	mov	x2, #0x3c4                 	// #964
   80078:	d51c4002 	msr	spsr_el2, x2
   8007c:	10000062 	adr	x2, 80088 <_start+0x88>
   80080:	d51c4022 	msr	elr_el2, x2
   80084:	d69f03e0 	eret
   80088:	58000200 	ldr	x0, 800c8 <_start+0xc8>
   8008c:	9100001f 	mov	sp, x0
   80090:	58000201 	ldr	x1, 800d0 <_start+0xd0>
   80094:	18000222 	ldr	w2, 800d8 <_start+0xd8>
   80098:	34000082 	cbz	w2, 800a8 <_start+0xa8>
   8009c:	f800843f 	str	xzr, [x1], #8
   800a0:	51000442 	sub	w2, w2, #0x1
   800a4:	35ffff62 	cbnz	w2, 80090 <_start+0x90>
   800a8:	580001c0 	ldr	x0, 800e0 <_start+0xe0>
   800ac:	d518c000 	msr	vbar_el1, x0
   800b0:	580001c0 	ldr	x0, 800e8 <_start+0xe8>
   800b4:	580001e1 	ldr	x1, 800f0 <_start+0xf0>
   800b8:	58000202 	ldr	x2, 800f8 <_start+0xf8>
   800bc:	58000223 	ldr	x3, 80100 <_start+0x100>
   800c0:	14000689 	b	81ae4 <main>
   800c4:	00000000 	udf	#0
   800c8:	00080000 	.inst	0x00080000 ; undefined
   800cc:	00000000 	udf	#0
   800d0:	000849e0 	.inst	0x000849e0 ; undefined
   800d4:	00000000 	udf	#0
   800d8:	00000002 	udf	#2
   800dc:	00000000 	udf	#0
   800e0:	00081000 	.inst	0x00081000 ; undefined
   800e4:	00000000 	udf	#0
   800e8:	00086010 	.inst	0x00086010 ; undefined
   800ec:	00000000 	udf	#0
   800f0:	00100000 	.inst	0x00100000 ; undefined
   800f4:	00000000 	udf	#0
   800f8:	00186010 	.inst	0x00186010 ; undefined
   800fc:	00000000 	udf	#0
   80100:	00085000 	.inst	0x00085000 ; undefined
   80104:	00000000 	udf	#0

0000000000080108 <_ZN44_$LT$$RF$T$u20$as$u20$core..fmt..Display$GT$3fmt17h5212310d857b58ffE>:
   80108:	aa0103e2 	mov	x2, x1
   8010c:	a9400408 	ldp	x8, x1, [x0]
   80110:	aa0803e0 	mov	x0, x8
   80114:	14000de2 	b	8389c <_ZN42_$LT$str$u20$as$u20$core..fmt..Display$GT$3fmt17ha60ebf429b0a2d81E>

0000000000080118 <_ZN4core3fmt5Write10write_char17he4458d32d3c8c3e1E.llvm.2717907566634698991>:
   80118:	d10043ff 	sub	sp, sp, #0x10
   8011c:	7102003f 	cmp	w1, #0x80
   80120:	b9000fff 	str	wzr, [sp, #12]
   80124:	54000082 	b.cs	80134 <_ZN4core3fmt5Write10write_char17he4458d32d3c8c3e1E.llvm.2717907566634698991+0x1c>  // b.hs, b.nlast
   80128:	5280002a 	mov	w10, #0x1                   	// #1
   8012c:	390033e1 	strb	w1, [sp, #12]
   80130:	14000025 	b	801c4 <_ZN4core3fmt5Write10write_char17he4458d32d3c8c3e1E.llvm.2717907566634698991+0xac>
   80134:	7120003f 	cmp	w1, #0x800
   80138:	54000122 	b.cs	8015c <_ZN4core3fmt5Write10write_char17he4458d32d3c8c3e1E.llvm.2717907566634698991+0x44>  // b.hs, b.nlast
   8013c:	53067c28 	lsr	w8, w1, #6
   80140:	52801009 	mov	w9, #0x80                  	// #128
   80144:	321a0508 	orr	w8, w8, #0xc0
   80148:	33001429 	bfxil	w9, w1, #0, #6
   8014c:	5280004a 	mov	w10, #0x2                   	// #2
   80150:	390033e8 	strb	w8, [sp, #12]
   80154:	390037e9 	strb	w9, [sp, #13]
   80158:	1400001b 	b	801c4 <_ZN4core3fmt5Write10write_char17he4458d32d3c8c3e1E.llvm.2717907566634698991+0xac>
   8015c:	7140403f 	cmp	w1, #0x10, lsl #12
   80160:	54000182 	b.cs	80190 <_ZN4core3fmt5Write10write_char17he4458d32d3c8c3e1E.llvm.2717907566634698991+0x78>  // b.hs, b.nlast
   80164:	530c7c28 	lsr	w8, w1, #12
   80168:	52801009 	mov	w9, #0x80                  	// #128
   8016c:	5280100b 	mov	w11, #0x80                  	// #128
   80170:	321b0908 	orr	w8, w8, #0xe0
   80174:	33062c29 	bfxil	w9, w1, #6, #6
   80178:	3300142b 	bfxil	w11, w1, #0, #6
   8017c:	5280006a 	mov	w10, #0x3                   	// #3
   80180:	390033e8 	strb	w8, [sp, #12]
   80184:	390037e9 	strb	w9, [sp, #13]
   80188:	39003beb 	strb	w11, [sp, #14]
   8018c:	1400000e 	b	801c4 <_ZN4core3fmt5Write10write_char17he4458d32d3c8c3e1E.llvm.2717907566634698991+0xac>
   80190:	52801e08 	mov	w8, #0xf0                  	// #240
   80194:	52801009 	mov	w9, #0x80                  	// #128
   80198:	5280100b 	mov	w11, #0x80                  	// #128
   8019c:	5280100c 	mov	w12, #0x80                  	// #128
   801a0:	33125028 	bfxil	w8, w1, #18, #3
   801a4:	330c4429 	bfxil	w9, w1, #12, #6
   801a8:	33062c2b 	bfxil	w11, w1, #6, #6
   801ac:	3300142c 	bfxil	w12, w1, #0, #6
   801b0:	5280008a 	mov	w10, #0x4                   	// #4
   801b4:	390033e8 	strb	w8, [sp, #12]
   801b8:	390037e9 	strb	w9, [sp, #13]
   801bc:	39003beb 	strb	w11, [sp, #14]
   801c0:	39003fec 	strb	w12, [sp, #15]
   801c4:	528a0a88 	mov	w8, #0x5054                	// #20564
   801c8:	910033eb 	add	x11, sp, #0xc
   801cc:	72a00428 	movk	w8, #0x21, lsl #16
   801d0:	f9400409 	ldr	x9, [x0, #8]
   801d4:	8b0a016a 	add	x10, x11, x10
   801d8:	aa0b03ed 	mov	x13, x11
   801dc:	38c015ac 	ldrsb	w12, [x13], #1
   801e0:	12001d8e 	and	w14, w12, #0xff
   801e4:	37f8008c 	tbnz	w12, #31, 801f4 <_ZN4core3fmt5Write10write_char17he4458d32d3c8c3e1E.llvm.2717907566634698991+0xdc>
   801e8:	2a0e03ec 	mov	w12, w14
   801ec:	aa0d03eb 	mov	x11, x13
   801f0:	1400001b 	b	8025c <_ZN4core3fmt5Write10write_char17he4458d32d3c8c3e1E.llvm.2717907566634698991+0x144>
   801f4:	3940056c 	ldrb	w12, [x11, #1]
   801f8:	120011cd 	and	w13, w14, #0x1f
   801fc:	71037ddf 	cmp	w14, #0xdf
   80200:	1200158c 	and	w12, w12, #0x3f
   80204:	540001c9 	b.ls	8023c <_ZN4core3fmt5Write10write_char17he4458d32d3c8c3e1E.llvm.2717907566634698991+0x124>  // b.plast
   80208:	3940096f 	ldrb	w15, [x11, #2]
   8020c:	7103c1df 	cmp	w14, #0xf0
   80210:	120015ef 	and	w15, w15, #0x3f
   80214:	331a158f 	bfi	w15, w12, #6, #6
   80218:	54000183 	b.cc	80248 <_ZN4core3fmt5Write10write_char17he4458d32d3c8c3e1E.llvm.2717907566634698991+0x130>  // b.lo, b.ul, b.last
   8021c:	39400d6c 	ldrb	w12, [x11, #3]
   80220:	1200158c 	and	w12, w12, #0x3f
   80224:	331a2dec 	bfi	w12, w15, #6, #12
   80228:	330e09ac 	bfi	w12, w13, #18, #3
   8022c:	7144419f 	cmp	w12, #0x110, lsl #12
   80230:	540002a0 	b.eq	80284 <_ZN4core3fmt5Write10write_char17he4458d32d3c8c3e1E.llvm.2717907566634698991+0x16c>  // b.none
   80234:	9100116b 	add	x11, x11, #0x4
   80238:	14000009 	b	8025c <_ZN4core3fmt5Write10write_char17he4458d32d3c8c3e1E.llvm.2717907566634698991+0x144>
   8023c:	9100096b 	add	x11, x11, #0x2
   80240:	331a11ac 	bfi	w12, w13, #6, #5
   80244:	14000006 	b	8025c <_ZN4core3fmt5Write10write_char17he4458d32d3c8c3e1E.llvm.2717907566634698991+0x144>
   80248:	331411af 	bfi	w15, w13, #12, #5
   8024c:	91000d6b 	add	x11, x11, #0x3
   80250:	2a0f03ec 	mov	w12, w15
   80254:	14000002 	b	8025c <_ZN4core3fmt5Write10write_char17he4458d32d3c8c3e1E.llvm.2717907566634698991+0x144>
   80258:	d503201f 	nop
   8025c:	f940052d 	ldr	x13, [x9, #8]
   80260:	eb0801bf 	cmp	x13, x8
   80264:	54000163 	b.cc	80290 <_ZN4core3fmt5Write10write_char17he4458d32d3c8c3e1E.llvm.2717907566634698991+0x178>  // b.lo, b.ul, b.last
   80268:	f940012d 	ldr	x13, [x9]
   8026c:	b86869ae 	ldr	w14, [x13, x8]
   80270:	362fff4e 	tbz	w14, #5, 80258 <_ZN4core3fmt5Write10write_char17he4458d32d3c8c3e1E.llvm.2717907566634698991+0x140>
   80274:	8b0d010d 	add	x13, x8, x13
   80278:	eb0a017f 	cmp	x11, x10
   8027c:	b81ec1ac 	stur	w12, [x13, #-20]
   80280:	54fffac1 	b.ne	801d8 <_ZN4core3fmt5Write10write_char17he4458d32d3c8c3e1E.llvm.2717907566634698991+0xc0>  // b.any
   80284:	2a1f03e0 	mov	w0, wzr
   80288:	910043ff 	add	sp, sp, #0x10
   8028c:	d65f03c0 	ret
   80290:	90000020 	adrp	x0, 84000 <_ZN17compiler_builtins3mem6memcpy17h5498ba8912cb5f38E+0x6e4>
   80294:	911ba000 	add	x0, x0, #0x6e8
   80298:	90000022 	adrp	x2, 84000 <_ZN17compiler_builtins3mem6memcpy17h5498ba8912cb5f38E+0x6e4>
   8029c:	911c4042 	add	x2, x2, #0x710
   802a0:	528004a1 	mov	w1, #0x25                  	// #37
   802a4:	94000d84 	bl	838b4 <_ZN4core9panicking5panic17hef51cd3fc116a419E>
   802a8:	d4200020 	brk	#0x1

00000000000802ac <_ZN4core3fmt5Write9write_fmt17hb80de78056cadd10E.llvm.2717907566634698991>:
   802ac:	d10103ff 	sub	sp, sp, #0x40
   802b0:	a90303fe 	stp	x30, x0, [sp, #48]
   802b4:	910003e0 	mov	x0, sp
   802b8:	52800602 	mov	w2, #0x30                  	// #48
   802bc:	94000d97 	bl	83918 <memcpy>
   802c0:	90000021 	adrp	x1, 84000 <_ZN17compiler_builtins3mem6memcpy17h5498ba8912cb5f38E+0x6e4>
   802c4:	91154021 	add	x1, x1, #0x550
   802c8:	9100e3e0 	add	x0, sp, #0x38
   802cc:	910003e2 	mov	x2, sp
   802d0:	94000a21 	bl	82b54 <_ZN4core3fmt5write17h158ce1ba0cbf453dE>
   802d4:	f9401bfe 	ldr	x30, [sp, #48]
   802d8:	910103ff 	add	sp, sp, #0x40
   802dc:	d65f03c0 	ret

00000000000802e0 <_ZN4core3ptr29drop_in_place$LT$$LP$$RP$$GT$17h152d6acc2154b684E.llvm.2717907566634698991>:
   802e0:	d65f03c0 	ret

00000000000802e4 <_ZN50_$LT$$RF$mut$u20$W$u20$as$u20$core..fmt..Write$GT$10write_char17h73852a8c485193e4E>:
   802e4:	f81f0ffe 	str	x30, [sp, #-16]!
   802e8:	f9400000 	ldr	x0, [x0]
   802ec:	97ffff8b 	bl	80118 <_ZN4core3fmt5Write10write_char17he4458d32d3c8c3e1E.llvm.2717907566634698991>
   802f0:	2a1f03e0 	mov	w0, wzr
   802f4:	f84107fe 	ldr	x30, [sp], #16
   802f8:	d65f03c0 	ret

00000000000802fc <_ZN50_$LT$$RF$mut$u20$W$u20$as$u20$core..fmt..Write$GT$9write_fmt17hed06fd9cdecad22bE>:
   802fc:	d10103ff 	sub	sp, sp, #0x40
   80300:	f9400008 	ldr	x8, [x0]
   80304:	910003e0 	mov	x0, sp
   80308:	52800602 	mov	w2, #0x30                  	// #48
   8030c:	a90323fe 	stp	x30, x8, [sp, #48]
   80310:	94000d82 	bl	83918 <memcpy>
   80314:	90000021 	adrp	x1, 84000 <_ZN17compiler_builtins3mem6memcpy17h5498ba8912cb5f38E+0x6e4>
   80318:	91154021 	add	x1, x1, #0x550
   8031c:	9100e3e0 	add	x0, sp, #0x38
   80320:	910003e2 	mov	x2, sp
   80324:	94000a0c 	bl	82b54 <_ZN4core3fmt5write17h158ce1ba0cbf453dE>
   80328:	f9401bfe 	ldr	x30, [sp, #48]
   8032c:	910103ff 	add	sp, sp, #0x40
   80330:	d65f03c0 	ret

0000000000080334 <_ZN50_$LT$$RF$mut$u20$W$u20$as$u20$core..fmt..Write$GT$9write_str17h3e8cfa04fc511f15E>:
   80334:	b4000622 	cbz	x2, 803f8 <_ZN50_$LT$$RF$mut$u20$W$u20$as$u20$core..fmt..Write$GT$9write_str17h3e8cfa04fc511f15E+0xc4>
   80338:	f9400008 	ldr	x8, [x0]
   8033c:	528a0a8a 	mov	w10, #0x5054                	// #20564
   80340:	8b020029 	add	x9, x1, x2
   80344:	72a0042a 	movk	w10, #0x21, lsl #16
   80348:	f9400508 	ldr	x8, [x8, #8]
   8034c:	aa0103ec 	mov	x12, x1
   80350:	38c0158b 	ldrsb	w11, [x12], #1
   80354:	12001d6d 	and	w13, w11, #0xff
   80358:	37f8008b 	tbnz	w11, #31, 80368 <_ZN50_$LT$$RF$mut$u20$W$u20$as$u20$core..fmt..Write$GT$9write_str17h3e8cfa04fc511f15E+0x34>
   8035c:	2a0d03eb 	mov	w11, w13
   80360:	aa0c03e1 	mov	x1, x12
   80364:	1400001b 	b	803d0 <_ZN50_$LT$$RF$mut$u20$W$u20$as$u20$core..fmt..Write$GT$9write_str17h3e8cfa04fc511f15E+0x9c>
   80368:	3940042b 	ldrb	w11, [x1, #1]
   8036c:	120011ac 	and	w12, w13, #0x1f
   80370:	71037dbf 	cmp	w13, #0xdf
   80374:	1200156b 	and	w11, w11, #0x3f
   80378:	540001c9 	b.ls	803b0 <_ZN50_$LT$$RF$mut$u20$W$u20$as$u20$core..fmt..Write$GT$9write_str17h3e8cfa04fc511f15E+0x7c>  // b.plast
   8037c:	3940082e 	ldrb	w14, [x1, #2]
   80380:	7103c1bf 	cmp	w13, #0xf0
   80384:	120015ce 	and	w14, w14, #0x3f
   80388:	331a156e 	bfi	w14, w11, #6, #6
   8038c:	54000183 	b.cc	803bc <_ZN50_$LT$$RF$mut$u20$W$u20$as$u20$core..fmt..Write$GT$9write_str17h3e8cfa04fc511f15E+0x88>  // b.lo, b.ul, b.last
   80390:	39400c2b 	ldrb	w11, [x1, #3]
   80394:	1200156b 	and	w11, w11, #0x3f
   80398:	331a2dcb 	bfi	w11, w14, #6, #12
   8039c:	330e098b 	bfi	w11, w12, #18, #3
   803a0:	7144417f 	cmp	w11, #0x110, lsl #12
   803a4:	540002a0 	b.eq	803f8 <_ZN50_$LT$$RF$mut$u20$W$u20$as$u20$core..fmt..Write$GT$9write_str17h3e8cfa04fc511f15E+0xc4>  // b.none
   803a8:	91001021 	add	x1, x1, #0x4
   803ac:	14000009 	b	803d0 <_ZN50_$LT$$RF$mut$u20$W$u20$as$u20$core..fmt..Write$GT$9write_str17h3e8cfa04fc511f15E+0x9c>
   803b0:	91000821 	add	x1, x1, #0x2
   803b4:	331a118b 	bfi	w11, w12, #6, #5
   803b8:	14000006 	b	803d0 <_ZN50_$LT$$RF$mut$u20$W$u20$as$u20$core..fmt..Write$GT$9write_str17h3e8cfa04fc511f15E+0x9c>
   803bc:	3314118e 	bfi	w14, w12, #12, #5
   803c0:	91000c21 	add	x1, x1, #0x3
   803c4:	2a0e03eb 	mov	w11, w14
   803c8:	14000002 	b	803d0 <_ZN50_$LT$$RF$mut$u20$W$u20$as$u20$core..fmt..Write$GT$9write_str17h3e8cfa04fc511f15E+0x9c>
   803cc:	d503201f 	nop
   803d0:	f940050c 	ldr	x12, [x8, #8]
   803d4:	eb0a019f 	cmp	x12, x10
   803d8:	54000143 	b.cc	80400 <_ZN50_$LT$$RF$mut$u20$W$u20$as$u20$core..fmt..Write$GT$9write_str17h3e8cfa04fc511f15E+0xcc>  // b.lo, b.ul, b.last
   803dc:	f940010c 	ldr	x12, [x8]
   803e0:	b86a698d 	ldr	w13, [x12, x10]
   803e4:	362fff4d 	tbz	w13, #5, 803cc <_ZN50_$LT$$RF$mut$u20$W$u20$as$u20$core..fmt..Write$GT$9write_str17h3e8cfa04fc511f15E+0x98>
   803e8:	8b0c014c 	add	x12, x10, x12
   803ec:	eb09003f 	cmp	x1, x9
   803f0:	b81ec18b 	stur	w11, [x12, #-20]
   803f4:	54fffac1 	b.ne	8034c <_ZN50_$LT$$RF$mut$u20$W$u20$as$u20$core..fmt..Write$GT$9write_str17h3e8cfa04fc511f15E+0x18>  // b.any
   803f8:	2a1f03e0 	mov	w0, wzr
   803fc:	d65f03c0 	ret
   80400:	90000020 	adrp	x0, 84000 <_ZN17compiler_builtins3mem6memcpy17h5498ba8912cb5f38E+0x6e4>
   80404:	911ba000 	add	x0, x0, #0x6e8
   80408:	90000022 	adrp	x2, 84000 <_ZN17compiler_builtins3mem6memcpy17h5498ba8912cb5f38E+0x6e4>
   8040c:	911c4042 	add	x2, x2, #0x710
   80410:	528004a1 	mov	w1, #0x25                  	// #37
   80414:	94000d28 	bl	838b4 <_ZN4core9panicking5panic17hef51cd3fc116a419E>
   80418:	d4200020 	brk	#0x1

000000000008041c <_ZN85_$LT$graph_os..platform..raspi3..uart..UARTController$u20$as$u20$core..fmt..Write$GT$9write_str17hc63ec03fcb904406E.llvm.2717907566634698991>:
   8041c:	b4000602 	cbz	x2, 804dc <_ZN85_$LT$graph_os..platform..raspi3..uart..UARTController$u20$as$u20$core..fmt..Write$GT$9write_str17hc63ec03fcb904406E.llvm.2717907566634698991+0xc0>
   80420:	528a0a8a 	mov	w10, #0x5054                	// #20564
   80424:	f9400408 	ldr	x8, [x0, #8]
   80428:	8b020029 	add	x9, x1, x2
   8042c:	72a0042a 	movk	w10, #0x21, lsl #16
   80430:	aa0103ec 	mov	x12, x1
   80434:	38c0158b 	ldrsb	w11, [x12], #1
   80438:	12001d6d 	and	w13, w11, #0xff
   8043c:	37f8008b 	tbnz	w11, #31, 8044c <_ZN85_$LT$graph_os..platform..raspi3..uart..UARTController$u20$as$u20$core..fmt..Write$GT$9write_str17hc63ec03fcb904406E.llvm.2717907566634698991+0x30>
   80440:	2a0d03eb 	mov	w11, w13
   80444:	aa0c03e1 	mov	x1, x12
   80448:	1400001b 	b	804b4 <_ZN85_$LT$graph_os..platform..raspi3..uart..UARTController$u20$as$u20$core..fmt..Write$GT$9write_str17hc63ec03fcb904406E.llvm.2717907566634698991+0x98>
   8044c:	3940042b 	ldrb	w11, [x1, #1]
   80450:	120011ac 	and	w12, w13, #0x1f
   80454:	71037dbf 	cmp	w13, #0xdf
   80458:	1200156b 	and	w11, w11, #0x3f
   8045c:	540001c9 	b.ls	80494 <_ZN85_$LT$graph_os..platform..raspi3..uart..UARTController$u20$as$u20$core..fmt..Write$GT$9write_str17hc63ec03fcb904406E.llvm.2717907566634698991+0x78>  // b.plast
   80460:	3940082e 	ldrb	w14, [x1, #2]
   80464:	7103c1bf 	cmp	w13, #0xf0
   80468:	120015ce 	and	w14, w14, #0x3f
   8046c:	331a156e 	bfi	w14, w11, #6, #6
   80470:	54000183 	b.cc	804a0 <_ZN85_$LT$graph_os..platform..raspi3..uart..UARTController$u20$as$u20$core..fmt..Write$GT$9write_str17hc63ec03fcb904406E.llvm.2717907566634698991+0x84>  // b.lo, b.ul, b.last
   80474:	39400c2b 	ldrb	w11, [x1, #3]
   80478:	1200156b 	and	w11, w11, #0x3f
   8047c:	331a2dcb 	bfi	w11, w14, #6, #12
   80480:	330e098b 	bfi	w11, w12, #18, #3
   80484:	7144417f 	cmp	w11, #0x110, lsl #12
   80488:	540002a0 	b.eq	804dc <_ZN85_$LT$graph_os..platform..raspi3..uart..UARTController$u20$as$u20$core..fmt..Write$GT$9write_str17hc63ec03fcb904406E.llvm.2717907566634698991+0xc0>  // b.none
   8048c:	91001021 	add	x1, x1, #0x4
   80490:	14000009 	b	804b4 <_ZN85_$LT$graph_os..platform..raspi3..uart..UARTController$u20$as$u20$core..fmt..Write$GT$9write_str17hc63ec03fcb904406E.llvm.2717907566634698991+0x98>
   80494:	91000821 	add	x1, x1, #0x2
   80498:	331a118b 	bfi	w11, w12, #6, #5
   8049c:	14000006 	b	804b4 <_ZN85_$LT$graph_os..platform..raspi3..uart..UARTController$u20$as$u20$core..fmt..Write$GT$9write_str17hc63ec03fcb904406E.llvm.2717907566634698991+0x98>
   804a0:	3314118e 	bfi	w14, w12, #12, #5
   804a4:	91000c21 	add	x1, x1, #0x3
   804a8:	2a0e03eb 	mov	w11, w14
   804ac:	14000002 	b	804b4 <_ZN85_$LT$graph_os..platform..raspi3..uart..UARTController$u20$as$u20$core..fmt..Write$GT$9write_str17hc63ec03fcb904406E.llvm.2717907566634698991+0x98>
   804b0:	d503201f 	nop
   804b4:	f940050c 	ldr	x12, [x8, #8]
   804b8:	eb0a019f 	cmp	x12, x10
   804bc:	54000143 	b.cc	804e4 <_ZN85_$LT$graph_os..platform..raspi3..uart..UARTController$u20$as$u20$core..fmt..Write$GT$9write_str17hc63ec03fcb904406E.llvm.2717907566634698991+0xc8>  // b.lo, b.ul, b.last
   804c0:	f940010c 	ldr	x12, [x8]
   804c4:	b86a698d 	ldr	w13, [x12, x10]
   804c8:	362fff4d 	tbz	w13, #5, 804b0 <_ZN85_$LT$graph_os..platform..raspi3..uart..UARTController$u20$as$u20$core..fmt..Write$GT$9write_str17hc63ec03fcb904406E.llvm.2717907566634698991+0x94>
   804cc:	8b0c014c 	add	x12, x10, x12
   804d0:	eb09003f 	cmp	x1, x9
   804d4:	b81ec18b 	stur	w11, [x12, #-20]
   804d8:	54fffac1 	b.ne	80430 <_ZN85_$LT$graph_os..platform..raspi3..uart..UARTController$u20$as$u20$core..fmt..Write$GT$9write_str17hc63ec03fcb904406E.llvm.2717907566634698991+0x14>  // b.any
   804dc:	2a1f03e0 	mov	w0, wzr
   804e0:	d65f03c0 	ret
   804e4:	90000020 	adrp	x0, 84000 <_ZN17compiler_builtins3mem6memcpy17h5498ba8912cb5f38E+0x6e4>
   804e8:	911ba000 	add	x0, x0, #0x6e8
   804ec:	90000022 	adrp	x2, 84000 <_ZN17compiler_builtins3mem6memcpy17h5498ba8912cb5f38E+0x6e4>
   804f0:	911c4042 	add	x2, x2, #0x710
   804f4:	528004a1 	mov	w1, #0x25                  	// #37
   804f8:	94000cef 	bl	838b4 <_ZN4core9panicking5panic17hef51cd3fc116a419E>
   804fc:	d4200020 	brk	#0x1

0000000000080500 <_ZN8graph_os8platform6raspi34uart14UARTController4init17h49c0dec43b03d8f0E>:
   80500:	f940042a 	ldr	x10, [x1, #8]
   80504:	52800089 	mov	w9, #0x4                   	// #4
   80508:	528a000b 	mov	w11, #0x5000                	// #20480
   8050c:	72a00409 	movk	w9, #0x20, lsl #16
   80510:	72a0002b 	movk	w11, #0x1, lsl #16
   80514:	aa0b012b 	orr	x11, x9, x11
   80518:	eb0b015f 	cmp	x10, x11
   8051c:	54000b43 	b.cc	80684 <_ZN8graph_os8platform6raspi34uart14UARTController4init17h49c0dec43b03d8f0E+0x184>  // b.lo, b.ul, b.last
   80520:	f940002a 	ldr	x10, [x1]
   80524:	8b0a012a 	add	x10, x9, x10
   80528:	9140554a 	add	x10, x10, #0x15, lsl #12
   8052c:	b940014b 	ldr	w11, [x10]
   80530:	3200016b 	orr	w11, w11, #0x1
   80534:	b900014b 	str	w11, [x10]
   80538:	528a0c0a 	mov	w10, #0x5060                	// #20576
   8053c:	f940042b 	ldr	x11, [x1, #8]
   80540:	72a0042a 	movk	w10, #0x21, lsl #16
   80544:	eb0a017f 	cmp	x11, x10
   80548:	54000903 	b.cc	80668 <_ZN8graph_os8platform6raspi34uart14UARTController4init17h49c0dec43b03d8f0E+0x168>  // b.lo, b.ul, b.last
   8054c:	f940002b 	ldr	x11, [x1]
   80550:	d100514c 	sub	x12, x10, #0x14
   80554:	b82a697f 	str	wzr, [x11, x10]
   80558:	f940042b 	ldr	x11, [x1, #8]
   8055c:	eb0c017f 	cmp	x11, x12
   80560:	54000843 	b.cc	80668 <_ZN8graph_os8platform6raspi34uart14UARTController4init17h49c0dec43b03d8f0E+0x168>  // b.lo, b.ul, b.last
   80564:	f940002b 	ldr	x11, [x1]
   80568:	5280006c 	mov	w12, #0x3                   	// #3
   8056c:	8b0b014b 	add	x11, x10, x11
   80570:	b81ec16c 	stur	w12, [x11, #-20]
   80574:	d100414c 	sub	x12, x10, #0x10
   80578:	f940042b 	ldr	x11, [x1, #8]
   8057c:	eb0c017f 	cmp	x11, x12
   80580:	54000743 	b.cc	80668 <_ZN8graph_os8platform6raspi34uart14UARTController4init17h49c0dec43b03d8f0E+0x168>  // b.lo, b.ul, b.last
   80584:	f940002b 	ldr	x11, [x1]
   80588:	d100714c 	sub	x12, x10, #0x1c
   8058c:	8b0b014b 	add	x11, x10, x11
   80590:	b81f017f 	stur	wzr, [x11, #-16]
   80594:	f940042b 	ldr	x11, [x1, #8]
   80598:	eb0c017f 	cmp	x11, x12
   8059c:	54000663 	b.cc	80668 <_ZN8graph_os8platform6raspi34uart14UARTController4init17h49c0dec43b03d8f0E+0x168>  // b.lo, b.ul, b.last
   805a0:	f940002b 	ldr	x11, [x1]
   805a4:	d100614c 	sub	x12, x10, #0x18
   805a8:	8b0b014b 	add	x11, x10, x11
   805ac:	b81e417f 	stur	wzr, [x11, #-28]
   805b0:	f940042b 	ldr	x11, [x1, #8]
   805b4:	eb0c017f 	cmp	x11, x12
   805b8:	54000583 	b.cc	80668 <_ZN8graph_os8platform6raspi34uart14UARTController4init17h49c0dec43b03d8f0E+0x168>  // b.lo, b.ul, b.last
   805bc:	f940002b 	ldr	x11, [x1]
   805c0:	528018cc 	mov	w12, #0xc6                  	// #198
   805c4:	8b0b014b 	add	x11, x10, x11
   805c8:	b81e816c 	stur	w12, [x11, #-24]
   805cc:	9100214c 	add	x12, x10, #0x8
   805d0:	f940042b 	ldr	x11, [x1, #8]
   805d4:	eb0c017f 	cmp	x11, x12
   805d8:	54000483 	b.cc	80668 <_ZN8graph_os8platform6raspi34uart14UARTController4init17h49c0dec43b03d8f0E+0x168>  // b.lo, b.ul, b.last
   805dc:	f940002b 	ldr	x11, [x1]
   805e0:	528021cc 	mov	w12, #0x10e                 	// #270
   805e4:	8b0b014b 	add	x11, x10, x11
   805e8:	b900096c 	str	w12, [x11, #8]
   805ec:	f940000b 	ldr	x11, [x0]
   805f0:	f940056c 	ldr	x12, [x11, #8]
   805f4:	eb09019f 	cmp	x12, x9
   805f8:	54000463 	b.cc	80684 <_ZN8graph_os8platform6raspi34uart14UARTController4init17h49c0dec43b03d8f0E+0x184>  // b.lo, b.ul, b.last
   805fc:	f940016c 	ldr	x12, [x11]
   80600:	528fffeb 	mov	w11, #0x7fff                	// #32767
   80604:	72bff90b 	movk	w11, #0xffc8, lsl #16
   80608:	b869698d 	ldr	w13, [x12, x9]
   8060c:	114c256e 	add	w14, w11, #0x309, lsl #12
   80610:	0a0e01ad 	and	w13, w13, w14
   80614:	321301ad 	orr	w13, w13, #0x2000
   80618:	b829698d 	str	w13, [x12, x9]
   8061c:	f940000c 	ldr	x12, [x0]
   80620:	f940058d 	ldr	x13, [x12, #8]
   80624:	eb0901bf 	cmp	x13, x9
   80628:	540002e3 	b.cc	80684 <_ZN8graph_os8platform6raspi34uart14UARTController4init17h49c0dec43b03d8f0E+0x184>  // b.lo, b.ul, b.last
   8062c:	f940018c 	ldr	x12, [x12]
   80630:	b869698d 	ldr	w13, [x12, x9]
   80634:	0a0b01ab 	and	w11, w13, w11
   80638:	3210016b 	orr	w11, w11, #0x10000
   8063c:	b829698b 	str	w11, [x12, x9]
   80640:	f9400429 	ldr	x9, [x1, #8]
   80644:	eb0a013f 	cmp	x9, x10
   80648:	54000103 	b.cc	80668 <_ZN8graph_os8platform6raspi34uart14UARTController4init17h49c0dec43b03d8f0E+0x168>  // b.lo, b.ul, b.last
   8064c:	f9400029 	ldr	x9, [x1]
   80650:	5280006b 	mov	w11, #0x3                   	// #3
   80654:	b82a692b 	str	w11, [x9, x10]
   80658:	a9000500 	stp	x0, x1, [x8]
   8065c:	f900091f 	str	xzr, [x8, #16]
   80660:	3900611f 	strb	wzr, [x8, #24]
   80664:	d65f03c0 	ret
   80668:	90000020 	adrp	x0, 84000 <_ZN17compiler_builtins3mem6memcpy17h5498ba8912cb5f38E+0x6e4>
   8066c:	911a4000 	add	x0, x0, #0x690
   80670:	90000022 	adrp	x2, 84000 <_ZN17compiler_builtins3mem6memcpy17h5498ba8912cb5f38E+0x6e4>
   80674:	911b4042 	add	x2, x2, #0x6d0
   80678:	52800481 	mov	w1, #0x24                  	// #36
   8067c:	94000c8e 	bl	838b4 <_ZN4core9panicking5panic17hef51cd3fc116a419E>
   80680:	d4200020 	brk	#0x1
   80684:	90000020 	adrp	x0, 84000 <_ZN17compiler_builtins3mem6memcpy17h5498ba8912cb5f38E+0x6e4>
   80688:	911ba000 	add	x0, x0, #0x6e8
   8068c:	90000022 	adrp	x2, 84000 <_ZN17compiler_builtins3mem6memcpy17h5498ba8912cb5f38E+0x6e4>
   80690:	911c4042 	add	x2, x2, #0x710
   80694:	528004a1 	mov	w1, #0x25                  	// #37
   80698:	94000c87 	bl	838b4 <_ZN4core9panicking5panic17hef51cd3fc116a419E>
   8069c:	d4200020 	brk	#0x1

00000000000806a0 <_ZN8graph_os8platform6raspi34uart14UARTController7writeln17hbe6f1acb1c65d039E>:
   806a0:	d10283ff 	sub	sp, sp, #0xa0
   806a4:	f9400808 	ldr	x8, [x0, #16]
   806a8:	a90857fe 	stp	x30, x21, [sp, #128]
   806ac:	a9094ff4 	stp	x20, x19, [sp, #144]
   806b0:	aa0203f5 	mov	x21, x2
   806b4:	aa0003f3 	mov	x19, x0
   806b8:	39406009 	ldrb	w9, [x0, #24]
   806bc:	91000508 	add	x8, x8, #0x1
   806c0:	aa0103f4 	mov	x20, x1
   806c4:	f9000808 	str	x8, [x0, #16]
   806c8:	340003e9 	cbz	w9, 80744 <_ZN8graph_os8platform6raspi34uart14UARTController7writeln17hbe6f1acb1c65d039E+0xa4>
   806cc:	f90007e8 	str	x8, [sp, #8]
   806d0:	910023e9 	add	x9, sp, #0x8
   806d4:	d5384248 	mrs	x8, currentel
   806d8:	d000000a 	adrp	x10, 82000 <_ZN4core3str5count14do_count_chars17hf4570e7a07268196E+0xcc>
   806dc:	9127514a 	add	x10, x10, #0x9d4
   806e0:	d3420d08 	ubfx	x8, x8, #2, #2
   806e4:	d000000b 	adrp	x11, 82000 <_ZN4core3str5count14do_count_chars17hf4570e7a07268196E+0xcc>
   806e8:	9127516b 	add	x11, x11, #0x9d4
   806ec:	910103ec 	add	x12, sp, #0x40
   806f0:	90000021 	adrp	x1, 84000 <_ZN17compiler_builtins3mem6memcpy17h5498ba8912cb5f38E+0x6e4>
   806f4:	91160021 	add	x1, x1, #0x580
   806f8:	f90023e8 	str	x8, [sp, #64]
   806fc:	d53800a8 	mrs	x8, mpidr_el1
   80700:	a9012be9 	stp	x9, x10, [sp, #16]
   80704:	910123e9 	add	x9, sp, #0x48
   80708:	92401d08 	and	x8, x8, #0xff
   8070c:	9000002a 	adrp	x10, 84000 <_ZN17compiler_builtins3mem6memcpy17h5498ba8912cb5f38E+0x6e4>
   80710:	9116e14a 	add	x10, x10, #0x5b8
   80714:	a9022fec 	stp	x12, x11, [sp, #32]
   80718:	5280008c 	mov	w12, #0x4                   	// #4
   8071c:	a9032fe9 	stp	x9, x11, [sp, #48]
   80720:	910043e9 	add	x9, sp, #0x10
   80724:	f90027e8 	str	x8, [sp, #72]
   80728:	52800068 	mov	w8, #0x3                   	// #3
   8072c:	910143e2 	add	x2, sp, #0x50
   80730:	aa1303e0 	mov	x0, x19
   80734:	a90533ea 	stp	x10, x12, [sp, #80]
   80738:	a9067fff 	stp	xzr, xzr, [sp, #96]
   8073c:	a90723e9 	stp	x9, x8, [sp, #112]
   80740:	94000905 	bl	82b54 <_ZN4core3fmt5write17h158ce1ba0cbf453dE>
   80744:	528a0a88 	mov	w8, #0x5054                	// #20564
   80748:	f9400669 	ldr	x9, [x19, #8]
   8074c:	72a00428 	movk	w8, #0x21, lsl #16
   80750:	b4000615 	cbz	x21, 80810 <_ZN8graph_os8platform6raspi34uart14UARTController7writeln17hbe6f1acb1c65d039E+0x170>
   80754:	8b15028a 	add	x10, x20, x21
   80758:	aa1403ec 	mov	x12, x20
   8075c:	38c0158b 	ldrsb	w11, [x12], #1
   80760:	12001d6d 	and	w13, w11, #0xff
   80764:	37f8008b 	tbnz	w11, #31, 80774 <_ZN8graph_os8platform6raspi34uart14UARTController7writeln17hbe6f1acb1c65d039E+0xd4>
   80768:	2a0d03eb 	mov	w11, w13
   8076c:	aa0c03f4 	mov	x20, x12
   80770:	1400001b 	b	807dc <_ZN8graph_os8platform6raspi34uart14UARTController7writeln17hbe6f1acb1c65d039E+0x13c>
   80774:	3940068b 	ldrb	w11, [x20, #1]
   80778:	120011ac 	and	w12, w13, #0x1f
   8077c:	71037dbf 	cmp	w13, #0xdf
   80780:	1200156b 	and	w11, w11, #0x3f
   80784:	540001c9 	b.ls	807bc <_ZN8graph_os8platform6raspi34uart14UARTController7writeln17hbe6f1acb1c65d039E+0x11c>  // b.plast
   80788:	39400a8e 	ldrb	w14, [x20, #2]
   8078c:	7103c1bf 	cmp	w13, #0xf0
   80790:	120015ce 	and	w14, w14, #0x3f
   80794:	331a156e 	bfi	w14, w11, #6, #6
   80798:	54000183 	b.cc	807c8 <_ZN8graph_os8platform6raspi34uart14UARTController7writeln17hbe6f1acb1c65d039E+0x128>  // b.lo, b.ul, b.last
   8079c:	39400e8b 	ldrb	w11, [x20, #3]
   807a0:	1200156b 	and	w11, w11, #0x3f
   807a4:	331a2dcb 	bfi	w11, w14, #6, #12
   807a8:	330e098b 	bfi	w11, w12, #18, #3
   807ac:	7144417f 	cmp	w11, #0x110, lsl #12
   807b0:	540002a0 	b.eq	80804 <_ZN8graph_os8platform6raspi34uart14UARTController7writeln17hbe6f1acb1c65d039E+0x164>  // b.none
   807b4:	91001294 	add	x20, x20, #0x4
   807b8:	14000009 	b	807dc <_ZN8graph_os8platform6raspi34uart14UARTController7writeln17hbe6f1acb1c65d039E+0x13c>
   807bc:	91000a94 	add	x20, x20, #0x2
   807c0:	331a118b 	bfi	w11, w12, #6, #5
   807c4:	14000006 	b	807dc <_ZN8graph_os8platform6raspi34uart14UARTController7writeln17hbe6f1acb1c65d039E+0x13c>
   807c8:	3314118e 	bfi	w14, w12, #12, #5
   807cc:	91000e94 	add	x20, x20, #0x3
   807d0:	2a0e03eb 	mov	w11, w14
   807d4:	14000002 	b	807dc <_ZN8graph_os8platform6raspi34uart14UARTController7writeln17hbe6f1acb1c65d039E+0x13c>
   807d8:	d503201f 	nop
   807dc:	f940052c 	ldr	x12, [x9, #8]
   807e0:	eb08019f 	cmp	x12, x8
   807e4:	540003c3 	b.cc	8085c <_ZN8graph_os8platform6raspi34uart14UARTController7writeln17hbe6f1acb1c65d039E+0x1bc>  // b.lo, b.ul, b.last
   807e8:	f940012c 	ldr	x12, [x9]
   807ec:	b868698d 	ldr	w13, [x12, x8]
   807f0:	362fff4d 	tbz	w13, #5, 807d8 <_ZN8graph_os8platform6raspi34uart14UARTController7writeln17hbe6f1acb1c65d039E+0x138>
   807f4:	8b0c010c 	add	x12, x8, x12
   807f8:	eb0a029f 	cmp	x20, x10
   807fc:	b81ec18b 	stur	w11, [x12, #-20]
   80800:	54fffac1 	b.ne	80758 <_ZN8graph_os8platform6raspi34uart14UARTController7writeln17hbe6f1acb1c65d039E+0xb8>  // b.any
   80804:	f9400669 	ldr	x9, [x19, #8]
   80808:	14000002 	b	80810 <_ZN8graph_os8platform6raspi34uart14UARTController7writeln17hbe6f1acb1c65d039E+0x170>
   8080c:	d503201f 	nop
   80810:	f940052a 	ldr	x10, [x9, #8]
   80814:	eb08015f 	cmp	x10, x8
   80818:	54000223 	b.cc	8085c <_ZN8graph_os8platform6raspi34uart14UARTController7writeln17hbe6f1acb1c65d039E+0x1bc>  // b.lo, b.ul, b.last
   8081c:	f940012a 	ldr	x10, [x9]
   80820:	b868694b 	ldr	w11, [x10, x8]
   80824:	362fff4b 	tbz	w11, #5, 8080c <_ZN8graph_os8platform6raspi34uart14UARTController7writeln17hbe6f1acb1c65d039E+0x16c>
   80828:	8b0a010a 	add	x10, x8, x10
   8082c:	5280014b 	mov	w11, #0xa                   	// #10
   80830:	b81ec14b 	stur	w11, [x10, #-20]
   80834:	f940052a 	ldr	x10, [x9, #8]
   80838:	eb08015f 	cmp	x10, x8
   8083c:	54000103 	b.cc	8085c <_ZN8graph_os8platform6raspi34uart14UARTController7writeln17hbe6f1acb1c65d039E+0x1bc>  // b.lo, b.ul, b.last
   80840:	f940012a 	ldr	x10, [x9]
   80844:	b868694b 	ldr	w11, [x10, x8]
   80848:	3728018b 	tbnz	w11, #5, 80878 <_ZN8graph_os8platform6raspi34uart14UARTController7writeln17hbe6f1acb1c65d039E+0x1d8>
   8084c:	d503201f 	nop
   80850:	f940052a 	ldr	x10, [x9, #8]
   80854:	eb08015f 	cmp	x10, x8
   80858:	54ffff42 	b.cs	80840 <_ZN8graph_os8platform6raspi34uart14UARTController7writeln17hbe6f1acb1c65d039E+0x1a0>  // b.hs, b.nlast
   8085c:	90000020 	adrp	x0, 84000 <_ZN17compiler_builtins3mem6memcpy17h5498ba8912cb5f38E+0x6e4>
   80860:	911ba000 	add	x0, x0, #0x6e8
   80864:	90000022 	adrp	x2, 84000 <_ZN17compiler_builtins3mem6memcpy17h5498ba8912cb5f38E+0x6e4>
   80868:	911c4042 	add	x2, x2, #0x710
   8086c:	528004a1 	mov	w1, #0x25                  	// #37
   80870:	94000c11 	bl	838b4 <_ZN4core9panicking5panic17hef51cd3fc116a419E>
   80874:	d4200020 	brk	#0x1
   80878:	8b0a0108 	add	x8, x8, x10
   8087c:	528001a9 	mov	w9, #0xd                   	// #13
   80880:	b81ec109 	stur	w9, [x8, #-20]
   80884:	a9494ff4 	ldp	x20, x19, [sp, #144]
   80888:	a94857fe 	ldp	x30, x21, [sp, #128]
   8088c:	910283ff 	add	sp, sp, #0xa0
   80890:	d65f03c0 	ret

0000000000080894 <_ZN8graph_os8platform6raspi34uart14UARTController8writefln17heb74615e31add7b4E>:
   80894:	d10283ff 	sub	sp, sp, #0xa0
   80898:	f9400808 	ldr	x8, [x0, #16]
   8089c:	a9094ff4 	stp	x20, x19, [sp, #144]
   808a0:	aa0003f3 	mov	x19, x0
   808a4:	39406009 	ldrb	w9, [x0, #24]
   808a8:	aa0103f4 	mov	x20, x1
   808ac:	a90857fe 	stp	x30, x21, [sp, #128]
   808b0:	91000508 	add	x8, x8, #0x1
   808b4:	f9000808 	str	x8, [x0, #16]
   808b8:	340003e9 	cbz	w9, 80934 <_ZN8graph_os8platform6raspi34uart14UARTController8writefln17heb74615e31add7b4E+0xa0>
   808bc:	f90007e8 	str	x8, [sp, #8]
   808c0:	910023e9 	add	x9, sp, #0x8
   808c4:	d5384248 	mrs	x8, currentel
   808c8:	d000000a 	adrp	x10, 82000 <_ZN4core3str5count14do_count_chars17hf4570e7a07268196E+0xcc>
   808cc:	9127514a 	add	x10, x10, #0x9d4
   808d0:	d3420d08 	ubfx	x8, x8, #2, #2
   808d4:	d000000b 	adrp	x11, 82000 <_ZN4core3str5count14do_count_chars17hf4570e7a07268196E+0xcc>
   808d8:	9127516b 	add	x11, x11, #0x9d4
   808dc:	910103ec 	add	x12, sp, #0x40
   808e0:	90000021 	adrp	x1, 84000 <_ZN17compiler_builtins3mem6memcpy17h5498ba8912cb5f38E+0x6e4>
   808e4:	91160021 	add	x1, x1, #0x580
   808e8:	f90023e8 	str	x8, [sp, #64]
   808ec:	d53800a8 	mrs	x8, mpidr_el1
   808f0:	a9012be9 	stp	x9, x10, [sp, #16]
   808f4:	910123e9 	add	x9, sp, #0x48
   808f8:	92401d08 	and	x8, x8, #0xff
   808fc:	9000002a 	adrp	x10, 84000 <_ZN17compiler_builtins3mem6memcpy17h5498ba8912cb5f38E+0x6e4>
   80900:	9116e14a 	add	x10, x10, #0x5b8
   80904:	a9022fec 	stp	x12, x11, [sp, #32]
   80908:	5280008c 	mov	w12, #0x4                   	// #4
   8090c:	a9032fe9 	stp	x9, x11, [sp, #48]
   80910:	910043e9 	add	x9, sp, #0x10
   80914:	f90027e8 	str	x8, [sp, #72]
   80918:	52800068 	mov	w8, #0x3                   	// #3
   8091c:	910143e2 	add	x2, sp, #0x50
   80920:	aa1303e0 	mov	x0, x19
   80924:	a90533ea 	stp	x10, x12, [sp, #80]
   80928:	a9067fff 	stp	xzr, xzr, [sp, #96]
   8092c:	a90723e9 	stp	x9, x8, [sp, #112]
   80930:	94000889 	bl	82b54 <_ZN4core3fmt5write17h158ce1ba0cbf453dE>
   80934:	910143e0 	add	x0, sp, #0x50
   80938:	aa1403e1 	mov	x1, x20
   8093c:	52800602 	mov	w2, #0x30                  	// #48
   80940:	528a0a95 	mov	w21, #0x5054                	// #20564
   80944:	72a00435 	movk	w21, #0x21, lsl #16
   80948:	94000bf4 	bl	83918 <memcpy>
   8094c:	90000021 	adrp	x1, 84000 <_ZN17compiler_builtins3mem6memcpy17h5498ba8912cb5f38E+0x6e4>
   80950:	91160021 	add	x1, x1, #0x580
   80954:	910143e2 	add	x2, sp, #0x50
   80958:	aa1303e0 	mov	x0, x19
   8095c:	9400087e 	bl	82b54 <_ZN4core3fmt5write17h158ce1ba0cbf453dE>
   80960:	f9400668 	ldr	x8, [x19, #8]
   80964:	f9400509 	ldr	x9, [x8, #8]
   80968:	eb15013f 	cmp	x9, x21
   8096c:	54000103 	b.cc	8098c <_ZN8graph_os8platform6raspi34uart14UARTController8writefln17heb74615e31add7b4E+0xf8>  // b.lo, b.ul, b.last
   80970:	f9400109 	ldr	x9, [x8]
   80974:	b875692a 	ldr	w10, [x9, x21]
   80978:	3728018a 	tbnz	w10, #5, 809a8 <_ZN8graph_os8platform6raspi34uart14UARTController8writefln17heb74615e31add7b4E+0x114>
   8097c:	d503201f 	nop
   80980:	f9400509 	ldr	x9, [x8, #8]
   80984:	eb15013f 	cmp	x9, x21
   80988:	54ffff42 	b.cs	80970 <_ZN8graph_os8platform6raspi34uart14UARTController8writefln17heb74615e31add7b4E+0xdc>  // b.hs, b.nlast
   8098c:	90000020 	adrp	x0, 84000 <_ZN17compiler_builtins3mem6memcpy17h5498ba8912cb5f38E+0x6e4>
   80990:	911ba000 	add	x0, x0, #0x6e8
   80994:	90000022 	adrp	x2, 84000 <_ZN17compiler_builtins3mem6memcpy17h5498ba8912cb5f38E+0x6e4>
   80998:	911c4042 	add	x2, x2, #0x710
   8099c:	528004a1 	mov	w1, #0x25                  	// #37
   809a0:	94000bc5 	bl	838b4 <_ZN4core9panicking5panic17hef51cd3fc116a419E>
   809a4:	d4200020 	brk	#0x1
   809a8:	8b0902a9 	add	x9, x21, x9
   809ac:	5280014a 	mov	w10, #0xa                   	// #10
   809b0:	b81ec12a 	stur	w10, [x9, #-20]
   809b4:	f9400509 	ldr	x9, [x8, #8]
   809b8:	eb15013f 	cmp	x9, x21
   809bc:	54fffe83 	b.cc	8098c <_ZN8graph_os8platform6raspi34uart14UARTController8writefln17heb74615e31add7b4E+0xf8>  // b.lo, b.ul, b.last
   809c0:	f9400109 	ldr	x9, [x8]
   809c4:	b875692a 	ldr	w10, [x9, x21]
   809c8:	372800ca 	tbnz	w10, #5, 809e0 <_ZN8graph_os8platform6raspi34uart14UARTController8writefln17heb74615e31add7b4E+0x14c>
   809cc:	d503201f 	nop
   809d0:	f9400509 	ldr	x9, [x8, #8]
   809d4:	eb15013f 	cmp	x9, x21
   809d8:	54ffff42 	b.cs	809c0 <_ZN8graph_os8platform6raspi34uart14UARTController8writefln17heb74615e31add7b4E+0x12c>  // b.hs, b.nlast
   809dc:	17ffffec 	b	8098c <_ZN8graph_os8platform6raspi34uart14UARTController8writefln17heb74615e31add7b4E+0xf8>
   809e0:	8b0902a8 	add	x8, x21, x9
   809e4:	528001a9 	mov	w9, #0xd                   	// #13
   809e8:	b81ec109 	stur	w9, [x8, #-20]
   809ec:	a9494ff4 	ldp	x20, x19, [sp, #144]
   809f0:	a94857fe 	ldp	x30, x21, [sp, #128]
   809f4:	910283ff 	add	sp, sp, #0xa0
   809f8:	d65f03c0 	ret

00000000000809fc <rust_begin_unwind>:
   809fc:	d10303ff 	sub	sp, sp, #0xc0
   80a00:	90000028 	adrp	x8, 84000 <_ZN17compiler_builtins3mem6memcpy17h5498ba8912cb5f38E+0x6e4>
   80a04:	a90b4ff4 	stp	x20, x19, [sp, #176]
   80a08:	aa0003f3 	mov	x19, x0
   80a0c:	910063e0 	add	x0, sp, #0x18
   80a10:	910003e1 	mov	x1, sp
   80a14:	52800114 	mov	w20, #0x8                   	// #8
   80a18:	3dc18100 	ldr	q0, [x8, #1536]
   80a1c:	910003e8 	mov	x8, sp
   80a20:	f90053fe 	str	x30, [sp, #160]
   80a24:	72a00414 	movk	w20, #0x20, lsl #16
   80a28:	f9000fe8 	str	x8, [sp, #24]
   80a2c:	910083e8 	add	x8, sp, #0x20
   80a30:	3d8003e0 	str	q0, [sp]
   80a34:	97fffeb3 	bl	80500 <_ZN8graph_os8platform6raspi34uart14UARTController4init17h49c0dec43b03d8f0E>
   80a38:	f9400fe8 	ldr	x8, [sp, #24]
   80a3c:	d100128a 	sub	x10, x20, #0x4
   80a40:	f9400509 	ldr	x9, [x8, #8]
   80a44:	eb0a013f 	cmp	x9, x10
   80a48:	54000ec3 	b.cc	80c20 <rust_begin_unwind+0x224>  // b.lo, b.ul, b.last
   80a4c:	f9400109 	ldr	x9, [x8]
   80a50:	8b09028a 	add	x10, x20, x9
   80a54:	12a1bc09 	mov	w9, #0xf21fffff            	// #-232783873
   80a58:	b85fc14b 	ldur	w11, [x10, #-4]
   80a5c:	0a09016b 	and	w11, w11, w9
   80a60:	320b016b 	orr	w11, w11, #0x200000
   80a64:	b81fc14b 	stur	w11, [x10, #-4]
   80a68:	f940050a 	ldr	x10, [x8, #8]
   80a6c:	eb14015f 	cmp	x10, x20
   80a70:	54000d83 	b.cc	80c20 <rust_begin_unwind+0x224>  // b.lo, b.ul, b.last
   80a74:	f940010a 	ldr	x10, [x8]
   80a78:	b874694b 	ldr	w11, [x10, x20]
   80a7c:	0a090169 	and	w9, w11, w9
   80a80:	320b0129 	orr	w9, w9, #0x200000
   80a84:	b8346949 	str	w9, [x10, x20]
   80a88:	f9400509 	ldr	x9, [x8, #8]
   80a8c:	eb14013f 	cmp	x9, x20
   80a90:	54000c83 	b.cc	80c20 <rust_begin_unwind+0x224>  // b.lo, b.ul, b.last
   80a94:	f9400108 	ldr	x8, [x8]
   80a98:	1283780a 	mov	w10, #0xffffe43f            	// #-7105
   80a9c:	b8746909 	ldr	w9, [x8, x20]
   80aa0:	0a0a0129 	and	w9, w9, w10
   80aa4:	321a0129 	orr	w9, w9, #0x40
   80aa8:	b8346909 	str	w9, [x8, x20]
   80aac:	91008288 	add	x8, x20, #0x20
   80ab0:	f9400fe9 	ldr	x9, [sp, #24]
   80ab4:	f940052a 	ldr	x10, [x9, #8]
   80ab8:	eb08015f 	cmp	x10, x8
   80abc:	54000b23 	b.cc	80c20 <rust_begin_unwind+0x224>  // b.lo, b.ul, b.last
   80ac0:	f9400129 	ldr	x9, [x9]
   80ac4:	b868692a 	ldr	w10, [x9, x8]
   80ac8:	3205014a 	orr	w10, w10, #0x8000000
   80acc:	b828692a 	str	w10, [x9, x8]
   80ad0:	f9400fe9 	ldr	x9, [sp, #24]
   80ad4:	f940052a 	ldr	x10, [x9, #8]
   80ad8:	eb08015f 	cmp	x10, x8
   80adc:	54000a23 	b.cc	80c20 <rust_begin_unwind+0x224>  // b.lo, b.ul, b.last
   80ae0:	f9400128 	ldr	x8, [x9]
   80ae4:	9100528a 	add	x10, x20, #0x14
   80ae8:	8b080288 	add	x8, x20, x8
   80aec:	b9402109 	ldr	w9, [x8, #32]
   80af0:	320a0129 	orr	w9, w9, #0x400000
   80af4:	b9002109 	str	w9, [x8, #32]
   80af8:	f9400fe8 	ldr	x8, [sp, #24]
   80afc:	f9400509 	ldr	x9, [x8, #8]
   80b00:	eb0a013f 	cmp	x9, x10
   80b04:	540008e3 	b.cc	80c20 <rust_begin_unwind+0x224>  // b.lo, b.ul, b.last
   80b08:	f9400108 	ldr	x8, [x8]
   80b0c:	90000021 	adrp	x1, 84000 <_ZN17compiler_builtins3mem6memcpy17h5498ba8912cb5f38E+0x6e4>
   80b10:	91184021 	add	x1, x1, #0x610
   80b14:	910083e0 	add	x0, sp, #0x20
   80b18:	aa1f03e2 	mov	x2, xzr
   80b1c:	8b080288 	add	x8, x20, x8
   80b20:	b9401509 	ldr	w9, [x8, #20]
   80b24:	320f0129 	orr	w9, w9, #0x20000
   80b28:	b9001509 	str	w9, [x8, #20]
   80b2c:	97fffedd 	bl	806a0 <_ZN8graph_os8platform6raspi34uart14UARTController7writeln17hbe6f1acb1c65d039E>
   80b30:	90000021 	adrp	x1, 84000 <_ZN17compiler_builtins3mem6memcpy17h5498ba8912cb5f38E+0x6e4>
   80b34:	91184021 	add	x1, x1, #0x610
   80b38:	910083e0 	add	x0, sp, #0x20
   80b3c:	52800382 	mov	w2, #0x1c                  	// #28
   80b40:	97fffed8 	bl	806a0 <_ZN8graph_os8platform6raspi34uart14UARTController7writeln17hbe6f1acb1c65d039E>
   80b44:	aa1303e0 	mov	x0, x19
   80b48:	94000729 	bl	827ec <_ZN4core5panic10panic_info9PanicInfo7message17h593763465f5aa4e8E>
   80b4c:	b40002a0 	cbz	x0, 80ba0 <rust_begin_unwind+0x1a4>
   80b50:	f9400409 	ldr	x9, [x0, #8]
   80b54:	f9401408 	ldr	x8, [x0, #40]
   80b58:	f100053f 	cmp	x9, #0x1
   80b5c:	540000e0 	b.eq	80b78 <rust_begin_unwind+0x17c>  // b.none
   80b60:	b50000e9 	cbnz	x9, 80b7c <rust_begin_unwind+0x180>
   80b64:	b50000c8 	cbnz	x8, 80b7c <rust_begin_unwind+0x180>
   80b68:	aa1f03e2 	mov	x2, xzr
   80b6c:	90000021 	adrp	x1, 84000 <_ZN17compiler_builtins3mem6memcpy17h5498ba8912cb5f38E+0x6e4>
   80b70:	91184021 	add	x1, x1, #0x610
   80b74:	14000009 	b	80b98 <rust_begin_unwind+0x19c>
   80b78:	b40000c8 	cbz	x8, 80b90 <rust_begin_unwind+0x194>
   80b7c:	90000021 	adrp	x1, 84000 <_ZN17compiler_builtins3mem6memcpy17h5498ba8912cb5f38E+0x6e4>
   80b80:	9118b021 	add	x1, x1, #0x62c
   80b84:	910083e0 	add	x0, sp, #0x20
   80b88:	52800262 	mov	w2, #0x13                  	// #19
   80b8c:	14000004 	b	80b9c <rust_begin_unwind+0x1a0>
   80b90:	f9400008 	ldr	x8, [x0]
   80b94:	a9400901 	ldp	x1, x2, [x8]
   80b98:	910083e0 	add	x0, sp, #0x20
   80b9c:	97fffec1 	bl	806a0 <_ZN8graph_os8platform6raspi34uart14UARTController7writeln17hbe6f1acb1c65d039E>
   80ba0:	aa1303e0 	mov	x0, x19
   80ba4:	94000714 	bl	827f4 <_ZN4core5panic10panic_info9PanicInfo8location17hd9b6516e7f2b1d71E>
   80ba8:	b4000300 	cbz	x0, 80c08 <rust_begin_unwind+0x20c>
   80bac:	a9402408 	ldp	x8, x9, [x0]
   80bb0:	910103e1 	add	x1, sp, #0x40
   80bb4:	a9057fff 	stp	xzr, xzr, [sp, #80]
   80bb8:	b940100a 	ldr	w10, [x0, #16]
   80bbc:	910083e0 	add	x0, sp, #0x20
   80bc0:	a90927e8 	stp	x8, x9, [sp, #144]
   80bc4:	910243e8 	add	x8, sp, #0x90
   80bc8:	90000009 	adrp	x9, 80000 <_start>
   80bcc:	91042129 	add	x9, x9, #0x108
   80bd0:	b900afea 	str	w10, [sp, #172]
   80bd4:	9102b3ea 	add	x10, sp, #0xac
   80bd8:	a90727e8 	stp	x8, x9, [sp, #112]
   80bdc:	d0000008 	adrp	x8, 82000 <_ZN4core3str5count14do_count_chars17hf4570e7a07268196E+0xcc>
   80be0:	91217108 	add	x8, x8, #0x85c
   80be4:	90000029 	adrp	x9, 84000 <_ZN17compiler_builtins3mem6memcpy17h5498ba8912cb5f38E+0x6e4>
   80be8:	91196129 	add	x9, x9, #0x658
   80bec:	a90823ea 	stp	x10, x8, [sp, #128]
   80bf0:	52800048 	mov	w8, #0x2                   	// #2
   80bf4:	a90423e9 	stp	x9, x8, [sp, #64]
   80bf8:	9101c3e9 	add	x9, sp, #0x70
   80bfc:	a90623e9 	stp	x9, x8, [sp, #96]
   80c00:	97ffff25 	bl	80894 <_ZN8graph_os8platform6raspi34uart14UARTController8writefln17heb74615e31add7b4E>
   80c04:	14000006 	b	80c1c <rust_begin_unwind+0x220>
   80c08:	90000021 	adrp	x1, 84000 <_ZN17compiler_builtins3mem6memcpy17h5498ba8912cb5f38E+0x6e4>
   80c0c:	9118fc21 	add	x1, x1, #0x63f
   80c10:	910083e0 	add	x0, sp, #0x20
   80c14:	52800222 	mov	w2, #0x11                  	// #17
   80c18:	97fffea2 	bl	806a0 <_ZN8graph_os8platform6raspi34uart14UARTController7writeln17hbe6f1acb1c65d039E>
   80c1c:	14000000 	b	80c1c <rust_begin_unwind+0x220>
   80c20:	90000020 	adrp	x0, 84000 <_ZN17compiler_builtins3mem6memcpy17h5498ba8912cb5f38E+0x6e4>
   80c24:	911ba000 	add	x0, x0, #0x6e8
   80c28:	90000022 	adrp	x2, 84000 <_ZN17compiler_builtins3mem6memcpy17h5498ba8912cb5f38E+0x6e4>
   80c2c:	911c4042 	add	x2, x2, #0x710
   80c30:	528004a1 	mov	w1, #0x25                  	// #37
   80c34:	94000b20 	bl	838b4 <_ZN4core9panicking5panic17hef51cd3fc116a419E>
   80c38:	d4200020 	brk	#0x1
	...

0000000000081000 <_exception_vector>:
   81000:	d2800000 	mov	x0, #0x0                   	// #0
   81004:	d2800001 	mov	x1, #0x0                   	// #0
   81008:	d5385202 	mrs	x2, esr_el1
   8100c:	d5384023 	mrs	x3, elr_el1
   81010:	d5384004 	mrs	x4, spsr_el1
   81014:	d5386005 	mrs	x5, far_el1
   81018:	910003e6 	mov	x6, sp
   8101c:	140001e1 	b	817a0 <handle_exception>
	...
   81080:	d2800000 	mov	x0, #0x0                   	// #0
   81084:	d2800021 	mov	x1, #0x1                   	// #1
   81088:	d5385202 	mrs	x2, esr_el1
   8108c:	d5384023 	mrs	x3, elr_el1
   81090:	d5384004 	mrs	x4, spsr_el1
   81094:	d5386005 	mrs	x5, far_el1
   81098:	910003e6 	mov	x6, sp
   8109c:	140001c1 	b	817a0 <handle_exception>
	...
   81100:	d2800000 	mov	x0, #0x0                   	// #0
   81104:	d2800041 	mov	x1, #0x2                   	// #2
   81108:	d5385202 	mrs	x2, esr_el1
   8110c:	d5384023 	mrs	x3, elr_el1
   81110:	d5384004 	mrs	x4, spsr_el1
   81114:	d5386005 	mrs	x5, far_el1
   81118:	910003e6 	mov	x6, sp
   8111c:	140001a1 	b	817a0 <handle_exception>
	...
   81180:	d2800000 	mov	x0, #0x0                   	// #0
   81184:	d2800061 	mov	x1, #0x3                   	// #3
   81188:	d5385202 	mrs	x2, esr_el1
   8118c:	d5384023 	mrs	x3, elr_el1
   81190:	d5384004 	mrs	x4, spsr_el1
   81194:	d5386005 	mrs	x5, far_el1
   81198:	910003e6 	mov	x6, sp
   8119c:	14000181 	b	817a0 <handle_exception>
	...
   81200:	d2800020 	mov	x0, #0x1                   	// #1
   81204:	d2800001 	mov	x1, #0x0                   	// #0
   81208:	d5385202 	mrs	x2, esr_el1
   8120c:	d5384023 	mrs	x3, elr_el1
   81210:	d5384004 	mrs	x4, spsr_el1
   81214:	d5386005 	mrs	x5, far_el1
   81218:	910003e6 	mov	x6, sp
   8121c:	14000161 	b	817a0 <handle_exception>
	...
   81280:	d2800020 	mov	x0, #0x1                   	// #1
   81284:	d2800021 	mov	x1, #0x1                   	// #1
   81288:	d5385202 	mrs	x2, esr_el1
   8128c:	d5384023 	mrs	x3, elr_el1
   81290:	d5384004 	mrs	x4, spsr_el1
   81294:	d5386005 	mrs	x5, far_el1
   81298:	910003e6 	mov	x6, sp
   8129c:	14000141 	b	817a0 <handle_exception>
	...
   81300:	d2800020 	mov	x0, #0x1                   	// #1
   81304:	d2800041 	mov	x1, #0x2                   	// #2
   81308:	d5385202 	mrs	x2, esr_el1
   8130c:	d5384023 	mrs	x3, elr_el1
   81310:	d5384004 	mrs	x4, spsr_el1
   81314:	d5386005 	mrs	x5, far_el1
   81318:	910003e6 	mov	x6, sp
   8131c:	14000121 	b	817a0 <handle_exception>
	...
   81380:	d2800020 	mov	x0, #0x1                   	// #1
   81384:	d2800061 	mov	x1, #0x3                   	// #3
   81388:	d5385202 	mrs	x2, esr_el1
   8138c:	d5384023 	mrs	x3, elr_el1
   81390:	d5384004 	mrs	x4, spsr_el1
   81394:	d5386005 	mrs	x5, far_el1
   81398:	910003e6 	mov	x6, sp
   8139c:	14000101 	b	817a0 <handle_exception>
	...
   81400:	d2800040 	mov	x0, #0x2                   	// #2
   81404:	d2800001 	mov	x1, #0x0                   	// #0
   81408:	d5385202 	mrs	x2, esr_el1
   8140c:	d5384023 	mrs	x3, elr_el1
   81410:	d5384004 	mrs	x4, spsr_el1
   81414:	d5386005 	mrs	x5, far_el1
   81418:	910003e6 	mov	x6, sp
   8141c:	140000e1 	b	817a0 <handle_exception>
	...
   81480:	d2800040 	mov	x0, #0x2                   	// #2
   81484:	d2800021 	mov	x1, #0x1                   	// #1
   81488:	d5385202 	mrs	x2, esr_el1
   8148c:	d5384023 	mrs	x3, elr_el1
   81490:	d5384004 	mrs	x4, spsr_el1
   81494:	d5386005 	mrs	x5, far_el1
   81498:	910003e6 	mov	x6, sp
   8149c:	140000c1 	b	817a0 <handle_exception>
	...
   81500:	d2800040 	mov	x0, #0x2                   	// #2
   81504:	d2800041 	mov	x1, #0x2                   	// #2
   81508:	d5385202 	mrs	x2, esr_el1
   8150c:	d5384023 	mrs	x3, elr_el1
   81510:	d5384004 	mrs	x4, spsr_el1
   81514:	d5386005 	mrs	x5, far_el1
   81518:	910003e6 	mov	x6, sp
   8151c:	140000a1 	b	817a0 <handle_exception>
	...
   81580:	d2800040 	mov	x0, #0x2                   	// #2
   81584:	d2800061 	mov	x1, #0x3                   	// #3
   81588:	d5385202 	mrs	x2, esr_el1
   8158c:	d5384023 	mrs	x3, elr_el1
   81590:	d5384004 	mrs	x4, spsr_el1
   81594:	d5386005 	mrs	x5, far_el1
   81598:	910003e6 	mov	x6, sp
   8159c:	14000081 	b	817a0 <handle_exception>
	...
   81600:	d2800060 	mov	x0, #0x3                   	// #3
   81604:	d2800001 	mov	x1, #0x0                   	// #0
   81608:	d5385202 	mrs	x2, esr_el1
   8160c:	d5384023 	mrs	x3, elr_el1
   81610:	d5384004 	mrs	x4, spsr_el1
   81614:	d5386005 	mrs	x5, far_el1
   81618:	910003e6 	mov	x6, sp
   8161c:	14000061 	b	817a0 <handle_exception>
	...
   81680:	d2800060 	mov	x0, #0x3                   	// #3
   81684:	d2800021 	mov	x1, #0x1                   	// #1
   81688:	d5385202 	mrs	x2, esr_el1
   8168c:	d5384023 	mrs	x3, elr_el1
   81690:	d5384004 	mrs	x4, spsr_el1
   81694:	d5386005 	mrs	x5, far_el1
   81698:	910003e6 	mov	x6, sp
   8169c:	14000041 	b	817a0 <handle_exception>
	...
   81700:	d2800060 	mov	x0, #0x3                   	// #3
   81704:	d2800041 	mov	x1, #0x2                   	// #2
   81708:	d5385202 	mrs	x2, esr_el1
   8170c:	d5384023 	mrs	x3, elr_el1
   81710:	d5384004 	mrs	x4, spsr_el1
   81714:	d5386005 	mrs	x5, far_el1
   81718:	910003e6 	mov	x6, sp
   8171c:	14000021 	b	817a0 <handle_exception>
	...
   81780:	d2800060 	mov	x0, #0x3                   	// #3
   81784:	d2800061 	mov	x1, #0x3                   	// #3
   81788:	d5385202 	mrs	x2, esr_el1
   8178c:	d5384023 	mrs	x3, elr_el1
   81790:	d5384004 	mrs	x4, spsr_el1
   81794:	d5386005 	mrs	x5, far_el1
   81798:	910003e6 	mov	x6, sp
   8179c:	14000001 	b	817a0 <handle_exception>

00000000000817a0 <handle_exception>:
   817a0:	52800388 	mov	w8, #0x1c                  	// #28
   817a4:	12a1bc0a 	mov	w10, #0xf21fffff            	// #-232783873
   817a8:	72a7e408 	movk	w8, #0x3f20, lsl #16
   817ac:	1283780c 	mov	w12, #0xffffe43f            	// #-7105
   817b0:	9100142d 	add	x13, x1, #0x5
   817b4:	b85e8109 	ldur	w9, [x8, #-24]
   817b8:	0a0a0129 	and	w9, w9, w10
   817bc:	320b0129 	orr	w9, w9, #0x200000
   817c0:	b81e8109 	stur	w9, [x8, #-24]
   817c4:	b85ec109 	ldur	w9, [x8, #-20]
   817c8:	0a0a0129 	and	w9, w9, w10
   817cc:	529c6c0a 	mov	w10, #0xe360                	// #58208
   817d0:	320b0129 	orr	w9, w9, #0x200000
   817d4:	72a002ca 	movk	w10, #0x16, lsl #16
   817d8:	b81ec109 	stur	w9, [x8, #-20]
   817dc:	52860089 	mov	w9, #0x3004                	// #12292
   817e0:	b85ec10b 	ldur	w11, [x8, #-20]
   817e4:	72a7e009 	movk	w9, #0x3f00, lsl #16
   817e8:	0a0c016c 	and	w12, w11, w12
   817ec:	528e360b 	mov	w11, #0x71b0                	// #29104
   817f0:	72a0016b 	movk	w11, #0xb, lsl #16
   817f4:	321a018e 	orr	w14, w12, #0x40
   817f8:	9100140c 	add	x12, x0, #0x5
   817fc:	b81ec10e 	stur	w14, [x8, #-20]
   81800:	b40003ac 	cbz	x12, 81874 <handle_exception+0xd4>
   81804:	aa1f03ee 	mov	x14, xzr
   81808:	b940010f 	ldr	w15, [x8]
   8180c:	320a01ef 	orr	w15, w15, #0x400000
   81810:	b900010f 	str	w15, [x8]
   81814:	b940012f 	ldr	w15, [x9]
   81818:	b9400530 	ldr	w16, [x9, #4]
   8181c:	8b0b01ef 	add	x15, x15, x11
   81820:	8b1081ef 	add	x15, x15, x16, lsl #32
   81824:	b9400130 	ldr	w16, [x9]
   81828:	b9400531 	ldr	w17, [x9, #4]
   8182c:	b3607e30 	bfi	x16, x17, #32, #32
   81830:	eb0f021f 	cmp	x16, x15
   81834:	54ffff83 	b.cc	81824 <handle_exception+0x84>  // b.lo, b.ul, b.last
   81838:	b9400d0f 	ldr	w15, [x8, #12]
   8183c:	320a01ef 	orr	w15, w15, #0x400000
   81840:	b9000d0f 	str	w15, [x8, #12]
   81844:	b940012f 	ldr	w15, [x9]
   81848:	b9400530 	ldr	w16, [x9, #4]
   8184c:	8b0b01ef 	add	x15, x15, x11
   81850:	8b1081ef 	add	x15, x15, x16, lsl #32
   81854:	b9400130 	ldr	w16, [x9]
   81858:	b9400531 	ldr	w17, [x9, #4]
   8185c:	b3607e30 	bfi	x16, x17, #32, #32
   81860:	eb0f021f 	cmp	x16, x15
   81864:	54ffff83 	b.cc	81854 <handle_exception+0xb4>  // b.lo, b.ul, b.last
   81868:	910005ce 	add	x14, x14, #0x1
   8186c:	eb0c01df 	cmp	x14, x12
   81870:	54fffcc1 	b.ne	81808 <handle_exception+0x68>  // b.any
   81874:	b940012e 	ldr	w14, [x9]
   81878:	b940052f 	ldr	w15, [x9, #4]
   8187c:	8b0a01ce 	add	x14, x14, x10
   81880:	8b0f81ce 	add	x14, x14, x15, lsl #32
   81884:	b940012f 	ldr	w15, [x9]
   81888:	b9400530 	ldr	w16, [x9, #4]
   8188c:	b3607e0f 	bfi	x15, x16, #32, #32
   81890:	eb0e01ff 	cmp	x15, x14
   81894:	54ffff83 	b.cc	81884 <handle_exception+0xe4>  // b.lo, b.ul, b.last
   81898:	b40003ad 	cbz	x13, 8190c <handle_exception+0x16c>
   8189c:	aa1f03ee 	mov	x14, xzr
   818a0:	b940010f 	ldr	w15, [x8]
   818a4:	320f01ef 	orr	w15, w15, #0x20000
   818a8:	b900010f 	str	w15, [x8]
   818ac:	b940012f 	ldr	w15, [x9]
   818b0:	b9400530 	ldr	w16, [x9, #4]
   818b4:	8b0b01ef 	add	x15, x15, x11
   818b8:	8b1081ef 	add	x15, x15, x16, lsl #32
   818bc:	b9400130 	ldr	w16, [x9]
   818c0:	b9400531 	ldr	w17, [x9, #4]
   818c4:	b3607e30 	bfi	x16, x17, #32, #32
   818c8:	eb0f021f 	cmp	x16, x15
   818cc:	54ffff83 	b.cc	818bc <handle_exception+0x11c>  // b.lo, b.ul, b.last
   818d0:	b9400d0f 	ldr	w15, [x8, #12]
   818d4:	320f01ef 	orr	w15, w15, #0x20000
   818d8:	b9000d0f 	str	w15, [x8, #12]
   818dc:	b940012f 	ldr	w15, [x9]
   818e0:	b9400530 	ldr	w16, [x9, #4]
   818e4:	8b0b01ef 	add	x15, x15, x11
   818e8:	8b1081ef 	add	x15, x15, x16, lsl #32
   818ec:	b9400130 	ldr	w16, [x9]
   818f0:	b9400531 	ldr	w17, [x9, #4]
   818f4:	b3607e30 	bfi	x16, x17, #32, #32
   818f8:	eb0f021f 	cmp	x16, x15
   818fc:	54ffff83 	b.cc	818ec <handle_exception+0x14c>  // b.lo, b.ul, b.last
   81900:	910005ce 	add	x14, x14, #0x1
   81904:	eb0d01df 	cmp	x14, x13
   81908:	54fffcc1 	b.ne	818a0 <handle_exception+0x100>  // b.any
   8190c:	b940012e 	ldr	w14, [x9]
   81910:	b940052f 	ldr	w15, [x9, #4]
   81914:	8b0a01ce 	add	x14, x14, x10
   81918:	8b0f81ce 	add	x14, x14, x15, lsl #32
   8191c:	b940012f 	ldr	w15, [x9]
   81920:	b9400530 	ldr	w16, [x9, #4]
   81924:	b3607e0f 	bfi	x15, x16, #32, #32
   81928:	eb0e01ff 	cmp	x15, x14
   8192c:	54ffff83 	b.cc	8191c <handle_exception+0x17c>  // b.lo, b.ul, b.last
   81930:	2a1f03ee 	mov	w14, wzr
   81934:	4b0e03ef 	neg	w15, w14
   81938:	9acf2450 	lsr	x16, x2, x15
   8193c:	b940010f 	ldr	w15, [x8]
   81940:	360001d0 	tbz	w16, #0, 81978 <handle_exception+0x1d8>
   81944:	320501ef 	orr	w15, w15, #0x8000000
   81948:	b900010f 	str	w15, [x8]
   8194c:	b940012f 	ldr	w15, [x9]
   81950:	b9400530 	ldr	w16, [x9, #4]
   81954:	8b0b01ef 	add	x15, x15, x11
   81958:	8b1081ef 	add	x15, x15, x16, lsl #32
   8195c:	b9400130 	ldr	w16, [x9]
   81960:	b9400531 	ldr	w17, [x9, #4]
   81964:	b3607e30 	bfi	x16, x17, #32, #32
   81968:	eb0f021f 	cmp	x16, x15
   8196c:	54ffff83 	b.cc	8195c <handle_exception+0x1bc>  // b.lo, b.ul, b.last
   81970:	52a1000f 	mov	w15, #0x8000000             	// #134217728
   81974:	1400000d 	b	819a8 <handle_exception+0x208>
   81978:	320a01ef 	orr	w15, w15, #0x400000
   8197c:	b900010f 	str	w15, [x8]
   81980:	b940012f 	ldr	w15, [x9]
   81984:	b9400530 	ldr	w16, [x9, #4]
   81988:	8b0b01ef 	add	x15, x15, x11
   8198c:	8b1081ef 	add	x15, x15, x16, lsl #32
   81990:	b9400130 	ldr	w16, [x9]
   81994:	b9400531 	ldr	w17, [x9, #4]
   81998:	b3607e30 	bfi	x16, x17, #32, #32
   8199c:	eb0f021f 	cmp	x16, x15
   819a0:	54ffff83 	b.cc	81990 <handle_exception+0x1f0>  // b.lo, b.ul, b.last
   819a4:	52a0080f 	mov	w15, #0x400000              	// #4194304
   819a8:	b9400d10 	ldr	w16, [x8, #12]
   819ac:	110005ce 	add	w14, w14, #0x1
   819b0:	2a0f020f 	orr	w15, w16, w15
   819b4:	b9000d0f 	str	w15, [x8, #12]
   819b8:	b940012f 	ldr	w15, [x9]
   819bc:	b9400530 	ldr	w16, [x9, #4]
   819c0:	8b0b01ef 	add	x15, x15, x11
   819c4:	8b1081ef 	add	x15, x15, x16, lsl #32
   819c8:	b9400130 	ldr	w16, [x9]
   819cc:	b9400531 	ldr	w17, [x9, #4]
   819d0:	b3607e30 	bfi	x16, x17, #32, #32
   819d4:	eb0f021f 	cmp	x16, x15
   819d8:	54ffff83 	b.cc	819c8 <handle_exception+0x228>  // b.lo, b.ul, b.last
   819dc:	710101df 	cmp	w14, #0x40
   819e0:	54fffaa1 	b.ne	81934 <handle_exception+0x194>  // b.any
   819e4:	b940012e 	ldr	w14, [x9]
   819e8:	b940052f 	ldr	w15, [x9, #4]
   819ec:	8b0a01ce 	add	x14, x14, x10
   819f0:	8b0f81ce 	add	x14, x14, x15, lsl #32
   819f4:	b940012f 	ldr	w15, [x9]
   819f8:	b9400530 	ldr	w16, [x9, #4]
   819fc:	b3607e0f 	bfi	x15, x16, #32, #32
   81a00:	eb0e01ff 	cmp	x15, x14
   81a04:	54ffff83 	b.cc	819f4 <handle_exception+0x254>  // b.lo, b.ul, b.last
   81a08:	2a1f03ee 	mov	w14, wzr
   81a0c:	4b0e03ef 	neg	w15, w14
   81a10:	9acf2470 	lsr	x16, x3, x15
   81a14:	b940010f 	ldr	w15, [x8]
   81a18:	360001d0 	tbz	w16, #0, 81a50 <handle_exception+0x2b0>
   81a1c:	320501ef 	orr	w15, w15, #0x8000000
   81a20:	b900010f 	str	w15, [x8]
   81a24:	b940012f 	ldr	w15, [x9]
   81a28:	b9400530 	ldr	w16, [x9, #4]
   81a2c:	8b0b01ef 	add	x15, x15, x11
   81a30:	8b1081ef 	add	x15, x15, x16, lsl #32
   81a34:	b9400130 	ldr	w16, [x9]
   81a38:	b9400531 	ldr	w17, [x9, #4]
   81a3c:	b3607e30 	bfi	x16, x17, #32, #32
   81a40:	eb0f021f 	cmp	x16, x15
   81a44:	54ffff83 	b.cc	81a34 <handle_exception+0x294>  // b.lo, b.ul, b.last
   81a48:	52a1000f 	mov	w15, #0x8000000             	// #134217728
   81a4c:	1400000d 	b	81a80 <handle_exception+0x2e0>
   81a50:	320a01ef 	orr	w15, w15, #0x400000
   81a54:	b900010f 	str	w15, [x8]
   81a58:	b940012f 	ldr	w15, [x9]
   81a5c:	b9400530 	ldr	w16, [x9, #4]
   81a60:	8b0b01ef 	add	x15, x15, x11
   81a64:	8b1081ef 	add	x15, x15, x16, lsl #32
   81a68:	b9400130 	ldr	w16, [x9]
   81a6c:	b9400531 	ldr	w17, [x9, #4]
   81a70:	b3607e30 	bfi	x16, x17, #32, #32
   81a74:	eb0f021f 	cmp	x16, x15
   81a78:	54ffff83 	b.cc	81a68 <handle_exception+0x2c8>  // b.lo, b.ul, b.last
   81a7c:	52a0080f 	mov	w15, #0x400000              	// #4194304
   81a80:	b9400d10 	ldr	w16, [x8, #12]
   81a84:	110005ce 	add	w14, w14, #0x1
   81a88:	2a0f020f 	orr	w15, w16, w15
   81a8c:	b9000d0f 	str	w15, [x8, #12]
   81a90:	b940012f 	ldr	w15, [x9]
   81a94:	b9400530 	ldr	w16, [x9, #4]
   81a98:	8b0b01ef 	add	x15, x15, x11
   81a9c:	8b1081ef 	add	x15, x15, x16, lsl #32
   81aa0:	b9400130 	ldr	w16, [x9]
   81aa4:	b9400531 	ldr	w17, [x9, #4]
   81aa8:	b3607e30 	bfi	x16, x17, #32, #32
   81aac:	eb0f021f 	cmp	x16, x15
   81ab0:	54ffff83 	b.cc	81aa0 <handle_exception+0x300>  // b.lo, b.ul, b.last
   81ab4:	710101df 	cmp	w14, #0x40
   81ab8:	54fffaa1 	b.ne	81a0c <handle_exception+0x26c>  // b.any
   81abc:	b940012e 	ldr	w14, [x9]
   81ac0:	b940052f 	ldr	w15, [x9, #4]
   81ac4:	8b0a01ce 	add	x14, x14, x10
   81ac8:	8b0f81ce 	add	x14, x14, x15, lsl #32
   81acc:	b940012f 	ldr	w15, [x9]
   81ad0:	b9400530 	ldr	w16, [x9, #4]
   81ad4:	b3607e0f 	bfi	x15, x16, #32, #32
   81ad8:	eb0e01ff 	cmp	x15, x14
   81adc:	54ffff83 	b.cc	81acc <handle_exception+0x32c>  // b.lo, b.ul, b.last
   81ae0:	17ffff48 	b	81800 <handle_exception+0x60>

0000000000081ae4 <main>:
   81ae4:	d10343ff 	sub	sp, sp, #0xd0
   81ae8:	a90b57f6 	stp	x22, x21, [sp, #176]
   81aec:	52800395 	mov	w21, #0x1c                  	// #28
   81af0:	72a7e415 	movk	w21, #0x3f20, lsl #16
   81af4:	a90a07fe 	stp	x30, x1, [sp, #160]
   81af8:	a90c4ff4 	stp	x20, x19, [sp, #192]
   81afc:	12a1bc09 	mov	w9, #0xf21fffff            	// #-232783873
   81b00:	f90017e0 	str	x0, [sp, #40]
   81b04:	aa0303f3 	mov	x19, x3
   81b08:	b85e82a8 	ldur	w8, [x21, #-24]
   81b0c:	0a090108 	and	w8, w8, w9
   81b10:	320b0108 	orr	w8, w8, #0x200000
   81b14:	b81e82a8 	stur	w8, [x21, #-24]
   81b18:	b85ec2a8 	ldur	w8, [x21, #-20]
   81b1c:	0a090108 	and	w8, w8, w9
   81b20:	12837809 	mov	w9, #0xffffe43f            	// #-7105
   81b24:	320b0108 	orr	w8, w8, #0x200000
   81b28:	b81ec2a8 	stur	w8, [x21, #-20]
   81b2c:	b85ec2a8 	ldur	w8, [x21, #-20]
   81b30:	0a090108 	and	w8, w8, w9
   81b34:	321a0108 	orr	w8, w8, #0x40
   81b38:	b81ec2a8 	stur	w8, [x21, #-20]
   81b3c:	b94002a8 	ldr	w8, [x21]
   81b40:	32050109 	orr	w9, w8, #0x8000000
   81b44:	52860088 	mov	w8, #0x3004                	// #12292
   81b48:	72a7e008 	movk	w8, #0x3f00, lsl #16
   81b4c:	b90002a9 	str	w9, [x21]
   81b50:	5290d409 	mov	w9, #0x86a0                	// #34464
   81b54:	b940010a 	ldr	w10, [x8]
   81b58:	72a00029 	movk	w9, #0x1, lsl #16
   81b5c:	b940050b 	ldr	w11, [x8, #4]
   81b60:	b3607d6a 	bfi	x10, x11, #32, #32
   81b64:	8b09014a 	add	x10, x10, x9
   81b68:	b940010b 	ldr	w11, [x8]
   81b6c:	b940050c 	ldr	w12, [x8, #4]
   81b70:	b3607d8b 	bfi	x11, x12, #32, #32
   81b74:	eb0a017f 	cmp	x11, x10
   81b78:	54ffff83 	b.cc	81b68 <main+0x84>  // b.lo, b.ul, b.last
   81b7c:	b9400eaa 	ldr	w10, [x21, #12]
   81b80:	3205014a 	orr	w10, w10, #0x8000000
   81b84:	b9000eaa 	str	w10, [x21, #12]
   81b88:	b94002aa 	ldr	w10, [x21]
   81b8c:	320a014a 	orr	w10, w10, #0x400000
   81b90:	b90002aa 	str	w10, [x21]
   81b94:	b940010a 	ldr	w10, [x8]
   81b98:	b940050b 	ldr	w11, [x8, #4]
   81b9c:	8b09014a 	add	x10, x10, x9
   81ba0:	8b0b814a 	add	x10, x10, x11, lsl #32
   81ba4:	b940010b 	ldr	w11, [x8]
   81ba8:	b940050c 	ldr	w12, [x8, #4]
   81bac:	b3607d8b 	bfi	x11, x12, #32, #32
   81bb0:	eb0a017f 	cmp	x11, x10
   81bb4:	54ffff83 	b.cc	81ba4 <main+0xc0>  // b.lo, b.ul, b.last
   81bb8:	b9400eaa 	ldr	w10, [x21, #12]
   81bbc:	320a014a 	orr	w10, w10, #0x400000
   81bc0:	b9000eaa 	str	w10, [x21, #12]
   81bc4:	b94002aa 	ldr	w10, [x21]
   81bc8:	320f014a 	orr	w10, w10, #0x20000
   81bcc:	b90002aa 	str	w10, [x21]
   81bd0:	b940010a 	ldr	w10, [x8]
   81bd4:	b940050b 	ldr	w11, [x8, #4]
   81bd8:	8b090149 	add	x9, x10, x9
   81bdc:	8b0b8129 	add	x9, x9, x11, lsl #32
   81be0:	b940010a 	ldr	w10, [x8]
   81be4:	b940050b 	ldr	w11, [x8, #4]
   81be8:	b3607d6a 	bfi	x10, x11, #32, #32
   81bec:	eb09015f 	cmp	x10, x9
   81bf0:	54ffff83 	b.cc	81be0 <main+0xfc>  // b.lo, b.ul, b.last
   81bf4:	b9400ea8 	ldr	w8, [x21, #12]
   81bf8:	f0000000 	adrp	x0, 84000 <_ZN17compiler_builtins3mem6memcpy17h5498ba8912cb5f38E+0x6e4>
   81bfc:	911a2000 	add	x0, x0, #0x688
   81c00:	f0000001 	adrp	x1, 84000 <_ZN17compiler_builtins3mem6memcpy17h5498ba8912cb5f38E+0x6e4>
   81c04:	9119e021 	add	x1, x1, #0x678
   81c08:	320f0108 	orr	w8, w8, #0x20000
   81c0c:	b9000ea8 	str	w8, [x21, #12]
   81c10:	9100c3e8 	add	x8, sp, #0x30
   81c14:	97fffa3b 	bl	80500 <_ZN8graph_os8platform6raspi34uart14UARTController4init17h49c0dec43b03d8f0E>
   81c18:	52800028 	mov	w8, #0x1                   	// #1
   81c1c:	f0000014 	adrp	x20, 84000 <_ZN17compiler_builtins3mem6memcpy17h5498ba8912cb5f38E+0x6e4>
   81c20:	9126e294 	add	x20, x20, #0x9b8
   81c24:	390123e8 	strb	w8, [sp, #72]
   81c28:	a94423e9 	ldp	x9, x8, [sp, #64]
   81c2c:	a9012289 	stp	x9, x8, [x20, #16]
   81c30:	a94323ea 	ldp	x10, x8, [sp, #48]
   81c34:	3940628b 	ldrb	w11, [x20, #24]
   81c38:	7100097f 	cmp	w11, #0x2
   81c3c:	a900228a 	stp	x10, x8, [x20]
   81c40:	54000f40 	b.eq	81e28 <main+0x344>  // b.none
   81c44:	f0000008 	adrp	x8, 84000 <_ZN17compiler_builtins3mem6memcpy17h5498ba8912cb5f38E+0x6e4>
   81c48:	910ca108 	add	x8, x8, #0x328
   81c4c:	52800029 	mov	w9, #0x1                   	// #1
   81c50:	f0000016 	adrp	x22, 84000 <_ZN17compiler_builtins3mem6memcpy17h5498ba8912cb5f38E+0x6e4>
   81c54:	910c42d6 	add	x22, x22, #0x310
   81c58:	910143e1 	add	x1, sp, #0x50
   81c5c:	aa1403e0 	mov	x0, x20
   81c60:	a9067fff 	stp	xzr, xzr, [sp, #96]
   81c64:	a90527e8 	stp	x8, x9, [sp, #80]
   81c68:	a9077ff6 	stp	x22, xzr, [sp, #112]
   81c6c:	97fffb0a 	bl	80894 <_ZN8graph_os8platform6raspi34uart14UARTController8writefln17heb74615e31add7b4E>
   81c70:	39406288 	ldrb	w8, [x20, #24]
   81c74:	7100091f 	cmp	w8, #0x2
   81c78:	54000e20 	b.eq	81e3c <main+0x358>  // b.none
   81c7c:	f0000014 	adrp	x20, 84000 <_ZN17compiler_builtins3mem6memcpy17h5498ba8912cb5f38E+0x6e4>
   81c80:	9126e294 	add	x20, x20, #0x9b8
   81c84:	f0000008 	adrp	x8, 84000 <_ZN17compiler_builtins3mem6memcpy17h5498ba8912cb5f38E+0x6e4>
   81c88:	910ee108 	add	x8, x8, #0x3b8
   81c8c:	52800029 	mov	w9, #0x1                   	// #1
   81c90:	910143e1 	add	x1, sp, #0x50
   81c94:	aa1403e0 	mov	x0, x20
   81c98:	a9067fff 	stp	xzr, xzr, [sp, #96]
   81c9c:	a9077ff6 	stp	x22, xzr, [sp, #112]
   81ca0:	a90527e8 	stp	x8, x9, [sp, #80]
   81ca4:	97fffafc 	bl	80894 <_ZN8graph_os8platform6raspi34uart14UARTController8writefln17heb74615e31add7b4E>
   81ca8:	d5382009 	mrs	x9, ttbr0_el1
   81cac:	2a1f03e8 	mov	w8, wzr
   81cb0:	b340be69 	bfxil	x9, x19, #0, #48
   81cb4:	d5182009 	msr	ttbr0_el1, x9
   81cb8:	d518a208 	msr	mair_el1, x8
   81cbc:	52800429 	mov	w9, #0x21                  	// #33
   81cc0:	d5382048 	mrs	x8, tcr_el1
   81cc4:	72b00009 	movk	w9, #0x8000, lsl #16
   81cc8:	927ae508 	and	x8, x8, #0xffffffffffffffc0
   81ccc:	9260f508 	and	x8, x8, #0xffffffff3fffffff
   81cd0:	aa090108 	orr	x8, x8, x9
   81cd4:	52808029 	mov	w9, #0x401                 	// #1025
   81cd8:	d5182048 	msr	tcr_el1, x8
   81cdc:	aa1f03e8 	mov	x8, xzr
   81ce0:	d5033fdf 	isb
   81ce4:	4e080d20 	dup	v0.2d, x9
   81ce8:	3d8003e0 	str	q0, [sp]
   81cec:	8b080269 	add	x9, x19, x8
   81cf0:	f94007ea 	ldr	x10, [sp, #8]
   81cf4:	91008108 	add	x8, x8, #0x20
   81cf8:	f140051f 	cmp	x8, #0x1, lsl #12
   81cfc:	f900052a 	str	x10, [x9, #8]
   81d00:	f94003ea 	ldr	x10, [sp]
   81d04:	f900012a 	str	x10, [x9]
   81d08:	3d8007e0 	str	q0, [sp, #16]
   81d0c:	f9400fea 	ldr	x10, [sp, #24]
   81d10:	f9000d2a 	str	x10, [x9, #24]
   81d14:	f9400bea 	ldr	x10, [sp, #16]
   81d18:	f900092a 	str	x10, [x9, #16]
   81d1c:	54fffe61 	b.ne	81ce8 <main+0x204>  // b.any
   81d20:	d5033f9f 	dsb	sy
   81d24:	528000a9 	mov	w9, #0x5                   	// #5
   81d28:	d5381008 	mrs	x8, sctlr_el1
   81d2c:	aa090108 	orr	x8, x8, x9
   81d30:	f0000009 	adrp	x9, 84000 <_ZN17compiler_builtins3mem6memcpy17h5498ba8912cb5f38E+0x6e4>
   81d34:	d5181008 	msr	sctlr_el1, x8
   81d38:	d5033fdf 	isb
   81d3c:	39674128 	ldrb	w8, [x9, #2512]
   81d40:	7100091f 	cmp	w8, #0x2
   81d44:	54000860 	b.eq	81e50 <main+0x36c>  // b.none
   81d48:	f0000008 	adrp	x8, 84000 <_ZN17compiler_builtins3mem6memcpy17h5498ba8912cb5f38E+0x6e4>
   81d4c:	91102108 	add	x8, x8, #0x408
   81d50:	52800029 	mov	w9, #0x1                   	// #1
   81d54:	910143e1 	add	x1, sp, #0x50
   81d58:	aa1403e0 	mov	x0, x20
   81d5c:	a9067fff 	stp	xzr, xzr, [sp, #96]
   81d60:	a9077ff6 	stp	x22, xzr, [sp, #112]
   81d64:	a90527e8 	stp	x8, x9, [sp, #80]
   81d68:	97fffacb 	bl	80894 <_ZN8graph_os8platform6raspi34uart14UARTController8writefln17heb74615e31add7b4E>
   81d6c:	39406288 	ldrb	w8, [x20, #24]
   81d70:	7100091f 	cmp	w8, #0x2
   81d74:	54000780 	b.eq	81e64 <main+0x380>  // b.none
   81d78:	f0000008 	adrp	x8, 84000 <_ZN17compiler_builtins3mem6memcpy17h5498ba8912cb5f38E+0x6e4>
   81d7c:	91114108 	add	x8, x8, #0x450
   81d80:	52800029 	mov	w9, #0x1                   	// #1
   81d84:	910143e1 	add	x1, sp, #0x50
   81d88:	aa1403e0 	mov	x0, x20
   81d8c:	a9067fff 	stp	xzr, xzr, [sp, #96]
   81d90:	a9077ff6 	stp	x22, xzr, [sp, #112]
   81d94:	a90527e8 	stp	x8, x9, [sp, #80]
   81d98:	97fffabf 	bl	80894 <_ZN8graph_os8platform6raspi34uart14UARTController8writefln17heb74615e31add7b4E>
   81d9c:	52900008 	mov	w8, #0x8000                	// #32768
   81da0:	52820009 	mov	w9, #0x1000                	// #4096
   81da4:	72a00108 	movk	w8, #0x8, lsl #16
   81da8:	f9000109 	str	x9, [x8]
   81dac:	f0000009 	adrp	x9, 84000 <_ZN17compiler_builtins3mem6memcpy17h5498ba8912cb5f38E+0x6e4>
   81db0:	f900051f 	str	xzr, [x8, #8]
   81db4:	39406288 	ldrb	w8, [x20, #24]
   81db8:	f904f13f 	str	xzr, [x9, #2528]
   81dbc:	7100091f 	cmp	w8, #0x2
   81dc0:	540005c0 	b.eq	81e78 <main+0x394>  // b.none
   81dc4:	9100a3e8 	add	x8, sp, #0x28
   81dc8:	90000009 	adrp	x9, 81000 <_exception_vector>
   81dcc:	913a5129 	add	x9, x9, #0xe94
   81dd0:	b000000a 	adrp	x10, 82000 <_ZN4core3str5count14do_count_chars17hf4570e7a07268196E+0xcc>
   81dd4:	9127514a 	add	x10, x10, #0x9d4
   81dd8:	9102a3eb 	add	x11, sp, #0xa8
   81ddc:	f0000000 	adrp	x0, 84000 <_ZN17compiler_builtins3mem6memcpy17h5498ba8912cb5f38E+0x6e4>
   81de0:	9126e000 	add	x0, x0, #0x9b8
   81de4:	a90827e8 	stp	x8, x9, [sp, #128]
   81de8:	f0000008 	adrp	x8, 84000 <_ZN17compiler_builtins3mem6memcpy17h5498ba8912cb5f38E+0x6e4>
   81dec:	9112a108 	add	x8, x8, #0x4a8
   81df0:	52800049 	mov	w9, #0x2                   	// #2
   81df4:	a9092beb 	stp	x11, x10, [sp, #144]
   81df8:	f000000a 	adrp	x10, 84000 <_ZN17compiler_builtins3mem6memcpy17h5498ba8912cb5f38E+0x6e4>
   81dfc:	9113214a 	add	x10, x10, #0x4c8
   81e00:	910143e1 	add	x1, sp, #0x50
   81e04:	a90527e8 	stp	x8, x9, [sp, #80]
   81e08:	910203e8 	add	x8, sp, #0x80
   81e0c:	a90627ea 	stp	x10, x9, [sp, #96]
   81e10:	a90727e8 	stp	x8, x9, [sp, #112]
   81e14:	97fffaa0 	bl	80894 <_ZN8graph_os8platform6raspi34uart14UARTController8writefln17heb74615e31add7b4E>
   81e18:	b94002a8 	ldr	w8, [x21]
   81e1c:	32050108 	orr	w8, w8, #0x8000000
   81e20:	b90002a8 	str	w8, [x21]
   81e24:	14000000 	b	81e24 <main+0x340>
   81e28:	f0000000 	adrp	x0, 84000 <_ZN17compiler_builtins3mem6memcpy17h5498ba8912cb5f38E+0x6e4>
   81e2c:	910ce000 	add	x0, x0, #0x338
   81e30:	f0000002 	adrp	x2, 84000 <_ZN17compiler_builtins3mem6memcpy17h5498ba8912cb5f38E+0x6e4>
   81e34:	910de042 	add	x2, x2, #0x378
   81e38:	14000014 	b	81e88 <main+0x3a4>
   81e3c:	f0000000 	adrp	x0, 84000 <_ZN17compiler_builtins3mem6memcpy17h5498ba8912cb5f38E+0x6e4>
   81e40:	910ce000 	add	x0, x0, #0x338
   81e44:	f0000002 	adrp	x2, 84000 <_ZN17compiler_builtins3mem6memcpy17h5498ba8912cb5f38E+0x6e4>
   81e48:	910f2042 	add	x2, x2, #0x3c8
   81e4c:	1400000f 	b	81e88 <main+0x3a4>
   81e50:	f0000000 	adrp	x0, 84000 <_ZN17compiler_builtins3mem6memcpy17h5498ba8912cb5f38E+0x6e4>
   81e54:	910ce000 	add	x0, x0, #0x338
   81e58:	f0000002 	adrp	x2, 84000 <_ZN17compiler_builtins3mem6memcpy17h5498ba8912cb5f38E+0x6e4>
   81e5c:	91106042 	add	x2, x2, #0x418
   81e60:	1400000a 	b	81e88 <main+0x3a4>
   81e64:	f0000000 	adrp	x0, 84000 <_ZN17compiler_builtins3mem6memcpy17h5498ba8912cb5f38E+0x6e4>
   81e68:	910ce000 	add	x0, x0, #0x338
   81e6c:	f0000002 	adrp	x2, 84000 <_ZN17compiler_builtins3mem6memcpy17h5498ba8912cb5f38E+0x6e4>
   81e70:	91118042 	add	x2, x2, #0x460
   81e74:	14000005 	b	81e88 <main+0x3a4>
   81e78:	f0000000 	adrp	x0, 84000 <_ZN17compiler_builtins3mem6memcpy17h5498ba8912cb5f38E+0x6e4>
   81e7c:	910ce000 	add	x0, x0, #0x338
   81e80:	f0000002 	adrp	x2, 84000 <_ZN17compiler_builtins3mem6memcpy17h5498ba8912cb5f38E+0x6e4>
   81e84:	9114e042 	add	x2, x2, #0x538
   81e88:	528003c1 	mov	w1, #0x1e                  	// #30
   81e8c:	9400068a 	bl	838b4 <_ZN4core9panicking5panic17hef51cd3fc116a419E>
   81e90:	d4200020 	brk	#0x1

0000000000081e94 <_ZN4core3fmt3num53_$LT$impl$u20$core..fmt..LowerHex$u20$for$u20$i64$GT$3fmt17h5845e6562b381294E>:
   81e94:	d10243ff 	sub	sp, sp, #0x90
   81e98:	52800fe8 	mov	w8, #0x7f                  	// #127
   81e9c:	52800ae9 	mov	w9, #0x57                  	// #87
   81ea0:	f940000c 	ldr	x12, [x0]
   81ea4:	5280060a 	mov	w10, #0x30                  	// #48
   81ea8:	910003eb 	mov	x11, sp
   81eac:	f90043fe 	str	x30, [sp, #128]
   81eb0:	12000d8d 	and	w13, w12, #0xf
   81eb4:	d344fd8e 	lsr	x14, x12, #4
   81eb8:	710029bf 	cmp	w13, #0xa
   81ebc:	aa0803e0 	mov	x0, x8
   81ec0:	1a89314f 	csel	w15, w10, w9, cc  // cc = lo, ul, last
   81ec4:	f1003d9f 	cmp	x12, #0xf
   81ec8:	d1000508 	sub	x8, x8, #0x1
   81ecc:	aa0e03ec 	mov	x12, x14
   81ed0:	0b0d01ed 	add	w13, w15, w13
   81ed4:	3820696d 	strb	w13, [x11, x0]
   81ed8:	54fffec8 	b.hi	81eb0 <_ZN4core3fmt3num53_$LT$impl$u20$core..fmt..LowerHex$u20$for$u20$i64$GT$3fmt17h5845e6562b381294E+0x1c>  // b.pmore
   81edc:	f102041f 	cmp	x0, #0x81
   81ee0:	54000202 	b.cs	81f20 <_ZN4core3fmt3num53_$LT$impl$u20$core..fmt..LowerHex$u20$for$u20$i64$GT$3fmt17h5845e6562b381294E+0x8c>  // b.hs, b.nlast
   81ee4:	91000408 	add	x8, x0, #0x1
   81ee8:	910003e9 	mov	x9, sp
   81eec:	8b080129 	add	x9, x9, x8
   81ef0:	5280102a 	mov	w10, #0x81                  	// #129
   81ef4:	d1000524 	sub	x4, x9, #0x1
   81ef8:	cb080145 	sub	x5, x10, x8
   81efc:	f0000002 	adrp	x2, 84000 <_ZN17compiler_builtins3mem6memcpy17h5498ba8912cb5f38E+0x6e4>
   81f00:	911f0042 	add	x2, x2, #0x7c0
   81f04:	aa0103e0 	mov	x0, x1
   81f08:	52800021 	mov	w1, #0x1                   	// #1
   81f0c:	52800043 	mov	w3, #0x2                   	// #2
   81f10:	9400039c 	bl	82d80 <_ZN4core3fmt9Formatter12pad_integral17h18655efe8c4788ccE>
   81f14:	f94043fe 	ldr	x30, [sp, #128]
   81f18:	910243ff 	add	sp, sp, #0x90
   81f1c:	d65f03c0 	ret
   81f20:	f0000002 	adrp	x2, 84000 <_ZN17compiler_builtins3mem6memcpy17h5498ba8912cb5f38E+0x6e4>
   81f24:	911ea042 	add	x2, x2, #0x7a8
   81f28:	52801001 	mov	w1, #0x80                  	// #128
   81f2c:	94000236 	bl	82804 <_ZN4core5slice5index26slice_start_index_len_fail17hd430acefd806b1e2E>
   81f30:	d4200020 	brk	#0x1

0000000000081f34 <_ZN4core3str5count14do_count_chars17hf4570e7a07268196E>:
   81f34:	d10103ff 	sub	sp, sp, #0x40
   81f38:	91001c08 	add	x8, x0, #0x7
   81f3c:	927df10c 	and	x12, x8, #0xfffffffffffffff8
   81f40:	cb00018b 	sub	x11, x12, x0
   81f44:	eb01017f 	cmp	x11, x1
   81f48:	54000188 	b.hi	81f78 <_ZN4core3str5count14do_count_chars17hf4570e7a07268196E+0x44>  // b.pmore
   81f4c:	f100217f 	cmp	x11, #0x8
   81f50:	54000148 	b.hi	81f78 <_ZN4core3str5count14do_count_chars17hf4570e7a07268196E+0x44>  // b.pmore
   81f54:	cb0b002a 	sub	x10, x1, x11
   81f58:	f100215f 	cmp	x10, #0x8
   81f5c:	540000e3 	b.cc	81f78 <_ZN4core3str5count14do_count_chars17hf4570e7a07268196E+0x44>  // b.lo, b.ul, b.last
   81f60:	8b0b0009 	add	x9, x0, x11
   81f64:	92400948 	and	x8, x10, #0x7
   81f68:	eb00019f 	cmp	x12, x0
   81f6c:	54000241 	b.ne	81fb4 <_ZN4core3str5count14do_count_chars17hf4570e7a07268196E+0x80>  // b.any
   81f70:	aa1f03ed 	mov	x13, xzr
   81f74:	14000153 	b	824c0 <_ZN4core3str5count14do_count_chars17hf4570e7a07268196E+0x58c>
   81f78:	b40000c1 	cbz	x1, 81f90 <_ZN4core3str5count14do_count_chars17hf4570e7a07268196E+0x5c>
   81f7c:	f100203f 	cmp	x1, #0x8
   81f80:	54000102 	b.cs	81fa0 <_ZN4core3str5count14do_count_chars17hf4570e7a07268196E+0x6c>  // b.hs, b.nlast
   81f84:	aa1f03e8 	mov	x8, xzr
   81f88:	aa0003ea 	mov	x10, x0
   81f8c:	140000a6 	b	82224 <_ZN4core3str5count14do_count_chars17hf4570e7a07268196E+0x2f0>
   81f90:	aa1f03e8 	mov	x8, xzr
   81f94:	aa0803e0 	mov	x0, x8
   81f98:	910103ff 	add	sp, sp, #0x40
   81f9c:	d65f03c0 	ret
   81fa0:	f100403f 	cmp	x1, #0x10
   81fa4:	54000122 	b.cs	81fc8 <_ZN4core3str5count14do_count_chars17hf4570e7a07268196E+0x94>  // b.hs, b.nlast
   81fa8:	aa1f03e8 	mov	x8, xzr
   81fac:	aa1f03e9 	mov	x9, xzr
   81fb0:	14000067 	b	8214c <_ZN4core3str5count14do_count_chars17hf4570e7a07268196E+0x218>
   81fb4:	f100217f 	cmp	x11, #0x8
   81fb8:	54001442 	b.cs	82240 <_ZN4core3str5count14do_count_chars17hf4570e7a07268196E+0x30c>  // b.hs, b.nlast
   81fbc:	aa1f03ed 	mov	x13, xzr
   81fc0:	aa0003ee 	mov	x14, x0
   81fc4:	1400013a 	b	824ac <_ZN4core3str5count14do_count_chars17hf4570e7a07268196E+0x578>
   81fc8:	5280002b 	mov	w11, #0x1                   	// #1
   81fcc:	927cec29 	and	x9, x1, #0xfffffffffffffff0
   81fd0:	6f00e400 	movi	v0.2d, #0x0
   81fd4:	aa0903e8 	mov	x8, x9
   81fd8:	4f05e7e1 	movi	v1.16b, #0xbf
   81fdc:	aa0003ea 	mov	x10, x0
   81fe0:	6f00e402 	movi	v2.2d, #0x0
   81fe4:	6f00e404 	movi	v4.2d, #0x0
   81fe8:	6f00e403 	movi	v3.2d, #0x0
   81fec:	6f00e406 	movi	v6.2d, #0x0
   81ff0:	6f00e405 	movi	v5.2d, #0x0
   81ff4:	6f00e410 	movi	v16.2d, #0x0
   81ff8:	6f00e407 	movi	v7.2d, #0x0
   81ffc:	4e080d71 	dup	v17.2d, x11
   82000:	aa0a03eb 	mov	x11, x10
   82004:	3940154e 	ldrb	w14, [x10, #5]
   82008:	3940094f 	ldrb	w15, [x10, #2]
   8200c:	f1004108 	subs	x8, x8, #0x10
   82010:	38404d6c 	ldrb	w12, [x11, #4]!
   82014:	39400d6d 	ldrb	w13, [x11, #3]
   82018:	3940096b 	ldrb	w11, [x11, #2]
   8201c:	33181dcc 	bfi	w12, w14, #8, #8
   82020:	3940054e 	ldrb	w14, [x10, #1]
   82024:	33181dab 	bfi	w11, w13, #8, #8
   82028:	39400d4d 	ldrb	w13, [x10, #3]
   8202c:	33103d6c 	bfi	w12, w11, #16, #16
   82030:	3940014b 	ldrb	w11, [x10]
   82034:	b3781daf 	bfi	x15, x13, #8, #8
   82038:	b3781dcb 	bfi	x11, x14, #8, #8
   8203c:	b3703deb 	bfi	x11, x15, #16, #16
   82040:	b3607d8b 	bfi	x11, x12, #32, #32
   82044:	aa0a03ec 	mov	x12, x10
   82048:	f90003eb 	str	x11, [sp]
   8204c:	38408d8b 	ldrb	w11, [x12, #8]!
   82050:	39400d8d 	ldrb	w13, [x12, #3]
   82054:	3940098e 	ldrb	w14, [x12, #2]
   82058:	38404d8f 	ldrb	w15, [x12, #4]!
   8205c:	39400d90 	ldrb	w16, [x12, #3]
   82060:	3940098c 	ldrb	w12, [x12, #2]
   82064:	b3781dae 	bfi	x14, x13, #8, #8
   82068:	39403551 	ldrb	w17, [x10, #13]
   8206c:	33181e0c 	bfi	w12, w16, #8, #8
   82070:	33181e2f 	bfi	w15, w17, #8, #8
   82074:	33103d8f 	bfi	w15, w12, #16, #16
   82078:	3940254c 	ldrb	w12, [x10, #9]
   8207c:	9100414a 	add	x10, x10, #0x10
   82080:	b3781d8b 	bfi	x11, x12, #8, #8
   82084:	b3703dcb 	bfi	x11, x14, #16, #16
   82088:	b3607deb 	bfi	x11, x15, #32, #32
   8208c:	f90007eb 	str	x11, [sp, #8]
   82090:	3dc003f2 	ldr	q18, [sp]
   82094:	4e213652 	cmgt	v18.16b, v18.16b, v1.16b
   82098:	2f08a653 	uxtl	v19.8h, v18.8b
   8209c:	6f08a652 	uxtl2	v18.8h, v18.16b
   820a0:	2f10a674 	uxtl	v20.4s, v19.4h
   820a4:	6f10a673 	uxtl2	v19.4s, v19.8h
   820a8:	2f10a655 	uxtl	v21.4s, v18.4h
   820ac:	6f10a652 	uxtl2	v18.4s, v18.8h
   820b0:	2f20a696 	uxtl	v22.2d, v20.2s
   820b4:	6f20a694 	uxtl2	v20.2d, v20.4s
   820b8:	2f20a677 	uxtl	v23.2d, v19.2s
   820bc:	2f20a6b8 	uxtl	v24.2d, v21.2s
   820c0:	6f20a673 	uxtl2	v19.2d, v19.4s
   820c4:	6f20a6b5 	uxtl2	v21.2d, v21.4s
   820c8:	2f20a659 	uxtl	v25.2d, v18.2s
   820cc:	6f20a652 	uxtl2	v18.2d, v18.4s
   820d0:	4e311ed6 	and	v22.16b, v22.16b, v17.16b
   820d4:	4e311e94 	and	v20.16b, v20.16b, v17.16b
   820d8:	4e311ef7 	and	v23.16b, v23.16b, v17.16b
   820dc:	4e311f18 	and	v24.16b, v24.16b, v17.16b
   820e0:	4e311e73 	and	v19.16b, v19.16b, v17.16b
   820e4:	4e311eb5 	and	v21.16b, v21.16b, v17.16b
   820e8:	4e311f39 	and	v25.16b, v25.16b, v17.16b
   820ec:	4e311e52 	and	v18.16b, v18.16b, v17.16b
   820f0:	4ef284e7 	add	v7.2d, v7.2d, v18.2d
   820f4:	4ef98610 	add	v16.2d, v16.2d, v25.2d
   820f8:	4ef584a5 	add	v5.2d, v5.2d, v21.2d
   820fc:	4ef38463 	add	v3.2d, v3.2d, v19.2d
   82100:	4ef884c6 	add	v6.2d, v6.2d, v24.2d
   82104:	4ef78484 	add	v4.2d, v4.2d, v23.2d
   82108:	4ef48442 	add	v2.2d, v2.2d, v20.2d
   8210c:	4ef68400 	add	v0.2d, v0.2d, v22.2d
   82110:	54fff781 	b.ne	82000 <_ZN4core3str5count14do_count_chars17hf4570e7a07268196E+0xcc>  // b.any
   82114:	4ee68400 	add	v0.2d, v0.2d, v6.2d
   82118:	eb01013f 	cmp	x9, x1
   8211c:	4ef08481 	add	v1.2d, v4.2d, v16.2d
   82120:	4ee58442 	add	v2.2d, v2.2d, v5.2d
   82124:	4ee78463 	add	v3.2d, v3.2d, v7.2d
   82128:	4ee18400 	add	v0.2d, v0.2d, v1.2d
   8212c:	4ee38441 	add	v1.2d, v2.2d, v3.2d
   82130:	4ee18400 	add	v0.2d, v0.2d, v1.2d
   82134:	5ef1b800 	addp	d0, v0.2d
   82138:	9e660008 	fmov	x8, d0
   8213c:	54fff2c0 	b.eq	81f94 <_ZN4core3str5count14do_count_chars17hf4570e7a07268196E+0x60>  // b.none
   82140:	37180061 	tbnz	w1, #3, 8214c <_ZN4core3str5count14do_count_chars17hf4570e7a07268196E+0x218>
   82144:	8b09000a 	add	x10, x0, x9
   82148:	14000037 	b	82224 <_ZN4core3str5count14do_count_chars17hf4570e7a07268196E+0x2f0>
   8214c:	6f00e400 	movi	v0.2d, #0x0
   82150:	5280002c 	mov	w12, #0x1                   	// #1
   82154:	927df02b 	and	x11, x1, #0xfffffffffffffff8
   82158:	0f05e7e2 	movi	v2.8b, #0xbf
   8215c:	6f00e401 	movi	v1.2d, #0x0
   82160:	8b0b000a 	add	x10, x0, x11
   82164:	6f00e403 	movi	v3.2d, #0x0
   82168:	4e081d00 	mov	v0.d[0], x8
   8216c:	8b090008 	add	x8, x0, x9
   82170:	6f00e404 	movi	v4.2d, #0x0
   82174:	cb0b0129 	sub	x9, x9, x11
   82178:	4e080d85 	dup	v5.2d, x12
   8217c:	aa0803ec 	mov	x12, x8
   82180:	3940150f 	ldrb	w15, [x8, #5]
   82184:	39400910 	ldrb	w16, [x8, #2]
   82188:	b1002129 	adds	x9, x9, #0x8
   8218c:	38404d8d 	ldrb	w13, [x12, #4]!
   82190:	39400d8e 	ldrb	w14, [x12, #3]
   82194:	3940098c 	ldrb	w12, [x12, #2]
   82198:	33181ded 	bfi	w13, w15, #8, #8
   8219c:	3940050f 	ldrb	w15, [x8, #1]
   821a0:	33181dcc 	bfi	w12, w14, #8, #8
   821a4:	39400d0e 	ldrb	w14, [x8, #3]
   821a8:	33103d8d 	bfi	w13, w12, #16, #16
   821ac:	b3781dd0 	bfi	x16, x14, #8, #8
   821b0:	3840850c 	ldrb	w12, [x8], #8
   821b4:	b3781dec 	bfi	x12, x15, #8, #8
   821b8:	b3703e0c 	bfi	x12, x16, #16, #16
   821bc:	b3607dac 	bfi	x12, x13, #32, #32
   821c0:	9e670186 	fmov	d6, x12
   821c4:	0e2234c6 	cmgt	v6.8b, v6.8b, v2.8b
   821c8:	2f08a4c6 	uxtl	v6.8h, v6.8b
   821cc:	2f10a4c7 	uxtl	v7.4s, v6.4h
   821d0:	6f10a4c6 	uxtl2	v6.4s, v6.8h
   821d4:	2f20a4f0 	uxtl	v16.2d, v7.2s
   821d8:	6f20a4e7 	uxtl2	v7.2d, v7.4s
   821dc:	2f20a4d1 	uxtl	v17.2d, v6.2s
   821e0:	6f20a4c6 	uxtl2	v6.2d, v6.4s
   821e4:	4e251e10 	and	v16.16b, v16.16b, v5.16b
   821e8:	4e251ce7 	and	v7.16b, v7.16b, v5.16b
   821ec:	4e251e31 	and	v17.16b, v17.16b, v5.16b
   821f0:	4e251cc6 	and	v6.16b, v6.16b, v5.16b
   821f4:	4ee68484 	add	v4.2d, v4.2d, v6.2d
   821f8:	4ef18463 	add	v3.2d, v3.2d, v17.2d
   821fc:	4ee78421 	add	v1.2d, v1.2d, v7.2d
   82200:	4ef08400 	add	v0.2d, v0.2d, v16.2d
   82204:	54fffbc1 	b.ne	8217c <_ZN4core3str5count14do_count_chars17hf4570e7a07268196E+0x248>  // b.any
   82208:	4ee38400 	add	v0.2d, v0.2d, v3.2d
   8220c:	eb01017f 	cmp	x11, x1
   82210:	4ee48421 	add	v1.2d, v1.2d, v4.2d
   82214:	4ee18400 	add	v0.2d, v0.2d, v1.2d
   82218:	5ef1b800 	addp	d0, v0.2d
   8221c:	9e660008 	fmov	x8, d0
   82220:	54ffeba0 	b.eq	81f94 <_ZN4core3str5count14do_count_chars17hf4570e7a07268196E+0x60>  // b.none
   82224:	8b010009 	add	x9, x0, x1
   82228:	38c0154b 	ldrsb	w11, [x10], #1
   8222c:	3101057f 	cmn	w11, #0x41
   82230:	9a88d508 	cinc	x8, x8, gt
   82234:	eb09015f 	cmp	x10, x9
   82238:	54ffff81 	b.ne	82228 <_ZN4core3str5count14do_count_chars17hf4570e7a07268196E+0x2f4>  // b.any
   8223c:	17ffff56 	b	81f94 <_ZN4core3str5count14do_count_chars17hf4570e7a07268196E+0x60>
   82240:	f100417f 	cmp	x11, #0x10
   82244:	54000742 	b.cs	8232c <_ZN4core3str5count14do_count_chars17hf4570e7a07268196E+0x3f8>  // b.hs, b.nlast
   82248:	aa1f03ed 	mov	x13, xzr
   8224c:	aa1f03ec 	mov	x12, xzr
   82250:	6f00e400 	movi	v0.2d, #0x0
   82254:	52800030 	mov	w16, #0x1                   	// #1
   82258:	927df16f 	and	x15, x11, #0xfffffffffffffff8
   8225c:	0f05e7e2 	movi	v2.8b, #0xbf
   82260:	6f00e401 	movi	v1.2d, #0x0
   82264:	8b0f000e 	add	x14, x0, x15
   82268:	6f00e403 	movi	v3.2d, #0x0
   8226c:	4e081da0 	mov	v0.d[0], x13
   82270:	8b0c000d 	add	x13, x0, x12
   82274:	6f00e404 	movi	v4.2d, #0x0
   82278:	cb0f018c 	sub	x12, x12, x15
   8227c:	4e080e05 	dup	v5.2d, x16
   82280:	aa0d03f0 	mov	x16, x13
   82284:	394015a0 	ldrb	w0, [x13, #5]
   82288:	394009a1 	ldrb	w1, [x13, #2]
   8228c:	b100218c 	adds	x12, x12, #0x8
   82290:	38404e11 	ldrb	w17, [x16, #4]!
   82294:	39400e12 	ldrb	w18, [x16, #3]
   82298:	39400a10 	ldrb	w16, [x16, #2]
   8229c:	33181c11 	bfi	w17, w0, #8, #8
   822a0:	394005a0 	ldrb	w0, [x13, #1]
   822a4:	33181e50 	bfi	w16, w18, #8, #8
   822a8:	39400db2 	ldrb	w18, [x13, #3]
   822ac:	33103e11 	bfi	w17, w16, #16, #16
   822b0:	b3781e41 	bfi	x1, x18, #8, #8
   822b4:	384085b0 	ldrb	w16, [x13], #8
   822b8:	b3781c10 	bfi	x16, x0, #8, #8
   822bc:	b3703c30 	bfi	x16, x1, #16, #16
   822c0:	b3607e30 	bfi	x16, x17, #32, #32
   822c4:	9e670206 	fmov	d6, x16
   822c8:	0e2234c6 	cmgt	v6.8b, v6.8b, v2.8b
   822cc:	2f08a4c6 	uxtl	v6.8h, v6.8b
   822d0:	2f10a4c7 	uxtl	v7.4s, v6.4h
   822d4:	6f10a4c6 	uxtl2	v6.4s, v6.8h
   822d8:	2f20a4f0 	uxtl	v16.2d, v7.2s
   822dc:	6f20a4e7 	uxtl2	v7.2d, v7.4s
   822e0:	2f20a4d1 	uxtl	v17.2d, v6.2s
   822e4:	6f20a4c6 	uxtl2	v6.2d, v6.4s
   822e8:	4e251e10 	and	v16.16b, v16.16b, v5.16b
   822ec:	4e251ce7 	and	v7.16b, v7.16b, v5.16b
   822f0:	4e251e31 	and	v17.16b, v17.16b, v5.16b
   822f4:	4e251cc6 	and	v6.16b, v6.16b, v5.16b
   822f8:	4ee68484 	add	v4.2d, v4.2d, v6.2d
   822fc:	4ef18463 	add	v3.2d, v3.2d, v17.2d
   82300:	4ee78421 	add	v1.2d, v1.2d, v7.2d
   82304:	4ef08400 	add	v0.2d, v0.2d, v16.2d
   82308:	54fffbc1 	b.ne	82280 <_ZN4core3str5count14do_count_chars17hf4570e7a07268196E+0x34c>  // b.any
   8230c:	4ee38400 	add	v0.2d, v0.2d, v3.2d
   82310:	eb0f017f 	cmp	x11, x15
   82314:	4ee48421 	add	v1.2d, v1.2d, v4.2d
   82318:	4ee18400 	add	v0.2d, v0.2d, v1.2d
   8231c:	5ef1b800 	addp	d0, v0.2d
   82320:	9e66000d 	fmov	x13, d0
   82324:	54000c41 	b.ne	824ac <_ZN4core3str5count14do_count_chars17hf4570e7a07268196E+0x578>  // b.any
   82328:	14000066 	b	824c0 <_ZN4core3str5count14do_count_chars17hf4570e7a07268196E+0x58c>
   8232c:	5280002f 	mov	w15, #0x1                   	// #1
   82330:	927ced6c 	and	x12, x11, #0xfffffffffffffff0
   82334:	6f00e400 	movi	v0.2d, #0x0
   82338:	aa0c03ed 	mov	x13, x12
   8233c:	4f05e7e1 	movi	v1.16b, #0xbf
   82340:	aa0003ee 	mov	x14, x0
   82344:	6f00e402 	movi	v2.2d, #0x0
   82348:	6f00e404 	movi	v4.2d, #0x0
   8234c:	6f00e403 	movi	v3.2d, #0x0
   82350:	6f00e406 	movi	v6.2d, #0x0
   82354:	6f00e405 	movi	v5.2d, #0x0
   82358:	6f00e410 	movi	v16.2d, #0x0
   8235c:	6f00e407 	movi	v7.2d, #0x0
   82360:	4e080df1 	dup	v17.2d, x15
   82364:	aa0e03ef 	mov	x15, x14
   82368:	394015d2 	ldrb	w18, [x14, #5]
   8236c:	394009c1 	ldrb	w1, [x14, #2]
   82370:	f10041ad 	subs	x13, x13, #0x10
   82374:	38404df0 	ldrb	w16, [x15, #4]!
   82378:	39400df1 	ldrb	w17, [x15, #3]
   8237c:	394009ef 	ldrb	w15, [x15, #2]
   82380:	33181e50 	bfi	w16, w18, #8, #8
   82384:	394005d2 	ldrb	w18, [x14, #1]
   82388:	33181e2f 	bfi	w15, w17, #8, #8
   8238c:	39400dd1 	ldrb	w17, [x14, #3]
   82390:	33103df0 	bfi	w16, w15, #16, #16
   82394:	394001cf 	ldrb	w15, [x14]
   82398:	b3781e21 	bfi	x1, x17, #8, #8
   8239c:	b3781e4f 	bfi	x15, x18, #8, #8
   823a0:	b3703c2f 	bfi	x15, x1, #16, #16
   823a4:	b3607e0f 	bfi	x15, x16, #32, #32
   823a8:	aa0e03f0 	mov	x16, x14
   823ac:	f9001bef 	str	x15, [sp, #48]
   823b0:	38408e0f 	ldrb	w15, [x16, #8]!
   823b4:	39400e11 	ldrb	w17, [x16, #3]
   823b8:	39400a12 	ldrb	w18, [x16, #2]
   823bc:	38404e01 	ldrb	w1, [x16, #4]!
   823c0:	39400e02 	ldrb	w2, [x16, #3]
   823c4:	39400a10 	ldrb	w16, [x16, #2]
   823c8:	b3781e32 	bfi	x18, x17, #8, #8
   823cc:	394035c3 	ldrb	w3, [x14, #13]
   823d0:	33181c50 	bfi	w16, w2, #8, #8
   823d4:	33181c61 	bfi	w1, w3, #8, #8
   823d8:	33103e01 	bfi	w1, w16, #16, #16
   823dc:	394025d0 	ldrb	w16, [x14, #9]
   823e0:	910041ce 	add	x14, x14, #0x10
   823e4:	b3781e0f 	bfi	x15, x16, #8, #8
   823e8:	b3703e4f 	bfi	x15, x18, #16, #16
   823ec:	b3607c2f 	bfi	x15, x1, #32, #32
   823f0:	f9001fef 	str	x15, [sp, #56]
   823f4:	3dc00ff2 	ldr	q18, [sp, #48]
   823f8:	4e213652 	cmgt	v18.16b, v18.16b, v1.16b
   823fc:	2f08a653 	uxtl	v19.8h, v18.8b
   82400:	6f08a652 	uxtl2	v18.8h, v18.16b
   82404:	2f10a674 	uxtl	v20.4s, v19.4h
   82408:	6f10a673 	uxtl2	v19.4s, v19.8h
   8240c:	2f10a655 	uxtl	v21.4s, v18.4h
   82410:	6f10a652 	uxtl2	v18.4s, v18.8h
   82414:	2f20a696 	uxtl	v22.2d, v20.2s
   82418:	6f20a694 	uxtl2	v20.2d, v20.4s
   8241c:	2f20a677 	uxtl	v23.2d, v19.2s
   82420:	2f20a6b8 	uxtl	v24.2d, v21.2s
   82424:	6f20a673 	uxtl2	v19.2d, v19.4s
   82428:	6f20a6b5 	uxtl2	v21.2d, v21.4s
   8242c:	2f20a659 	uxtl	v25.2d, v18.2s
   82430:	6f20a652 	uxtl2	v18.2d, v18.4s
   82434:	4e311ed6 	and	v22.16b, v22.16b, v17.16b
   82438:	4e311e94 	and	v20.16b, v20.16b, v17.16b
   8243c:	4e311ef7 	and	v23.16b, v23.16b, v17.16b
   82440:	4e311f18 	and	v24.16b, v24.16b, v17.16b
   82444:	4e311e73 	and	v19.16b, v19.16b, v17.16b
   82448:	4e311eb5 	and	v21.16b, v21.16b, v17.16b
   8244c:	4e311f39 	and	v25.16b, v25.16b, v17.16b
   82450:	4e311e52 	and	v18.16b, v18.16b, v17.16b
   82454:	4ef284e7 	add	v7.2d, v7.2d, v18.2d
   82458:	4ef98610 	add	v16.2d, v16.2d, v25.2d
   8245c:	4ef584a5 	add	v5.2d, v5.2d, v21.2d
   82460:	4ef38463 	add	v3.2d, v3.2d, v19.2d
   82464:	4ef884c6 	add	v6.2d, v6.2d, v24.2d
   82468:	4ef78484 	add	v4.2d, v4.2d, v23.2d
   8246c:	4ef48442 	add	v2.2d, v2.2d, v20.2d
   82470:	4ef68400 	add	v0.2d, v0.2d, v22.2d
   82474:	54fff781 	b.ne	82364 <_ZN4core3str5count14do_count_chars17hf4570e7a07268196E+0x430>  // b.any
   82478:	4ee68400 	add	v0.2d, v0.2d, v6.2d
   8247c:	eb0c017f 	cmp	x11, x12
   82480:	4ef08481 	add	v1.2d, v4.2d, v16.2d
   82484:	4ee58442 	add	v2.2d, v2.2d, v5.2d
   82488:	4ee78463 	add	v3.2d, v3.2d, v7.2d
   8248c:	4ee18400 	add	v0.2d, v0.2d, v1.2d
   82490:	4ee38441 	add	v1.2d, v2.2d, v3.2d
   82494:	4ee18400 	add	v0.2d, v0.2d, v1.2d
   82498:	5ef1b800 	addp	d0, v0.2d
   8249c:	9e66000d 	fmov	x13, d0
   824a0:	54000100 	b.eq	824c0 <_ZN4core3str5count14do_count_chars17hf4570e7a07268196E+0x58c>  // b.none
   824a4:	371fed6b 	tbnz	w11, #3, 82250 <_ZN4core3str5count14do_count_chars17hf4570e7a07268196E+0x31c>
   824a8:	8b0c000e 	add	x14, x0, x12
   824ac:	38c015cb 	ldrsb	w11, [x14], #1
   824b0:	3101057f 	cmn	w11, #0x41
   824b4:	9a8dd5ad 	cinc	x13, x13, gt
   824b8:	eb0901df 	cmp	x14, x9
   824bc:	54ffff81 	b.ne	824ac <_ZN4core3str5count14do_count_chars17hf4570e7a07268196E+0x578>  // b.any
   824c0:	d343fd4b 	lsr	x11, x10, #3
   824c4:	b40004a8 	cbz	x8, 82558 <_ZN4core3str5count14do_count_chars17hf4570e7a07268196E+0x624>
   824c8:	927df14a 	and	x10, x10, #0xfffffffffffffff8
   824cc:	8b0a012c 	add	x12, x9, x10
   824d0:	39c0018a 	ldrsb	w10, [x12]
   824d4:	3101055f 	cmn	w10, #0x41
   824d8:	1a9fd7ea 	cset	w10, gt
   824dc:	f100051f 	cmp	x8, #0x1
   824e0:	540003e0 	b.eq	8255c <_ZN4core3str5count14do_count_chars17hf4570e7a07268196E+0x628>  // b.none
   824e4:	39c0058e 	ldrsb	w14, [x12, #1]
   824e8:	310105df 	cmn	w14, #0x41
   824ec:	9a8ad54a 	cinc	x10, x10, gt
   824f0:	f100091f 	cmp	x8, #0x2
   824f4:	54000340 	b.eq	8255c <_ZN4core3str5count14do_count_chars17hf4570e7a07268196E+0x628>  // b.none
   824f8:	39c0098e 	ldrsb	w14, [x12, #2]
   824fc:	310105df 	cmn	w14, #0x41
   82500:	9a8ad54a 	cinc	x10, x10, gt
   82504:	f1000d1f 	cmp	x8, #0x3
   82508:	540002a0 	b.eq	8255c <_ZN4core3str5count14do_count_chars17hf4570e7a07268196E+0x628>  // b.none
   8250c:	39c00d8e 	ldrsb	w14, [x12, #3]
   82510:	310105df 	cmn	w14, #0x41
   82514:	9a8ad54a 	cinc	x10, x10, gt
   82518:	f100111f 	cmp	x8, #0x4
   8251c:	54000200 	b.eq	8255c <_ZN4core3str5count14do_count_chars17hf4570e7a07268196E+0x628>  // b.none
   82520:	39c0118e 	ldrsb	w14, [x12, #4]
   82524:	310105df 	cmn	w14, #0x41
   82528:	9a8ad54a 	cinc	x10, x10, gt
   8252c:	f100151f 	cmp	x8, #0x5
   82530:	54000160 	b.eq	8255c <_ZN4core3str5count14do_count_chars17hf4570e7a07268196E+0x628>  // b.none
   82534:	39c0158e 	ldrsb	w14, [x12, #5]
   82538:	310105df 	cmn	w14, #0x41
   8253c:	9a8ad54a 	cinc	x10, x10, gt
   82540:	f100191f 	cmp	x8, #0x6
   82544:	540000c0 	b.eq	8255c <_ZN4core3str5count14do_count_chars17hf4570e7a07268196E+0x628>  // b.none
   82548:	39c01988 	ldrsb	w8, [x12, #6]
   8254c:	3101051f 	cmn	w8, #0x41
   82550:	9a8ad54a 	cinc	x10, x10, gt
   82554:	14000002 	b	8255c <_ZN4core3str5count14do_count_chars17hf4570e7a07268196E+0x628>
   82558:	aa1f03ea 	mov	x10, xzr
   8255c:	8b0d0148 	add	x8, x10, x13
   82560:	5280080d 	mov	w13, #0x40                  	// #64
   82564:	4f00e420 	movi	v0.16b, #0x1
   82568:	5280180a 	mov	w10, #0xc0                  	// #192
   8256c:	b20083ec 	mov	x12, #0x1000100010001       	// #281479271743489
   82570:	4e080da1 	dup	v1.2d, x13
   82574:	1400000b 	b	825a0 <_ZN4core3str5count14do_count_chars17hf4570e7a07268196E+0x66c>
   82578:	aa1f03e0 	mov	x0, xzr
   8257c:	d348fc0f 	lsr	x15, x0, #8
   82580:	92009c10 	and	x16, x0, #0xff00ff00ff00ff
   82584:	92009def 	and	x15, x15, #0xff00ff00ff00ff
   82588:	8b1001ef 	add	x15, x15, x16
   8258c:	9b0c7df0 	mul	x16, x15, x12
   82590:	9240052f 	and	x15, x9, #0x3
   82594:	8b090da9 	add	x9, x13, x9, lsl #3
   82598:	8b50c108 	add	x8, x8, x16, lsr #48
   8259c:	b5000def 	cbnz	x15, 82758 <_ZN4core3str5count14do_count_chars17hf4570e7a07268196E+0x824>
   825a0:	b4ffcfab 	cbz	x11, 81f94 <_ZN4core3str5count14do_count_chars17hf4570e7a07268196E+0x60>
   825a4:	f103017f 	cmp	x11, #0xc0
   825a8:	aa0903ed 	mov	x13, x9
   825ac:	9a8a3169 	csel	x9, x11, x10, cc  // cc = lo, ul, last
   825b0:	cb09016b 	sub	x11, x11, x9
   825b4:	f27e152e 	ands	x14, x9, #0xfc
   825b8:	54fffe00 	b.eq	82578 <_ZN4core3str5count14do_count_chars17hf4570e7a07268196E+0x644>  // b.none
   825bc:	d342fd30 	lsr	x16, x9, #2
   825c0:	d100060f 	sub	x15, x16, #0x1
   825c4:	9240e9ef 	and	x15, x15, #0x7ffffffffffffff
   825c8:	f1000dff 	cmp	x15, #0x3
   825cc:	54000082 	b.cs	825dc <_ZN4core3str5count14do_count_chars17hf4570e7a07268196E+0x6a8>  // b.hs, b.nlast
   825d0:	aa1f03e0 	mov	x0, xzr
   825d4:	aa0d03ef 	mov	x15, x13
   825d8:	14000045 	b	826ec <_ZN4core3str5count14do_count_chars17hf4570e7a07268196E+0x7b8>
   825dc:	910005f1 	add	x17, x15, #0x1
   825e0:	aa0d03e1 	mov	x1, x13
   825e4:	927ee632 	and	x18, x17, #0xffffffffffffffc
   825e8:	6f00e402 	movi	v2.2d, #0x0
   825ec:	aa1203e0 	mov	x0, x18
   825f0:	6f00e403 	movi	v3.2d, #0x0
   825f4:	8b1215af 	add	x15, x13, x18, lsl #5
   825f8:	4e080c30 	dup	v16.2d, x1
   825fc:	4c400c24 	ld4	{v4.2d-v7.2d}, [x1]
   82600:	91020021 	add	x1, x1, #0x80
   82604:	f1001000 	subs	x0, x0, #0x4
   82608:	4ee18610 	add	v16.2d, v16.2d, v1.2d
   8260c:	9e660202 	fmov	x2, d16
   82610:	4c400c50 	ld4	{v16.2d-v19.2d}, [x2]
   82614:	6e205894 	mvn	v20.16b, v4.16b
   82618:	6f7a0496 	ushr	v22.2d, v4.2d, #6
   8261c:	6f790694 	ushr	v20.2d, v20.2d, #7
   82620:	6e2058b5 	mvn	v21.16b, v5.16b
   82624:	6f7a04b7 	ushr	v23.2d, v5.2d, #6
   82628:	6f7906b5 	ushr	v21.2d, v21.2d, #7
   8262c:	4eb61e94 	orr	v20.16b, v20.16b, v22.16b
   82630:	6f7a04e4 	ushr	v4.2d, v7.2d, #6
   82634:	4e201e94 	and	v20.16b, v20.16b, v0.16b
   82638:	4eb71eb5 	orr	v21.16b, v21.16b, v23.16b
   8263c:	4ee28682 	add	v2.2d, v20.2d, v2.2d
   82640:	4e201eb5 	and	v21.16b, v21.16b, v0.16b
   82644:	6e205a14 	mvn	v20.16b, v16.16b
   82648:	4ee286a2 	add	v2.2d, v21.2d, v2.2d
   8264c:	6f7a0615 	ushr	v21.2d, v16.2d, #6
   82650:	6f790694 	ushr	v20.2d, v20.2d, #7
   82654:	6f7a0637 	ushr	v23.2d, v17.2d, #6
   82658:	6e205a36 	mvn	v22.16b, v17.16b
   8265c:	6f7906d6 	ushr	v22.2d, v22.2d, #7
   82660:	4eb51e94 	orr	v20.16b, v20.16b, v21.16b
   82664:	4e201e94 	and	v20.16b, v20.16b, v0.16b
   82668:	4eb71ed6 	orr	v22.16b, v22.16b, v23.16b
   8266c:	4ee38683 	add	v3.2d, v20.2d, v3.2d
   82670:	6e2058d5 	mvn	v21.16b, v6.16b
   82674:	6e205a57 	mvn	v23.16b, v18.16b
   82678:	4e201ed4 	and	v20.16b, v22.16b, v0.16b
   8267c:	4ee38683 	add	v3.2d, v20.2d, v3.2d
   82680:	6f7a04d4 	ushr	v20.2d, v6.2d, #6
   82684:	6f7906b5 	ushr	v21.2d, v21.2d, #7
   82688:	6f7a0656 	ushr	v22.2d, v18.2d, #6
   8268c:	6f7906f7 	ushr	v23.2d, v23.2d, #7
   82690:	6f7a0666 	ushr	v6.2d, v19.2d, #6
   82694:	4eb41eb4 	orr	v20.16b, v21.16b, v20.16b
   82698:	4eb61ef5 	orr	v21.16b, v23.16b, v22.16b
   8269c:	4e201e94 	and	v20.16b, v20.16b, v0.16b
   826a0:	4e201eb5 	and	v21.16b, v21.16b, v0.16b
   826a4:	4ee28682 	add	v2.2d, v20.2d, v2.2d
   826a8:	4ee386a3 	add	v3.2d, v21.2d, v3.2d
   826ac:	6e2058f4 	mvn	v20.16b, v7.16b
   826b0:	6e205a75 	mvn	v21.16b, v19.16b
   826b4:	6f790694 	ushr	v20.2d, v20.2d, #7
   826b8:	6f7906a5 	ushr	v5.2d, v21.2d, #7
   826bc:	4ea41e84 	orr	v4.16b, v20.16b, v4.16b
   826c0:	4ea61ca5 	orr	v5.16b, v5.16b, v6.16b
   826c4:	4e201c84 	and	v4.16b, v4.16b, v0.16b
   826c8:	4e201ca5 	and	v5.16b, v5.16b, v0.16b
   826cc:	4ee28482 	add	v2.2d, v4.2d, v2.2d
   826d0:	4ee384a3 	add	v3.2d, v5.2d, v3.2d
   826d4:	54fff921 	b.ne	825f8 <_ZN4core3str5count14do_count_chars17hf4570e7a07268196E+0x6c4>  // b.any
   826d8:	4ee28462 	add	v2.2d, v3.2d, v2.2d
   826dc:	eb12023f 	cmp	x17, x18
   826e0:	5ef1b842 	addp	d2, v2.2d
   826e4:	9e660040 	fmov	x0, d2
   826e8:	54fff4a0 	b.eq	8257c <_ZN4core3str5count14do_count_chars17hf4570e7a07268196E+0x648>  // b.none
   826ec:	8b1015b0 	add	x16, x13, x16, lsl #5
   826f0:	f9400df1 	ldr	x17, [x15, #24]
   826f4:	f90017f1 	str	x17, [sp, #40]
   826f8:	f94009f1 	ldr	x17, [x15, #16]
   826fc:	f90013f1 	str	x17, [sp, #32]
   82700:	f94005f1 	ldr	x17, [x15, #8]
   82704:	f9000ff1 	str	x17, [sp, #24]
   82708:	f84205f1 	ldr	x17, [x15], #32
   8270c:	eb1001ff 	cmp	x15, x16
   82710:	f9000bf1 	str	x17, [sp, #16]
   82714:	ad408fe2 	ldp	q2, q3, [sp, #16]
   82718:	6e205844 	mvn	v4.16b, v2.16b
   8271c:	6f7a0442 	ushr	v2.2d, v2.2d, #6
   82720:	6f790484 	ushr	v4.2d, v4.2d, #7
   82724:	6e205865 	mvn	v5.16b, v3.16b
   82728:	6f7a0463 	ushr	v3.2d, v3.2d, #6
   8272c:	6f7904a5 	ushr	v5.2d, v5.2d, #7
   82730:	4ea21c82 	orr	v2.16b, v4.16b, v2.16b
   82734:	4ea31ca3 	orr	v3.16b, v5.16b, v3.16b
   82738:	4e201c63 	and	v3.16b, v3.16b, v0.16b
   8273c:	4e201c42 	and	v2.16b, v2.16b, v0.16b
   82740:	4ee38442 	add	v2.2d, v2.2d, v3.2d
   82744:	5ef1b842 	addp	d2, v2.2d
   82748:	9e660051 	fmov	x17, d2
   8274c:	8b000220 	add	x0, x17, x0
   82750:	54fffd01 	b.ne	826f0 <_ZN4core3str5count14do_count_chars17hf4570e7a07268196E+0x7bc>  // b.any
   82754:	17ffff8a 	b	8257c <_ZN4core3str5count14do_count_chars17hf4570e7a07268196E+0x648>
   82758:	8b0e0daa 	add	x10, x13, x14, lsl #3
   8275c:	f10005ff 	cmp	x15, #0x1
   82760:	f9400149 	ldr	x9, [x10]
   82764:	aa2903eb 	mvn	x11, x9
   82768:	d347fd6b 	lsr	x11, x11, #7
   8276c:	aa491969 	orr	x9, x11, x9, lsr #6
   82770:	9200c129 	and	x9, x9, #0x101010101010101
   82774:	540001e0 	b.eq	827b0 <_ZN4core3str5count14do_count_chars17hf4570e7a07268196E+0x87c>  // b.none
   82778:	f940054b 	ldr	x11, [x10, #8]
   8277c:	f10009ff 	cmp	x15, #0x2
   82780:	aa2b03ec 	mvn	x12, x11
   82784:	d347fd8c 	lsr	x12, x12, #7
   82788:	aa4b198b 	orr	x11, x12, x11, lsr #6
   8278c:	9200c16b 	and	x11, x11, #0x101010101010101
   82790:	8b090169 	add	x9, x11, x9
   82794:	540000e0 	b.eq	827b0 <_ZN4core3str5count14do_count_chars17hf4570e7a07268196E+0x87c>  // b.none
   82798:	f940094a 	ldr	x10, [x10, #16]
   8279c:	aa2a03eb 	mvn	x11, x10
   827a0:	d347fd6b 	lsr	x11, x11, #7
   827a4:	aa4a196a 	orr	x10, x11, x10, lsr #6
   827a8:	9200c14a 	and	x10, x10, #0x101010101010101
   827ac:	8b090149 	add	x9, x10, x9
   827b0:	d348fd2a 	lsr	x10, x9, #8
   827b4:	92009d29 	and	x9, x9, #0xff00ff00ff00ff
   827b8:	92009d4a 	and	x10, x10, #0xff00ff00ff00ff
   827bc:	8b090149 	add	x9, x10, x9
   827c0:	b20083ea 	mov	x10, #0x1000100010001       	// #281479271743489
   827c4:	9b0a7d29 	mul	x9, x9, x10
   827c8:	8b49c108 	add	x8, x8, x9, lsr #48
   827cc:	aa0803e0 	mov	x0, x8
   827d0:	910103ff 	add	sp, sp, #0x40
   827d4:	d65f03c0 	ret

00000000000827d8 <_ZN36_$LT$T$u20$as$u20$core..any..Any$GT$7type_id17h84a8d0140d83df87E>:
   827d8:	d2928ee0 	mov	x0, #0x9477                	// #38007
   827dc:	f2a21840 	movk	x0, #0x10c2, lsl #16
   827e0:	f2c77e60 	movk	x0, #0x3bf3, lsl #32
   827e4:	f2f0a480 	movk	x0, #0x8524, lsl #48
   827e8:	d65f03c0 	ret

00000000000827ec <_ZN4core5panic10panic_info9PanicInfo7message17h593763465f5aa4e8E>:
   827ec:	f9400800 	ldr	x0, [x0, #16]
   827f0:	d65f03c0 	ret

00000000000827f4 <_ZN4core5panic10panic_info9PanicInfo8location17hd9b6516e7f2b1d71E>:
   827f4:	f9400c00 	ldr	x0, [x0, #24]
   827f8:	d65f03c0 	ret

00000000000827fc <_ZN4core3ops8function6FnOnce9call_once17ha37347490044127fE>:
   827fc:	94000004 	bl	8280c <_ZN4core5slice5index29slice_start_index_len_fail_rt17hd2d48a368c9a93ebE>
   82800:	d4200020 	brk	#0x1

0000000000082804 <_ZN4core5slice5index26slice_start_index_len_fail17hd430acefd806b1e2E>:
   82804:	97fffffe 	bl	827fc <_ZN4core3ops8function6FnOnce9call_once17ha37347490044127fE>
   82808:	d4200020 	brk	#0x1

000000000008280c <_ZN4core5slice5index29slice_start_index_len_fail_rt17hd2d48a368c9a93ebE>:
   8280c:	d10183ff 	sub	sp, sp, #0x60
   82810:	910003e8 	mov	x8, sp
   82814:	90000009 	adrp	x9, 82000 <_ZN4core3str5count14do_count_chars17hf4570e7a07268196E+0xcc>
   82818:	91275129 	add	x9, x9, #0x9d4
   8281c:	910023ea 	add	x10, sp, #0x8
   82820:	a90007e0 	stp	x0, x1, [sp]
   82824:	d0000001 	adrp	x1, 84000 <_ZN17compiler_builtins3mem6memcpy17h5498ba8912cb5f38E+0x6e4>
   82828:	9125a021 	add	x1, x1, #0x968
   8282c:	910043e0 	add	x0, sp, #0x10
   82830:	a90427e8 	stp	x8, x9, [sp, #64]
   82834:	52800048 	mov	w8, #0x2                   	// #2
   82838:	a90527ea 	stp	x10, x9, [sp, #80]
   8283c:	d0000009 	adrp	x9, 84000 <_ZN17compiler_builtins3mem6memcpy17h5498ba8912cb5f38E+0x6e4>
   82840:	91232129 	add	x9, x9, #0x8c8
   82844:	a9027fff 	stp	xzr, xzr, [sp, #32]
   82848:	a90123e9 	stp	x9, x8, [sp, #16]
   8284c:	910103e9 	add	x9, sp, #0x40
   82850:	a90323e9 	stp	x9, x8, [sp, #48]
   82854:	94000425 	bl	838e8 <_ZN4core9panicking9panic_fmt17h2312ad85af3cbc59E>
   82858:	d4200020 	brk	#0x1

000000000008285c <_ZN4core3fmt3num3imp52_$LT$impl$u20$core..fmt..Display$u20$for$u20$u32$GT$3fmt17hc0fdabedba072d0dE>:
   8285c:	d10103ff 	sub	sp, sp, #0x40
   82860:	b9400009 	ldr	w9, [x0]
   82864:	f9001bfe 	str	x30, [sp, #48]
   82868:	d3447d28 	ubfx	x8, x9, #4, #28
   8286c:	7109c51f 	cmp	w8, #0x271
   82870:	d0000008 	adrp	x8, 84000 <_ZN17compiler_builtins3mem6memcpy17h5498ba8912cb5f38E+0x6e4>
   82874:	911f0908 	add	x8, x8, #0x7c2
   82878:	540004e3 	b.cc	82914 <_ZN4core3fmt3num3imp52_$LT$impl$u20$core..fmt..Display$u20$for$u20$u32$GT$3fmt17hc0fdabedba072d0dE+0xb8>  // b.lo, b.ul, b.last
   8287c:	d28b296a 	mov	x10, #0x594b                	// #22859
   82880:	529c1fef 	mov	w15, #0xe0ff                	// #57599
   82884:	f2a710ca 	movk	x10, #0x3886, lsl #16
   82888:	aa1f03f0 	mov	x16, xzr
   8288c:	f2d8baca 	movk	x10, #0xc5d6, lsl #32
   82890:	5284e20b 	mov	w11, #0x2710                	// #10000
   82894:	f2e68daa 	movk	x10, #0x346d, lsl #48
   82898:	52828f6c 	mov	w12, #0x147b                	// #5243
   8289c:	52800c8d 	mov	w13, #0x64                  	// #100
   828a0:	910023ee 	add	x14, sp, #0x8
   828a4:	72a0beaf 	movk	w15, #0x5f5, lsl #16
   828a8:	aa0903f2 	mov	x18, x9
   828ac:	9bca7d29 	umulh	x9, x9, x10
   828b0:	eb0f025f 	cmp	x18, x15
   828b4:	d34bfd29 	lsr	x9, x9, #11
   828b8:	1b0bc931 	msub	w17, w9, w11, w18
   828bc:	53023e20 	ubfx	w0, w17, #2, #14
   828c0:	1b0c7c00 	mul	w0, w0, w12
   828c4:	53117c00 	lsr	w0, w0, #17
   828c8:	1b0dc402 	msub	w2, w0, w13, w17
   828cc:	8b204500 	add	x0, x8, w0, uxtw #1
   828d0:	aa1003f1 	mov	x17, x16
   828d4:	8b222510 	add	x16, x8, w2, uxth #1
   828d8:	8b1101c2 	add	x2, x14, x17
   828dc:	39400403 	ldrb	w3, [x0, #1]
   828e0:	39400000 	ldrb	w0, [x0]
   828e4:	39400604 	ldrb	w4, [x16, #1]
   828e8:	39009043 	strb	w3, [x2, #36]
   828ec:	39400203 	ldrb	w3, [x16]
   828f0:	d1001230 	sub	x16, x17, #0x4
   828f4:	39008c40 	strb	w0, [x2, #35]
   828f8:	39009844 	strb	w4, [x2, #38]
   828fc:	39009443 	strb	w3, [x2, #37]
   82900:	54fffd48 	b.hi	828a8 <_ZN4core3fmt3num3imp52_$LT$impl$u20$core..fmt..Display$u20$for$u20$u32$GT$3fmt17hc0fdabedba072d0dE+0x4c>  // b.pmore
   82904:	91008e2a 	add	x10, x17, #0x23
   82908:	f1018d3f 	cmp	x9, #0x63
   8290c:	540000a8 	b.hi	82920 <_ZN4core3fmt3num3imp52_$LT$impl$u20$core..fmt..Display$u20$for$u20$u32$GT$3fmt17hc0fdabedba072d0dE+0xc4>  // b.pmore
   82910:	14000014 	b	82960 <_ZN4core3fmt3num3imp52_$LT$impl$u20$core..fmt..Display$u20$for$u20$u32$GT$3fmt17hc0fdabedba072d0dE+0x104>
   82914:	528004ea 	mov	w10, #0x27                  	// #39
   82918:	f1018d3f 	cmp	x9, #0x63
   8291c:	54000229 	b.ls	82960 <_ZN4core3fmt3num3imp52_$LT$impl$u20$core..fmt..Display$u20$for$u20$u32$GT$3fmt17hc0fdabedba072d0dE+0x104>  // b.plast
   82920:	53023d2b 	ubfx	w11, w9, #2, #14
   82924:	52828f6c 	mov	w12, #0x147b                	// #5243
   82928:	d100094d 	sub	x13, x10, #0x2
   8292c:	1b0c7d6b 	mul	w11, w11, w12
   82930:	52800c8c 	mov	w12, #0x64                  	// #100
   82934:	53117d6b 	lsr	w11, w11, #17
   82938:	1b0ca569 	msub	w9, w11, w12, w9
   8293c:	910023ec 	add	x12, sp, #0x8
   82940:	8b0a018c 	add	x12, x12, x10
   82944:	aa0d03ea 	mov	x10, x13
   82948:	8b292509 	add	x9, x8, w9, uxth #1
   8294c:	3940052e 	ldrb	w14, [x9, #1]
   82950:	3940012f 	ldrb	w15, [x9]
   82954:	aa0b03e9 	mov	x9, x11
   82958:	381ff18e 	sturb	w14, [x12, #-1]
   8295c:	381fe18f 	sturb	w15, [x12, #-2]
   82960:	f100293f 	cmp	x9, #0xa
   82964:	540000e2 	b.cs	82980 <_ZN4core3fmt3num3imp52_$LT$impl$u20$core..fmt..Display$u20$for$u20$u32$GT$3fmt17hc0fdabedba072d0dE+0x124>  // b.hs, b.nlast
   82968:	910023e8 	add	x8, sp, #0x8
   8296c:	1100c129 	add	w9, w9, #0x30
   82970:	8b0a010b 	add	x11, x8, x10
   82974:	d1000548 	sub	x8, x10, #0x1
   82978:	381ff169 	sturb	w9, [x11, #-1]
   8297c:	14000009 	b	829a0 <_ZN4core3fmt3num3imp52_$LT$impl$u20$core..fmt..Display$u20$for$u20$u32$GT$3fmt17hc0fdabedba072d0dE+0x144>
   82980:	8b090508 	add	x8, x8, x9, lsl #1
   82984:	910023e9 	add	x9, sp, #0x8
   82988:	8b0a0129 	add	x9, x9, x10
   8298c:	3940050b 	ldrb	w11, [x8, #1]
   82990:	3940010c 	ldrb	w12, [x8]
   82994:	d1000948 	sub	x8, x10, #0x2
   82998:	381ff12b 	sturb	w11, [x9, #-1]
   8299c:	381fe12c 	sturb	w12, [x9, #-2]
   829a0:	910023e9 	add	x9, sp, #0x8
   829a4:	528004ea 	mov	w10, #0x27                  	// #39
   829a8:	8b080124 	add	x4, x9, x8
   829ac:	cb080145 	sub	x5, x10, x8
   829b0:	d0000002 	adrp	x2, 84000 <_ZN17compiler_builtins3mem6memcpy17h5498ba8912cb5f38E+0x6e4>
   829b4:	91224042 	add	x2, x2, #0x890
   829b8:	aa0103e0 	mov	x0, x1
   829bc:	52800021 	mov	w1, #0x1                   	// #1
   829c0:	aa1f03e3 	mov	x3, xzr
   829c4:	940000ef 	bl	82d80 <_ZN4core3fmt9Formatter12pad_integral17h18655efe8c4788ccE>
   829c8:	f9401bfe 	ldr	x30, [sp, #48]
   829cc:	910103ff 	add	sp, sp, #0x40
   829d0:	d65f03c0 	ret

00000000000829d4 <_ZN4core3fmt3num3imp52_$LT$impl$u20$core..fmt..Display$u20$for$u20$u64$GT$3fmt17h4612398fd3ae5c0fE>:
   829d4:	d10103ff 	sub	sp, sp, #0x40
   829d8:	f9400009 	ldr	x9, [x0]
   829dc:	f9001bfe 	str	x30, [sp, #48]
   829e0:	d344fd28 	lsr	x8, x9, #4
   829e4:	f109c51f 	cmp	x8, #0x271
   829e8:	d0000008 	adrp	x8, 84000 <_ZN17compiler_builtins3mem6memcpy17h5498ba8912cb5f38E+0x6e4>
   829ec:	911f0908 	add	x8, x8, #0x7c2
   829f0:	540004e3 	b.cc	82a8c <_ZN4core3fmt3num3imp52_$LT$impl$u20$core..fmt..Display$u20$for$u20$u64$GT$3fmt17h4612398fd3ae5c0fE+0xb8>  // b.lo, b.ul, b.last
   829f4:	d28b296a 	mov	x10, #0x594b                	// #22859
   829f8:	529c1fef 	mov	w15, #0xe0ff                	// #57599
   829fc:	f2a710ca 	movk	x10, #0x3886, lsl #16
   82a00:	aa1f03f0 	mov	x16, xzr
   82a04:	f2d8baca 	movk	x10, #0xc5d6, lsl #32
   82a08:	5284e20b 	mov	w11, #0x2710                	// #10000
   82a0c:	f2e68daa 	movk	x10, #0x346d, lsl #48
   82a10:	52828f6c 	mov	w12, #0x147b                	// #5243
   82a14:	52800c8d 	mov	w13, #0x64                  	// #100
   82a18:	910023ee 	add	x14, sp, #0x8
   82a1c:	72a0beaf 	movk	w15, #0x5f5, lsl #16
   82a20:	aa0903f2 	mov	x18, x9
   82a24:	9bca7d29 	umulh	x9, x9, x10
   82a28:	eb0f025f 	cmp	x18, x15
   82a2c:	d34bfd29 	lsr	x9, x9, #11
   82a30:	1b0bc931 	msub	w17, w9, w11, w18
   82a34:	53023e20 	ubfx	w0, w17, #2, #14
   82a38:	1b0c7c00 	mul	w0, w0, w12
   82a3c:	53117c00 	lsr	w0, w0, #17
   82a40:	1b0dc402 	msub	w2, w0, w13, w17
   82a44:	8b204500 	add	x0, x8, w0, uxtw #1
   82a48:	aa1003f1 	mov	x17, x16
   82a4c:	8b222510 	add	x16, x8, w2, uxth #1
   82a50:	8b1101c2 	add	x2, x14, x17
   82a54:	39400403 	ldrb	w3, [x0, #1]
   82a58:	39400000 	ldrb	w0, [x0]
   82a5c:	39400604 	ldrb	w4, [x16, #1]
   82a60:	39009043 	strb	w3, [x2, #36]
   82a64:	39400203 	ldrb	w3, [x16]
   82a68:	d1001230 	sub	x16, x17, #0x4
   82a6c:	39008c40 	strb	w0, [x2, #35]
   82a70:	39009844 	strb	w4, [x2, #38]
   82a74:	39009443 	strb	w3, [x2, #37]
   82a78:	54fffd48 	b.hi	82a20 <_ZN4core3fmt3num3imp52_$LT$impl$u20$core..fmt..Display$u20$for$u20$u64$GT$3fmt17h4612398fd3ae5c0fE+0x4c>  // b.pmore
   82a7c:	91008e2a 	add	x10, x17, #0x23
   82a80:	f1018d3f 	cmp	x9, #0x63
   82a84:	540000a8 	b.hi	82a98 <_ZN4core3fmt3num3imp52_$LT$impl$u20$core..fmt..Display$u20$for$u20$u64$GT$3fmt17h4612398fd3ae5c0fE+0xc4>  // b.pmore
   82a88:	14000014 	b	82ad8 <_ZN4core3fmt3num3imp52_$LT$impl$u20$core..fmt..Display$u20$for$u20$u64$GT$3fmt17h4612398fd3ae5c0fE+0x104>
   82a8c:	528004ea 	mov	w10, #0x27                  	// #39
   82a90:	f1018d3f 	cmp	x9, #0x63
   82a94:	54000229 	b.ls	82ad8 <_ZN4core3fmt3num3imp52_$LT$impl$u20$core..fmt..Display$u20$for$u20$u64$GT$3fmt17h4612398fd3ae5c0fE+0x104>  // b.plast
   82a98:	53023d2b 	ubfx	w11, w9, #2, #14
   82a9c:	52828f6c 	mov	w12, #0x147b                	// #5243
   82aa0:	d100094d 	sub	x13, x10, #0x2
   82aa4:	1b0c7d6b 	mul	w11, w11, w12
   82aa8:	52800c8c 	mov	w12, #0x64                  	// #100
   82aac:	53117d6b 	lsr	w11, w11, #17
   82ab0:	1b0ca569 	msub	w9, w11, w12, w9
   82ab4:	910023ec 	add	x12, sp, #0x8
   82ab8:	8b0a018c 	add	x12, x12, x10
   82abc:	aa0d03ea 	mov	x10, x13
   82ac0:	8b292509 	add	x9, x8, w9, uxth #1
   82ac4:	3940052e 	ldrb	w14, [x9, #1]
   82ac8:	3940012f 	ldrb	w15, [x9]
   82acc:	aa0b03e9 	mov	x9, x11
   82ad0:	381ff18e 	sturb	w14, [x12, #-1]
   82ad4:	381fe18f 	sturb	w15, [x12, #-2]
   82ad8:	f100293f 	cmp	x9, #0xa
   82adc:	540000e2 	b.cs	82af8 <_ZN4core3fmt3num3imp52_$LT$impl$u20$core..fmt..Display$u20$for$u20$u64$GT$3fmt17h4612398fd3ae5c0fE+0x124>  // b.hs, b.nlast
   82ae0:	910023e8 	add	x8, sp, #0x8
   82ae4:	1100c129 	add	w9, w9, #0x30
   82ae8:	8b0a010b 	add	x11, x8, x10
   82aec:	d1000548 	sub	x8, x10, #0x1
   82af0:	381ff169 	sturb	w9, [x11, #-1]
   82af4:	14000009 	b	82b18 <_ZN4core3fmt3num3imp52_$LT$impl$u20$core..fmt..Display$u20$for$u20$u64$GT$3fmt17h4612398fd3ae5c0fE+0x144>
   82af8:	8b090508 	add	x8, x8, x9, lsl #1
   82afc:	910023e9 	add	x9, sp, #0x8
   82b00:	8b0a0129 	add	x9, x9, x10
   82b04:	3940050b 	ldrb	w11, [x8, #1]
   82b08:	3940010c 	ldrb	w12, [x8]
   82b0c:	d1000948 	sub	x8, x10, #0x2
   82b10:	381ff12b 	sturb	w11, [x9, #-1]
   82b14:	381fe12c 	sturb	w12, [x9, #-2]
   82b18:	910023e9 	add	x9, sp, #0x8
   82b1c:	528004ea 	mov	w10, #0x27                  	// #39
   82b20:	8b080124 	add	x4, x9, x8
   82b24:	cb080145 	sub	x5, x10, x8
   82b28:	d0000002 	adrp	x2, 84000 <_ZN17compiler_builtins3mem6memcpy17h5498ba8912cb5f38E+0x6e4>
   82b2c:	91224042 	add	x2, x2, #0x890
   82b30:	aa0103e0 	mov	x0, x1
   82b34:	52800021 	mov	w1, #0x1                   	// #1
   82b38:	aa1f03e3 	mov	x3, xzr
   82b3c:	94000091 	bl	82d80 <_ZN4core3fmt9Formatter12pad_integral17h18655efe8c4788ccE>
   82b40:	f9401bfe 	ldr	x30, [sp, #48]
   82b44:	910103ff 	add	sp, sp, #0x40
   82b48:	d65f03c0 	ret

0000000000082b4c <_ZN4core3ops8function6FnOnce9call_once17h1374758b8c7d2725E.llvm.15678930048187689765>:
   82b4c:	f940001f 	ldr	xzr, [x0]
   82b50:	14000000 	b	82b50 <_ZN4core3ops8function6FnOnce9call_once17h1374758b8c7d2725E.llvm.15678930048187689765+0x4>

0000000000082b54 <_ZN4core3fmt5write17h158ce1ba0cbf453dE>:
   82b54:	d10203ff 	sub	sp, sp, #0x80
   82b58:	d0000008 	adrp	x8, 84000 <_ZN17compiler_builtins3mem6memcpy17h5498ba8912cb5f38E+0x6e4>
   82b5c:	a9074ff4 	stp	x20, x19, [sp, #112]
   82b60:	aa0203f3 	mov	x19, x2
   82b64:	52800069 	mov	w9, #0x3                   	// #3
   82b68:	f90023fe 	str	x30, [sp, #64]
   82b6c:	fd44c100 	ldr	d0, [x8, #2432]
   82b70:	a9055ff8 	stp	x24, x23, [sp, #80]
   82b74:	f9400848 	ldr	x8, [x2, #16]
   82b78:	a90657f6 	stp	x22, x21, [sp, #96]
   82b7c:	f90003ff 	str	xzr, [sp]
   82b80:	f9000bff 	str	xzr, [sp, #16]
   82b84:	3900e3e9 	strb	w9, [sp, #56]
   82b88:	fd001be0 	str	d0, [sp, #48]
   82b8c:	a90207e0 	stp	x0, x1, [sp, #32]
   82b90:	b4000888 	cbz	x8, 82ca0 <_ZN4core3fmt5write17h158ce1ba0cbf453dE+0x14c>
   82b94:	f9400e69 	ldr	x9, [x19, #24]
   82b98:	b4000b89 	cbz	x9, 82d08 <_ZN4core3fmt5write17h158ce1ba0cbf453dE+0x1b4>
   82b9c:	f940026a 	ldr	x10, [x19]
   82ba0:	5280070c 	mov	w12, #0x38                  	// #56
   82ba4:	d100052b 	sub	x11, x9, #0x1
   82ba8:	91006117 	add	x23, x8, #0x18
   82bac:	9240f16b 	and	x11, x11, #0x1fffffffffffffff
   82bb0:	9b0c7d35 	mul	x21, x9, x12
   82bb4:	91000574 	add	x20, x11, #0x1
   82bb8:	91002156 	add	x22, x10, #0x8
   82bbc:	90000018 	adrp	x24, 82000 <_ZN4core3str5count14do_count_chars17hf4570e7a07268196E+0xcc>
   82bc0:	912d3318 	add	x24, x24, #0xb4c
   82bc4:	f94002c2 	ldr	x2, [x22]
   82bc8:	b40000c2 	cbz	x2, 82be0 <_ZN4core3fmt5write17h158ce1ba0cbf453dE+0x8c>
   82bcc:	a94223e0 	ldp	x0, x8, [sp, #32]
   82bd0:	f85f82c1 	ldur	x1, [x22, #-8]
   82bd4:	f9400d08 	ldr	x8, [x8, #24]
   82bd8:	d63f0100 	blr	x8
   82bdc:	37000b60 	tbnz	w0, #0, 82d48 <_ZN4core3fmt5write17h158ce1ba0cbf453dE+0x1f4>
   82be0:	394062e8 	ldrb	w8, [x23, #24]
   82be4:	3900e3e8 	strb	w8, [sp, #56]
   82be8:	f9401268 	ldr	x8, [x19, #32]
   82bec:	fd400ae0 	ldr	d0, [x23, #16]
   82bf0:	0ea00800 	rev64	v0.2s, v0.2s
   82bf4:	fd001be0 	str	d0, [sp, #48]
   82bf8:	a94026ea 	ldp	x10, x9, [x23]
   82bfc:	b40001ca 	cbz	x10, 82c34 <_ZN4core3fmt5write17h158ce1ba0cbf453dE+0xe0>
   82c00:	f100055f 	cmp	x10, #0x1
   82c04:	540000a1 	b.ne	82c18 <_ZN4core3fmt5write17h158ce1ba0cbf453dE+0xc4>  // b.any
   82c08:	8b091109 	add	x9, x8, x9, lsl #4
   82c0c:	f940052a 	ldr	x10, [x9, #8]
   82c10:	eb18015f 	cmp	x10, x24
   82c14:	540000c0 	b.eq	82c2c <_ZN4core3fmt5write17h158ce1ba0cbf453dE+0xd8>  // b.none
   82c18:	aa1f03ea 	mov	x10, xzr
   82c1c:	a90027ff 	stp	xzr, x9, [sp]
   82c20:	a97f26ea 	ldp	x10, x9, [x23, #-16]
   82c24:	b500010a 	cbnz	x10, 82c44 <_ZN4core3fmt5write17h158ce1ba0cbf453dE+0xf0>
   82c28:	14000011 	b	82c6c <_ZN4core3fmt5write17h158ce1ba0cbf453dE+0x118>
   82c2c:	f9400129 	ldr	x9, [x9]
   82c30:	f9400129 	ldr	x9, [x9]
   82c34:	5280002a 	mov	w10, #0x1                   	// #1
   82c38:	a90027ea 	stp	x10, x9, [sp]
   82c3c:	a97f26ea 	ldp	x10, x9, [x23, #-16]
   82c40:	b400016a 	cbz	x10, 82c6c <_ZN4core3fmt5write17h158ce1ba0cbf453dE+0x118>
   82c44:	f100055f 	cmp	x10, #0x1
   82c48:	540000a1 	b.ne	82c5c <_ZN4core3fmt5write17h158ce1ba0cbf453dE+0x108>  // b.any
   82c4c:	8b091109 	add	x9, x8, x9, lsl #4
   82c50:	f940052a 	ldr	x10, [x9, #8]
   82c54:	eb18015f 	cmp	x10, x24
   82c58:	54000060 	b.eq	82c64 <_ZN4core3fmt5write17h158ce1ba0cbf453dE+0x110>  // b.none
   82c5c:	aa1f03ea 	mov	x10, xzr
   82c60:	14000004 	b	82c70 <_ZN4core3fmt5write17h158ce1ba0cbf453dE+0x11c>
   82c64:	f9400129 	ldr	x9, [x9]
   82c68:	f9400129 	ldr	x9, [x9]
   82c6c:	5280002a 	mov	w10, #0x1                   	// #1
   82c70:	a90127ea 	stp	x10, x9, [sp, #16]
   82c74:	910003e1 	mov	x1, sp
   82c78:	f85e82e9 	ldur	x9, [x23, #-24]
   82c7c:	8b091108 	add	x8, x8, x9, lsl #4
   82c80:	a9402500 	ldp	x0, x9, [x8]
   82c84:	d63f0120 	blr	x9
   82c88:	37000600 	tbnz	w0, #0, 82d48 <_ZN4core3fmt5write17h158ce1ba0cbf453dE+0x1f4>
   82c8c:	910042d6 	add	x22, x22, #0x10
   82c90:	f100e2b5 	subs	x21, x21, #0x38
   82c94:	9100e2f7 	add	x23, x23, #0x38
   82c98:	54fff961 	b.ne	82bc4 <_ZN4core3fmt5write17h158ce1ba0cbf453dE+0x70>  // b.any
   82c9c:	1400001c 	b	82d0c <_ZN4core3fmt5write17h158ce1ba0cbf453dE+0x1b8>
   82ca0:	f9401668 	ldr	x8, [x19, #40]
   82ca4:	b40003c8 	cbz	x8, 82d1c <_ZN4core3fmt5write17h158ce1ba0cbf453dE+0x1c8>
   82ca8:	f9400269 	ldr	x9, [x19]
   82cac:	d100050b 	sub	x11, x8, #0x1
   82cb0:	f940126a 	ldr	x10, [x19, #32]
   82cb4:	9240ed6b 	and	x11, x11, #0xfffffffffffffff
   82cb8:	91000574 	add	x20, x11, #0x1
   82cbc:	d37ced17 	lsl	x23, x8, #4
   82cc0:	91002135 	add	x21, x9, #0x8
   82cc4:	91002156 	add	x22, x10, #0x8
   82cc8:	f94002a2 	ldr	x2, [x21]
   82ccc:	b40000c2 	cbz	x2, 82ce4 <_ZN4core3fmt5write17h158ce1ba0cbf453dE+0x190>
   82cd0:	a94223e0 	ldp	x0, x8, [sp, #32]
   82cd4:	f85f82a1 	ldur	x1, [x21, #-8]
   82cd8:	f9400d08 	ldr	x8, [x8, #24]
   82cdc:	d63f0100 	blr	x8
   82ce0:	37000340 	tbnz	w0, #0, 82d48 <_ZN4core3fmt5write17h158ce1ba0cbf453dE+0x1f4>
   82ce4:	a97fa2c0 	ldp	x0, x8, [x22, #-8]
   82ce8:	910003e1 	mov	x1, sp
   82cec:	d63f0100 	blr	x8
   82cf0:	370002c0 	tbnz	w0, #0, 82d48 <_ZN4core3fmt5write17h158ce1ba0cbf453dE+0x1f4>
   82cf4:	910042b5 	add	x21, x21, #0x10
   82cf8:	910042d6 	add	x22, x22, #0x10
   82cfc:	f10042f7 	subs	x23, x23, #0x10
   82d00:	54fffe41 	b.ne	82cc8 <_ZN4core3fmt5write17h158ce1ba0cbf453dE+0x174>  // b.any
   82d04:	14000002 	b	82d0c <_ZN4core3fmt5write17h158ce1ba0cbf453dE+0x1b8>
   82d08:	aa1f03f4 	mov	x20, xzr
   82d0c:	f9400668 	ldr	x8, [x19, #8]
   82d10:	eb08029f 	cmp	x20, x8
   82d14:	540000c3 	b.cc	82d2c <_ZN4core3fmt5write17h158ce1ba0cbf453dE+0x1d8>  // b.lo, b.ul, b.last
   82d18:	14000013 	b	82d64 <_ZN4core3fmt5write17h158ce1ba0cbf453dE+0x210>
   82d1c:	aa1f03f4 	mov	x20, xzr
   82d20:	f9400668 	ldr	x8, [x19, #8]
   82d24:	eb0803ff 	cmp	xzr, x8
   82d28:	540001e2 	b.cs	82d64 <_ZN4core3fmt5write17h158ce1ba0cbf453dE+0x210>  // b.hs, b.nlast
   82d2c:	f9400268 	ldr	x8, [x19]
   82d30:	a94227e0 	ldp	x0, x9, [sp, #32]
   82d34:	8b141108 	add	x8, x8, x20, lsl #4
   82d38:	a9400901 	ldp	x1, x2, [x8]
   82d3c:	f9400d28 	ldr	x8, [x9, #24]
   82d40:	d63f0100 	blr	x8
   82d44:	36000100 	tbz	w0, #0, 82d64 <_ZN4core3fmt5write17h158ce1ba0cbf453dE+0x210>
   82d48:	52800020 	mov	w0, #0x1                   	// #1
   82d4c:	a9474ff4 	ldp	x20, x19, [sp, #112]
   82d50:	a94657f6 	ldp	x22, x21, [sp, #96]
   82d54:	a9455ff8 	ldp	x24, x23, [sp, #80]
   82d58:	f94023fe 	ldr	x30, [sp, #64]
   82d5c:	910203ff 	add	sp, sp, #0x80
   82d60:	d65f03c0 	ret
   82d64:	2a1f03e0 	mov	w0, wzr
   82d68:	a9474ff4 	ldp	x20, x19, [sp, #112]
   82d6c:	a94657f6 	ldp	x22, x21, [sp, #96]
   82d70:	a9455ff8 	ldp	x24, x23, [sp, #80]
   82d74:	f94023fe 	ldr	x30, [sp, #64]
   82d78:	910203ff 	add	sp, sp, #0x80
   82d7c:	d65f03c0 	ret

0000000000082d80 <_ZN4core3fmt9Formatter12pad_integral17h18655efe8c4788ccE>:
   82d80:	d10243ff 	sub	sp, sp, #0x90
   82d84:	a9065ff8 	stp	x24, x23, [sp, #96]
   82d88:	aa0203f7 	mov	x23, x2
   82d8c:	a90757f6 	stp	x22, x21, [sp, #112]
   82d90:	aa0303f6 	mov	x22, x3
   82d94:	a9084ff4 	stp	x20, x19, [sp, #128]
   82d98:	aa0503f3 	mov	x19, x5
   82d9c:	aa0403f4 	mov	x20, x4
   82da0:	aa0003f5 	mov	x21, x0
   82da4:	a9037bfd 	stp	x29, x30, [sp, #48]
   82da8:	a9046ffc 	stp	x28, x27, [sp, #64]
   82dac:	a90567fa 	stp	x26, x25, [sp, #80]
   82db0:	34000221 	cbz	w1, 82df4 <_ZN4core3fmt9Formatter12pad_integral17h18655efe8c4788ccE+0x74>
   82db4:	b94032b9 	ldr	w25, [x21, #48]
   82db8:	52800569 	mov	w9, #0x2b                  	// #43
   82dbc:	52a0022a 	mov	w10, #0x110000              	// #1114112
   82dc0:	92400328 	and	x8, x25, #0x1
   82dc4:	7100011f 	cmp	w8, #0x0
   82dc8:	8b13011a 	add	x26, x8, x19
   82dcc:	1a890158 	csel	w24, w10, w9, eq  // eq = none
   82dd0:	361001b9 	tbz	w25, #2, 82e04 <_ZN4core3fmt9Formatter12pad_integral17h18655efe8c4788ccE+0x84>
   82dd4:	f10082df 	cmp	x22, #0x20
   82dd8:	54000202 	b.cs	82e18 <_ZN4core3fmt9Formatter12pad_integral17h18655efe8c4788ccE+0x98>  // b.hs, b.nlast
   82ddc:	b4000276 	cbz	x22, 82e28 <_ZN4core3fmt9Formatter12pad_integral17h18655efe8c4788ccE+0xa8>
   82de0:	f10022df 	cmp	x22, #0x8
   82de4:	54000262 	b.cs	82e30 <_ZN4core3fmt9Formatter12pad_integral17h18655efe8c4788ccE+0xb0>  // b.hs, b.nlast
   82de8:	aa1f03e0 	mov	x0, xzr
   82dec:	aa1703e8 	mov	x8, x23
   82df0:	140000aa 	b	83098 <_ZN4core3fmt9Formatter12pad_integral17h18655efe8c4788ccE+0x318>
   82df4:	9100067a 	add	x26, x19, #0x1
   82df8:	b94032b9 	ldr	w25, [x21, #48]
   82dfc:	528005b8 	mov	w24, #0x2d                  	// #45
   82e00:	3717feb9 	tbnz	w25, #2, 82dd4 <_ZN4core3fmt9Formatter12pad_integral17h18655efe8c4788ccE+0x54>
   82e04:	aa1f03f7 	mov	x23, xzr
   82e08:	aa1f03f6 	mov	x22, xzr
   82e0c:	f94002a8 	ldr	x8, [x21]
   82e10:	b5001568 	cbnz	x8, 830bc <_ZN4core3fmt9Formatter12pad_integral17h18655efe8c4788ccE+0x33c>
   82e14:	140000b7 	b	830f0 <_ZN4core3fmt9Formatter12pad_integral17h18655efe8c4788ccE+0x370>
   82e18:	aa1703e0 	mov	x0, x23
   82e1c:	aa1603e1 	mov	x1, x22
   82e20:	97fffc45 	bl	81f34 <_ZN4core3str5count14do_count_chars17hf4570e7a07268196E>
   82e24:	140000a3 	b	830b0 <_ZN4core3fmt9Formatter12pad_integral17h18655efe8c4788ccE+0x330>
   82e28:	aa1f03e0 	mov	x0, xzr
   82e2c:	140000a1 	b	830b0 <_ZN4core3fmt9Formatter12pad_integral17h18655efe8c4788ccE+0x330>
   82e30:	f10042df 	cmp	x22, #0x10
   82e34:	54000082 	b.cs	82e44 <_ZN4core3fmt9Formatter12pad_integral17h18655efe8c4788ccE+0xc4>  // b.hs, b.nlast
   82e38:	aa1f03e0 	mov	x0, xzr
   82e3c:	aa1f03eb 	mov	x11, xzr
   82e40:	14000060 	b	82fc0 <_ZN4core3fmt9Formatter12pad_integral17h18655efe8c4788ccE+0x240>
   82e44:	aa1703e8 	mov	x8, x23
   82e48:	394016eb 	ldrb	w11, [x23, #5]
   82e4c:	39400aec 	ldrb	w12, [x23, #2]
   82e50:	4f05e7e0 	movi	v0.16b, #0xbf
   82e54:	38404d09 	ldrb	w9, [x8, #4]!
   82e58:	39400d0a 	ldrb	w10, [x8, #3]
   82e5c:	39400908 	ldrb	w8, [x8, #2]
   82e60:	33181d69 	bfi	w9, w11, #8, #8
   82e64:	394006eb 	ldrb	w11, [x23, #1]
   82e68:	33181d48 	bfi	w8, w10, #8, #8
   82e6c:	39400eea 	ldrb	w10, [x23, #3]
   82e70:	33103d09 	bfi	w9, w8, #16, #16
   82e74:	394002e8 	ldrb	w8, [x23]
   82e78:	b3781d4c 	bfi	x12, x10, #8, #8
   82e7c:	b3781d68 	bfi	x8, x11, #8, #8
   82e80:	b3703d88 	bfi	x8, x12, #16, #16
   82e84:	b3607d28 	bfi	x8, x9, #32, #32
   82e88:	aa1703e9 	mov	x9, x23
   82e8c:	f9000be8 	str	x8, [sp, #16]
   82e90:	38408d28 	ldrb	w8, [x9, #8]!
   82e94:	39400d2a 	ldrb	w10, [x9, #3]
   82e98:	3940092b 	ldrb	w11, [x9, #2]
   82e9c:	38404d2c 	ldrb	w12, [x9, #4]!
   82ea0:	39400d2d 	ldrb	w13, [x9, #3]
   82ea4:	39400929 	ldrb	w9, [x9, #2]
   82ea8:	b3781d4b 	bfi	x11, x10, #8, #8
   82eac:	394036ee 	ldrb	w14, [x23, #13]
   82eb0:	33181da9 	bfi	w9, w13, #8, #8
   82eb4:	33181dcc 	bfi	w12, w14, #8, #8
   82eb8:	33103d2c 	bfi	w12, w9, #16, #16
   82ebc:	394026e9 	ldrb	w9, [x23, #9]
   82ec0:	b3781d28 	bfi	x8, x9, #8, #8
   82ec4:	b3703d68 	bfi	x8, x11, #16, #16
   82ec8:	b3607d88 	bfi	x8, x12, #32, #32
   82ecc:	f9000fe8 	str	x8, [sp, #24]
   82ed0:	3dc007e1 	ldr	q1, [sp, #16]
   82ed4:	4e203420 	cmgt	v0.16b, v1.16b, v0.16b
   82ed8:	0e033c08 	umov	w8, v0.b[1]
   82edc:	0e053c0a 	umov	w10, v0.b[2]
   82ee0:	0e013c09 	umov	w9, v0.b[0]
   82ee4:	0e073c0b 	umov	w11, v0.b[3]
   82ee8:	0e093c0c 	umov	w12, v0.b[4]
   82eec:	0e0b3c0d 	umov	w13, v0.b[5]
   82ef0:	12000108 	and	w8, w8, #0x1
   82ef4:	1200014a 	and	w10, w10, #0x1
   82ef8:	12000129 	and	w9, w9, #0x1
   82efc:	1200016b 	and	w11, w11, #0x1
   82f00:	1200018c 	and	w12, w12, #0x1
   82f04:	120001ad 	and	w13, w13, #0x1
   82f08:	331f0109 	bfi	w9, w8, #1, #1
   82f0c:	0e0d3c08 	umov	w8, v0.b[6]
   82f10:	331e0149 	bfi	w9, w10, #2, #1
   82f14:	0e0f3c0a 	umov	w10, v0.b[7]
   82f18:	331d0169 	bfi	w9, w11, #3, #1
   82f1c:	0e113c0b 	umov	w11, v0.b[8]
   82f20:	331c0189 	bfi	w9, w12, #4, #1
   82f24:	0e133c0c 	umov	w12, v0.b[9]
   82f28:	12000108 	and	w8, w8, #0x1
   82f2c:	331b01a9 	bfi	w9, w13, #5, #1
   82f30:	0e153c0d 	umov	w13, v0.b[10]
   82f34:	1200014a 	and	w10, w10, #0x1
   82f38:	2a081928 	orr	w8, w9, w8, lsl #6
   82f3c:	0e173c09 	umov	w9, v0.b[11]
   82f40:	1200016b 	and	w11, w11, #0x1
   82f44:	2a0a1d08 	orr	w8, w8, w10, lsl #7
   82f48:	0e193c0a 	umov	w10, v0.b[12]
   82f4c:	1200018c 	and	w12, w12, #0x1
   82f50:	2a0b2108 	orr	w8, w8, w11, lsl #8
   82f54:	0e1b3c0b 	umov	w11, v0.b[13]
   82f58:	120001ad 	and	w13, w13, #0x1
   82f5c:	2a0c2508 	orr	w8, w8, w12, lsl #9
   82f60:	0e1d3c0c 	umov	w12, v0.b[14]
   82f64:	12000129 	and	w9, w9, #0x1
   82f68:	2a0d2908 	orr	w8, w8, w13, lsl #10
   82f6c:	1200014a 	and	w10, w10, #0x1
   82f70:	2a092d08 	orr	w8, w8, w9, lsl #11
   82f74:	12000169 	and	w9, w11, #0x1
   82f78:	0e1f3c0b 	umov	w11, v0.b[15]
   82f7c:	2a0a3108 	orr	w8, w8, w10, lsl #12
   82f80:	1200018a 	and	w10, w12, #0x1
   82f84:	2a093508 	orr	w8, w8, w9, lsl #13
   82f88:	2a0a3908 	orr	w8, w8, w10, lsl #14
   82f8c:	2a0b3d08 	orr	w8, w8, w11, lsl #15
   82f90:	927ceecb 	and	x11, x22, #0xfffffffffffffff0
   82f94:	eb16017f 	cmp	x11, x22
   82f98:	79005be8 	strh	w8, [sp, #44]
   82f9c:	12003d08 	and	w8, w8, #0xffff
   82fa0:	9e670100 	fmov	d0, x8
   82fa4:	0e205800 	cnt	v0.8b, v0.8b
   82fa8:	2e303800 	uaddlv	h0, v0.8b
   82fac:	1e260000 	fmov	w0, s0
   82fb0:	54000800 	b.eq	830b0 <_ZN4core3fmt9Formatter12pad_integral17h18655efe8c4788ccE+0x330>  // b.none
   82fb4:	37180076 	tbnz	w22, #3, 82fc0 <_ZN4core3fmt9Formatter12pad_integral17h18655efe8c4788ccE+0x240>
   82fb8:	8b0b02e8 	add	x8, x23, x11
   82fbc:	14000037 	b	83098 <_ZN4core3fmt9Formatter12pad_integral17h18655efe8c4788ccE+0x318>
   82fc0:	6f00e400 	movi	v0.2d, #0x0
   82fc4:	5280002c 	mov	w12, #0x1                   	// #1
   82fc8:	927df2c9 	and	x9, x22, #0xfffffffffffffff8
   82fcc:	0f05e7e2 	movi	v2.8b, #0xbf
   82fd0:	6f00e401 	movi	v1.2d, #0x0
   82fd4:	8b0902e8 	add	x8, x23, x9
   82fd8:	6f00e403 	movi	v3.2d, #0x0
   82fdc:	8b0b02ea 	add	x10, x23, x11
   82fe0:	4e081c00 	mov	v0.d[0], x0
   82fe4:	cb09016b 	sub	x11, x11, x9
   82fe8:	6f00e404 	movi	v4.2d, #0x0
   82fec:	4e080d85 	dup	v5.2d, x12
   82ff0:	aa0a03ec 	mov	x12, x10
   82ff4:	3940154f 	ldrb	w15, [x10, #5]
   82ff8:	39400950 	ldrb	w16, [x10, #2]
   82ffc:	b100216b 	adds	x11, x11, #0x8
   83000:	38404d8d 	ldrb	w13, [x12, #4]!
   83004:	39400d8e 	ldrb	w14, [x12, #3]
   83008:	3940098c 	ldrb	w12, [x12, #2]
   8300c:	33181ded 	bfi	w13, w15, #8, #8
   83010:	3940054f 	ldrb	w15, [x10, #1]
   83014:	33181dcc 	bfi	w12, w14, #8, #8
   83018:	39400d4e 	ldrb	w14, [x10, #3]
   8301c:	33103d8d 	bfi	w13, w12, #16, #16
   83020:	b3781dd0 	bfi	x16, x14, #8, #8
   83024:	3840854c 	ldrb	w12, [x10], #8
   83028:	b3781dec 	bfi	x12, x15, #8, #8
   8302c:	b3703e0c 	bfi	x12, x16, #16, #16
   83030:	b3607dac 	bfi	x12, x13, #32, #32
   83034:	9e670186 	fmov	d6, x12
   83038:	0e2234c6 	cmgt	v6.8b, v6.8b, v2.8b
   8303c:	2f08a4c6 	uxtl	v6.8h, v6.8b
   83040:	2f10a4c7 	uxtl	v7.4s, v6.4h
   83044:	6f10a4c6 	uxtl2	v6.4s, v6.8h
   83048:	2f20a4f0 	uxtl	v16.2d, v7.2s
   8304c:	6f20a4e7 	uxtl2	v7.2d, v7.4s
   83050:	2f20a4d1 	uxtl	v17.2d, v6.2s
   83054:	6f20a4c6 	uxtl2	v6.2d, v6.4s
   83058:	4e251e10 	and	v16.16b, v16.16b, v5.16b
   8305c:	4e251ce7 	and	v7.16b, v7.16b, v5.16b
   83060:	4e251e31 	and	v17.16b, v17.16b, v5.16b
   83064:	4e251cc6 	and	v6.16b, v6.16b, v5.16b
   83068:	4ee68484 	add	v4.2d, v4.2d, v6.2d
   8306c:	4ef18463 	add	v3.2d, v3.2d, v17.2d
   83070:	4ee78421 	add	v1.2d, v1.2d, v7.2d
   83074:	4ef08400 	add	v0.2d, v0.2d, v16.2d
   83078:	54fffbc1 	b.ne	82ff0 <_ZN4core3fmt9Formatter12pad_integral17h18655efe8c4788ccE+0x270>  // b.any
   8307c:	4ee38400 	add	v0.2d, v0.2d, v3.2d
   83080:	eb16013f 	cmp	x9, x22
   83084:	4ee48421 	add	v1.2d, v1.2d, v4.2d
   83088:	4ee18400 	add	v0.2d, v0.2d, v1.2d
   8308c:	5ef1b800 	addp	d0, v0.2d
   83090:	9e660000 	fmov	x0, d0
   83094:	540000e0 	b.eq	830b0 <_ZN4core3fmt9Formatter12pad_integral17h18655efe8c4788ccE+0x330>  // b.none
   83098:	8b1602e9 	add	x9, x23, x22
   8309c:	38c0150a 	ldrsb	w10, [x8], #1
   830a0:	3101055f 	cmn	w10, #0x41
   830a4:	9a80d400 	cinc	x0, x0, gt
   830a8:	eb09011f 	cmp	x8, x9
   830ac:	54ffff81 	b.ne	8309c <_ZN4core3fmt9Formatter12pad_integral17h18655efe8c4788ccE+0x31c>  // b.any
   830b0:	8b1a001a 	add	x26, x0, x26
   830b4:	f94002a8 	ldr	x8, [x21]
   830b8:	b40001c8 	cbz	x8, 830f0 <_ZN4core3fmt9Formatter12pad_integral17h18655efe8c4788ccE+0x370>
   830bc:	f94006a8 	ldr	x8, [x21, #8]
   830c0:	eb1a011c 	subs	x28, x8, x26
   830c4:	54000169 	b.ls	830f0 <_ZN4core3fmt9Formatter12pad_integral17h18655efe8c4788ccE+0x370>  // b.plast
   830c8:	37180519 	tbnz	w25, #3, 83168 <_ZN4core3fmt9Formatter12pad_integral17h18655efe8c4788ccE+0x3e8>
   830cc:	3940e2a8 	ldrb	w8, [x21, #56]
   830d0:	71000d1f 	cmp	w8, #0x3
   830d4:	1a9f1508 	csinc	w8, w8, wzr, ne  // ne = any
   830d8:	7200051f 	tst	w8, #0x3
   830dc:	54000760 	b.eq	831c8 <_ZN4core3fmt9Formatter12pad_integral17h18655efe8c4788ccE+0x448>  // b.none
   830e0:	7100051f 	cmp	w8, #0x1
   830e4:	54000761 	b.ne	831d0 <_ZN4core3fmt9Formatter12pad_integral17h18655efe8c4788ccE+0x450>  // b.any
   830e8:	aa1f03fb 	mov	x27, xzr
   830ec:	1400003d 	b	831e0 <_ZN4core3fmt9Formatter12pad_integral17h18655efe8c4788ccE+0x460>
   830f0:	a94256b9 	ldp	x25, x21, [x21, #32]
   830f4:	2a1803e2 	mov	w2, w24
   830f8:	aa1703e3 	mov	x3, x23
   830fc:	aa1603e4 	mov	x4, x22
   83100:	aa1903e0 	mov	x0, x25
   83104:	aa1503e1 	mov	x1, x21
   83108:	9400006b 	bl	832b4 <_ZN4core3fmt9Formatter12pad_integral12write_prefix17h805e02cd3906d96aE>
   8310c:	36000160 	tbz	w0, #0, 83138 <_ZN4core3fmt9Formatter12pad_integral17h18655efe8c4788ccE+0x3b8>
   83110:	52800039 	mov	w25, #0x1                   	// #1
   83114:	2a1903e0 	mov	w0, w25
   83118:	a9484ff4 	ldp	x20, x19, [sp, #128]
   8311c:	a94757f6 	ldp	x22, x21, [sp, #112]
   83120:	a9465ff8 	ldp	x24, x23, [sp, #96]
   83124:	a94567fa 	ldp	x26, x25, [sp, #80]
   83128:	a9446ffc 	ldp	x28, x27, [sp, #64]
   8312c:	a9437bfd 	ldp	x29, x30, [sp, #48]
   83130:	910243ff 	add	sp, sp, #0x90
   83134:	d65f03c0 	ret
   83138:	f9400ea3 	ldr	x3, [x21, #24]
   8313c:	aa1903e0 	mov	x0, x25
   83140:	aa1403e1 	mov	x1, x20
   83144:	aa1303e2 	mov	x2, x19
   83148:	a9484ff4 	ldp	x20, x19, [sp, #128]
   8314c:	a94757f6 	ldp	x22, x21, [sp, #112]
   83150:	a9465ff8 	ldp	x24, x23, [sp, #96]
   83154:	a94567fa 	ldp	x26, x25, [sp, #80]
   83158:	a9446ffc 	ldp	x28, x27, [sp, #64]
   8315c:	a9437bfd 	ldp	x29, x30, [sp, #48]
   83160:	910243ff 	add	sp, sp, #0x90
   83164:	d61f0060 	br	x3
   83168:	a9426eba 	ldp	x26, x27, [x21, #32]
   8316c:	52800039 	mov	w25, #0x1                   	// #1
   83170:	2a1803e2 	mov	w2, w24
   83174:	b94036a8 	ldr	w8, [x21, #52]
   83178:	aa1703e3 	mov	x3, x23
   8317c:	aa1603e4 	mov	x4, x22
   83180:	3940e2bd 	ldrb	w29, [x21, #56]
   83184:	aa1a03e0 	mov	x0, x26
   83188:	3900e2b9 	strb	w25, [x21, #56]
   8318c:	b9000fe8 	str	w8, [sp, #12]
   83190:	52800608 	mov	w8, #0x30                  	// #48
   83194:	aa1b03e1 	mov	x1, x27
   83198:	b90036a8 	str	w8, [x21, #52]
   8319c:	94000046 	bl	832b4 <_ZN4core3fmt9Formatter12pad_integral12write_prefix17h805e02cd3906d96aE>
   831a0:	3707fba0 	tbnz	w0, #0, 83114 <_ZN4core3fmt9Formatter12pad_integral17h18655efe8c4788ccE+0x394>
   831a4:	91000796 	add	x22, x28, #0x1
   831a8:	f10006d6 	subs	x22, x22, #0x1
   831ac:	54000660 	b.eq	83278 <_ZN4core3fmt9Formatter12pad_integral17h18655efe8c4788ccE+0x4f8>  // b.none
   831b0:	f9401368 	ldr	x8, [x27, #32]
   831b4:	aa1a03e0 	mov	x0, x26
   831b8:	52800601 	mov	w1, #0x30                  	// #48
   831bc:	d63f0100 	blr	x8
   831c0:	3607ff40 	tbz	w0, #0, 831a8 <_ZN4core3fmt9Formatter12pad_integral17h18655efe8c4788ccE+0x428>
   831c4:	17ffffd3 	b	83110 <_ZN4core3fmt9Formatter12pad_integral17h18655efe8c4788ccE+0x390>
   831c8:	aa1c03fb 	mov	x27, x28
   831cc:	14000004 	b	831dc <_ZN4core3fmt9Formatter12pad_integral17h18655efe8c4788ccE+0x45c>
   831d0:	91000789 	add	x9, x28, #0x1
   831d4:	d341ff88 	lsr	x8, x28, #1
   831d8:	d341fd3b 	lsr	x27, x9, #1
   831dc:	aa0803fc 	mov	x28, x8
   831e0:	a9426ab9 	ldp	x25, x26, [x21, #32]
   831e4:	9100079c 	add	x28, x28, #0x1
   831e8:	b94036b5 	ldr	w21, [x21, #52]
   831ec:	f100079c 	subs	x28, x28, #0x1
   831f0:	540000e0 	b.eq	8320c <_ZN4core3fmt9Formatter12pad_integral17h18655efe8c4788ccE+0x48c>  // b.none
   831f4:	f9401348 	ldr	x8, [x26, #32]
   831f8:	aa1903e0 	mov	x0, x25
   831fc:	2a1503e1 	mov	w1, w21
   83200:	d63f0100 	blr	x8
   83204:	3607ff40 	tbz	w0, #0, 831ec <_ZN4core3fmt9Formatter12pad_integral17h18655efe8c4788ccE+0x46c>
   83208:	17ffffc2 	b	83110 <_ZN4core3fmt9Formatter12pad_integral17h18655efe8c4788ccE+0x390>
   8320c:	714442bf 	cmp	w21, #0x110, lsl #12
   83210:	9a9b03fb 	csel	x27, xzr, x27, eq  // eq = none
   83214:	54fff7e0 	b.eq	83110 <_ZN4core3fmt9Formatter12pad_integral17h18655efe8c4788ccE+0x390>  // b.none
   83218:	aa1903e0 	mov	x0, x25
   8321c:	aa1a03e1 	mov	x1, x26
   83220:	2a1803e2 	mov	w2, w24
   83224:	aa1703e3 	mov	x3, x23
   83228:	aa1603e4 	mov	x4, x22
   8322c:	94000022 	bl	832b4 <_ZN4core3fmt9Formatter12pad_integral12write_prefix17h805e02cd3906d96aE>
   83230:	3707f700 	tbnz	w0, #0, 83110 <_ZN4core3fmt9Formatter12pad_integral17h18655efe8c4788ccE+0x390>
   83234:	f9400f48 	ldr	x8, [x26, #24]
   83238:	aa1903e0 	mov	x0, x25
   8323c:	aa1403e1 	mov	x1, x20
   83240:	aa1303e2 	mov	x2, x19
   83244:	d63f0100 	blr	x8
   83248:	3707f640 	tbnz	w0, #0, 83110 <_ZN4core3fmt9Formatter12pad_integral17h18655efe8c4788ccE+0x390>
   8324c:	aa1f03f3 	mov	x19, xzr
   83250:	eb13037f 	cmp	x27, x19
   83254:	54000280 	b.eq	832a4 <_ZN4core3fmt9Formatter12pad_integral17h18655efe8c4788ccE+0x524>  // b.none
   83258:	f9401348 	ldr	x8, [x26, #32]
   8325c:	aa1903e0 	mov	x0, x25
   83260:	2a1503e1 	mov	w1, w21
   83264:	91000673 	add	x19, x19, #0x1
   83268:	d63f0100 	blr	x8
   8326c:	34ffff20 	cbz	w0, 83250 <_ZN4core3fmt9Formatter12pad_integral17h18655efe8c4788ccE+0x4d0>
   83270:	d1000668 	sub	x8, x19, #0x1
   83274:	1400000d 	b	832a8 <_ZN4core3fmt9Formatter12pad_integral17h18655efe8c4788ccE+0x528>
   83278:	f9400f68 	ldr	x8, [x27, #24]
   8327c:	aa1a03e0 	mov	x0, x26
   83280:	aa1403e1 	mov	x1, x20
   83284:	aa1303e2 	mov	x2, x19
   83288:	d63f0100 	blr	x8
   8328c:	3707f420 	tbnz	w0, #0, 83110 <_ZN4core3fmt9Formatter12pad_integral17h18655efe8c4788ccE+0x390>
   83290:	2a1f03f9 	mov	w25, wzr
   83294:	b9400fe8 	ldr	w8, [sp, #12]
   83298:	3900e2bd 	strb	w29, [x21, #56]
   8329c:	b90036a8 	str	w8, [x21, #52]
   832a0:	17ffff9d 	b	83114 <_ZN4core3fmt9Formatter12pad_integral17h18655efe8c4788ccE+0x394>
   832a4:	aa1b03e8 	mov	x8, x27
   832a8:	eb1b011f 	cmp	x8, x27
   832ac:	1a9f27f9 	cset	w25, cc  // cc = lo, ul, last
   832b0:	17ffff99 	b	83114 <_ZN4core3fmt9Formatter12pad_integral17h18655efe8c4788ccE+0x394>

00000000000832b4 <_ZN4core3fmt9Formatter12pad_integral12write_prefix17h805e02cd3906d96aE>:
   832b4:	f81d0ffe 	str	x30, [sp, #-48]!
   832b8:	a90157f6 	stp	x22, x21, [sp, #16]
   832bc:	aa0103f6 	mov	x22, x1
   832c0:	a9024ff4 	stp	x20, x19, [sp, #32]
   832c4:	aa0403f3 	mov	x19, x4
   832c8:	aa0303f4 	mov	x20, x3
   832cc:	aa0003f5 	mov	x21, x0
   832d0:	7144405f 	cmp	w2, #0x110, lsl #12
   832d4:	54000160 	b.eq	83300 <_ZN4core3fmt9Formatter12pad_integral12write_prefix17h805e02cd3906d96aE+0x4c>  // b.none
   832d8:	f94012c8 	ldr	x8, [x22, #32]
   832dc:	aa1503e0 	mov	x0, x21
   832e0:	2a0203e1 	mov	w1, w2
   832e4:	d63f0100 	blr	x8
   832e8:	360000c0 	tbz	w0, #0, 83300 <_ZN4core3fmt9Formatter12pad_integral12write_prefix17h805e02cd3906d96aE+0x4c>
   832ec:	52800020 	mov	w0, #0x1                   	// #1
   832f0:	a9424ff4 	ldp	x20, x19, [sp, #32]
   832f4:	a94157f6 	ldp	x22, x21, [sp, #16]
   832f8:	f84307fe 	ldr	x30, [sp], #48
   832fc:	d65f03c0 	ret
   83300:	b4000134 	cbz	x20, 83324 <_ZN4core3fmt9Formatter12pad_integral12write_prefix17h805e02cd3906d96aE+0x70>
   83304:	f9400ec3 	ldr	x3, [x22, #24]
   83308:	aa1503e0 	mov	x0, x21
   8330c:	aa1403e1 	mov	x1, x20
   83310:	aa1303e2 	mov	x2, x19
   83314:	a9424ff4 	ldp	x20, x19, [sp, #32]
   83318:	a94157f6 	ldp	x22, x21, [sp, #16]
   8331c:	f84307fe 	ldr	x30, [sp], #48
   83320:	d61f0060 	br	x3
   83324:	2a1f03e0 	mov	w0, wzr
   83328:	a9424ff4 	ldp	x20, x19, [sp, #32]
   8332c:	a94157f6 	ldp	x22, x21, [sp, #16]
   83330:	f84307fe 	ldr	x30, [sp], #48
   83334:	d65f03c0 	ret

0000000000083338 <_ZN4core3fmt9Formatter3pad17hd0ac327128f96116E>:
   83338:	d10183ff 	sub	sp, sp, #0x60
   8333c:	f9400008 	ldr	x8, [x0]
   83340:	a90457f6 	stp	x22, x21, [sp, #64]
   83344:	f9400809 	ldr	x9, [x0, #16]
   83348:	a9054ff4 	stp	x20, x19, [sp, #80]
   8334c:	aa0203f3 	mov	x19, x2
   83350:	aa0003f5 	mov	x21, x0
   83354:	f100051f 	cmp	x8, #0x1
   83358:	aa0103f4 	mov	x20, x1
   8335c:	fa411924 	ccmp	x9, #0x1, #0x4, ne  // ne = any
   83360:	a90267fe 	stp	x30, x25, [sp, #32]
   83364:	a9035ff8 	stp	x24, x23, [sp, #48]
   83368:	540021c1 	b.ne	837a0 <_ZN4core3fmt9Formatter3pad17hd0ac327128f96116E+0x468>  // b.any
   8336c:	f100053f 	cmp	x9, #0x1
   83370:	54000a21 	b.ne	834b4 <_ZN4core3fmt9Formatter3pad17hd0ac327128f96116E+0x17c>  // b.any
   83374:	f9400eaa 	ldr	x10, [x21, #24]
   83378:	aa1f03e9 	mov	x9, xzr
   8337c:	8b13028b 	add	x11, x20, x19
   83380:	9100054c 	add	x12, x10, #0x1
   83384:	aa1403ea 	mov	x10, x20
   83388:	14000007 	b	833a4 <_ZN4core3fmt9Formatter3pad17hd0ac327128f96116E+0x6c>
   8338c:	2a1003ed 	mov	w13, w16
   83390:	cb0a0129 	sub	x9, x9, x10
   83394:	aa0e03ea 	mov	x10, x14
   83398:	8b0e0129 	add	x9, x9, x14
   8339c:	714441bf 	cmp	w13, #0x110, lsl #12
   833a0:	540008a0 	b.eq	834b4 <_ZN4core3fmt9Formatter3pad17hd0ac327128f96116E+0x17c>  // b.none
   833a4:	f100058c 	subs	x12, x12, #0x1
   833a8:	54000400 	b.eq	83428 <_ZN4core3fmt9Formatter3pad17hd0ac327128f96116E+0xf0>  // b.none
   833ac:	eb0b015f 	cmp	x10, x11
   833b0:	54000820 	b.eq	834b4 <_ZN4core3fmt9Formatter3pad17hd0ac327128f96116E+0x17c>  // b.none
   833b4:	aa0a03ee 	mov	x14, x10
   833b8:	38c015cd 	ldrsb	w13, [x14], #1
   833bc:	12001db0 	and	w16, w13, #0xff
   833c0:	36fffe6d 	tbz	w13, #31, 8338c <_ZN4core3fmt9Formatter3pad17hd0ac327128f96116E+0x54>
   833c4:	3940054d 	ldrb	w13, [x10, #1]
   833c8:	1200120f 	and	w15, w16, #0x1f
   833cc:	71037e1f 	cmp	w16, #0xdf
   833d0:	120015ad 	and	w13, w13, #0x3f
   833d4:	540001c9 	b.ls	8340c <_ZN4core3fmt9Formatter3pad17hd0ac327128f96116E+0xd4>  // b.plast
   833d8:	3940094e 	ldrb	w14, [x10, #2]
   833dc:	7103c21f 	cmp	w16, #0xf0
   833e0:	120015d1 	and	w17, w14, #0x3f
   833e4:	331a15b1 	bfi	w17, w13, #6, #6
   833e8:	54000183 	b.cc	83418 <_ZN4core3fmt9Formatter3pad17hd0ac327128f96116E+0xe0>  // b.lo, b.ul, b.last
   833ec:	39400d4d 	ldrb	w13, [x10, #3]
   833f0:	120015ad 	and	w13, w13, #0x3f
   833f4:	331a2e2d 	bfi	w13, w17, #6, #12
   833f8:	330e09ed 	bfi	w13, w15, #18, #3
   833fc:	714441bf 	cmp	w13, #0x110, lsl #12
   83400:	540005a0 	b.eq	834b4 <_ZN4core3fmt9Formatter3pad17hd0ac327128f96116E+0x17c>  // b.none
   83404:	9100114e 	add	x14, x10, #0x4
   83408:	17ffffe2 	b	83390 <_ZN4core3fmt9Formatter3pad17hd0ac327128f96116E+0x58>
   8340c:	9100094e 	add	x14, x10, #0x2
   83410:	331a11ed 	bfi	w13, w15, #6, #5
   83414:	17ffffdf 	b	83390 <_ZN4core3fmt9Formatter3pad17hd0ac327128f96116E+0x58>
   83418:	331411f1 	bfi	w17, w15, #12, #5
   8341c:	91000d4e 	add	x14, x10, #0x3
   83420:	2a1103ed 	mov	w13, w17
   83424:	17ffffdb 	b	83390 <_ZN4core3fmt9Formatter3pad17hd0ac327128f96116E+0x58>
   83428:	eb0b015f 	cmp	x10, x11
   8342c:	54000440 	b.eq	834b4 <_ZN4core3fmt9Formatter3pad17hd0ac327128f96116E+0x17c>  // b.none
   83430:	39c0014b 	ldrsb	w11, [x10]
   83434:	36f8022b 	tbz	w11, #31, 83478 <_ZN4core3fmt9Formatter3pad17hd0ac327128f96116E+0x140>
   83438:	12001d6b 	and	w11, w11, #0xff
   8343c:	7103817f 	cmp	w11, #0xe0
   83440:	540001c3 	b.cc	83478 <_ZN4core3fmt9Formatter3pad17hd0ac327128f96116E+0x140>  // b.lo, b.ul, b.last
   83444:	7103c17f 	cmp	w11, #0xf0
   83448:	54000183 	b.cc	83478 <_ZN4core3fmt9Formatter3pad17hd0ac327128f96116E+0x140>  // b.lo, b.ul, b.last
   8344c:	3940094c 	ldrb	w12, [x10, #2]
   83450:	3940054d 	ldrb	w13, [x10, #1]
   83454:	39400d4a 	ldrb	w10, [x10, #3]
   83458:	1200158c 	and	w12, w12, #0x3f
   8345c:	120015ad 	and	w13, w13, #0x3f
   83460:	53144dad 	lsl	w13, w13, #12
   83464:	331a158d 	bfi	w13, w12, #6, #6
   83468:	3300154d 	bfxil	w13, w10, #0, #6
   8346c:	330e096d 	bfi	w13, w11, #18, #3
   83470:	714441bf 	cmp	w13, #0x110, lsl #12
   83474:	54000200 	b.eq	834b4 <_ZN4core3fmt9Formatter3pad17hd0ac327128f96116E+0x17c>  // b.none
   83478:	b4000169 	cbz	x9, 834a4 <_ZN4core3fmt9Formatter3pad17hd0ac327128f96116E+0x16c>
   8347c:	eb13013f 	cmp	x9, x19
   83480:	540000e2 	b.cs	8349c <_ZN4core3fmt9Formatter3pad17hd0ac327128f96116E+0x164>  // b.hs, b.nlast
   83484:	38e96a8a 	ldrsb	w10, [x20, x9]
   83488:	3101015f 	cmn	w10, #0x40
   8348c:	540000ca 	b.ge	834a4 <_ZN4core3fmt9Formatter3pad17hd0ac327128f96116E+0x16c>  // b.tcont
   83490:	aa1f03e9 	mov	x9, xzr
   83494:	aa1f03ea 	mov	x10, xzr
   83498:	14000004 	b	834a8 <_ZN4core3fmt9Formatter3pad17hd0ac327128f96116E+0x170>
   8349c:	eb13013f 	cmp	x9, x19
   834a0:	54ffff81 	b.ne	83490 <_ZN4core3fmt9Formatter3pad17hd0ac327128f96116E+0x158>  // b.any
   834a4:	aa1403ea 	mov	x10, x20
   834a8:	f100015f 	cmp	x10, #0x0
   834ac:	9a890273 	csel	x19, x19, x9, eq  // eq = none
   834b0:	9a8a0294 	csel	x20, x20, x10, eq  // eq = none
   834b4:	b4001768 	cbz	x8, 837a0 <_ZN4core3fmt9Formatter3pad17hd0ac327128f96116E+0x468>
   834b8:	f94006b6 	ldr	x22, [x21, #8]
   834bc:	f100827f 	cmp	x19, #0x20
   834c0:	540000e2 	b.cs	834dc <_ZN4core3fmt9Formatter3pad17hd0ac327128f96116E+0x1a4>  // b.hs, b.nlast
   834c4:	b4000153 	cbz	x19, 834ec <_ZN4core3fmt9Formatter3pad17hd0ac327128f96116E+0x1b4>
   834c8:	f100227f 	cmp	x19, #0x8
   834cc:	54000142 	b.cs	834f4 <_ZN4core3fmt9Formatter3pad17hd0ac327128f96116E+0x1bc>  // b.hs, b.nlast
   834d0:	aa1f03e0 	mov	x0, xzr
   834d4:	aa1403e8 	mov	x8, x20
   834d8:	140000a1 	b	8375c <_ZN4core3fmt9Formatter3pad17hd0ac327128f96116E+0x424>
   834dc:	aa1403e0 	mov	x0, x20
   834e0:	aa1303e1 	mov	x1, x19
   834e4:	97fffa94 	bl	81f34 <_ZN4core3str5count14do_count_chars17hf4570e7a07268196E>
   834e8:	140000a3 	b	83774 <_ZN4core3fmt9Formatter3pad17hd0ac327128f96116E+0x43c>
   834ec:	aa1f03e0 	mov	x0, xzr
   834f0:	140000a1 	b	83774 <_ZN4core3fmt9Formatter3pad17hd0ac327128f96116E+0x43c>
   834f4:	f100427f 	cmp	x19, #0x10
   834f8:	54000082 	b.cs	83508 <_ZN4core3fmt9Formatter3pad17hd0ac327128f96116E+0x1d0>  // b.hs, b.nlast
   834fc:	aa1f03e0 	mov	x0, xzr
   83500:	aa1f03eb 	mov	x11, xzr
   83504:	14000060 	b	83684 <_ZN4core3fmt9Formatter3pad17hd0ac327128f96116E+0x34c>
   83508:	aa1403e8 	mov	x8, x20
   8350c:	3940168b 	ldrb	w11, [x20, #5]
   83510:	39400a8c 	ldrb	w12, [x20, #2]
   83514:	4f05e7e0 	movi	v0.16b, #0xbf
   83518:	38404d09 	ldrb	w9, [x8, #4]!
   8351c:	39400d0a 	ldrb	w10, [x8, #3]
   83520:	39400908 	ldrb	w8, [x8, #2]
   83524:	33181d69 	bfi	w9, w11, #8, #8
   83528:	3940068b 	ldrb	w11, [x20, #1]
   8352c:	33181d48 	bfi	w8, w10, #8, #8
   83530:	39400e8a 	ldrb	w10, [x20, #3]
   83534:	33103d09 	bfi	w9, w8, #16, #16
   83538:	39400288 	ldrb	w8, [x20]
   8353c:	b3781d4c 	bfi	x12, x10, #8, #8
   83540:	b3781d68 	bfi	x8, x11, #8, #8
   83544:	b3703d88 	bfi	x8, x12, #16, #16
   83548:	b3607d28 	bfi	x8, x9, #32, #32
   8354c:	aa1403e9 	mov	x9, x20
   83550:	f90003e8 	str	x8, [sp]
   83554:	38408d28 	ldrb	w8, [x9, #8]!
   83558:	39400d2a 	ldrb	w10, [x9, #3]
   8355c:	3940092b 	ldrb	w11, [x9, #2]
   83560:	38404d2c 	ldrb	w12, [x9, #4]!
   83564:	39400d2d 	ldrb	w13, [x9, #3]
   83568:	39400929 	ldrb	w9, [x9, #2]
   8356c:	b3781d4b 	bfi	x11, x10, #8, #8
   83570:	3940368e 	ldrb	w14, [x20, #13]
   83574:	33181da9 	bfi	w9, w13, #8, #8
   83578:	33181dcc 	bfi	w12, w14, #8, #8
   8357c:	33103d2c 	bfi	w12, w9, #16, #16
   83580:	39402689 	ldrb	w9, [x20, #9]
   83584:	b3781d28 	bfi	x8, x9, #8, #8
   83588:	b3703d68 	bfi	x8, x11, #16, #16
   8358c:	b3607d88 	bfi	x8, x12, #32, #32
   83590:	f90007e8 	str	x8, [sp, #8]
   83594:	3dc003e1 	ldr	q1, [sp]
   83598:	4e203420 	cmgt	v0.16b, v1.16b, v0.16b
   8359c:	0e033c08 	umov	w8, v0.b[1]
   835a0:	0e053c0a 	umov	w10, v0.b[2]
   835a4:	0e013c09 	umov	w9, v0.b[0]
   835a8:	0e073c0b 	umov	w11, v0.b[3]
   835ac:	0e093c0c 	umov	w12, v0.b[4]
   835b0:	0e0b3c0d 	umov	w13, v0.b[5]
   835b4:	12000108 	and	w8, w8, #0x1
   835b8:	1200014a 	and	w10, w10, #0x1
   835bc:	12000129 	and	w9, w9, #0x1
   835c0:	1200016b 	and	w11, w11, #0x1
   835c4:	1200018c 	and	w12, w12, #0x1
   835c8:	120001ad 	and	w13, w13, #0x1
   835cc:	331f0109 	bfi	w9, w8, #1, #1
   835d0:	0e0d3c08 	umov	w8, v0.b[6]
   835d4:	331e0149 	bfi	w9, w10, #2, #1
   835d8:	0e0f3c0a 	umov	w10, v0.b[7]
   835dc:	331d0169 	bfi	w9, w11, #3, #1
   835e0:	0e113c0b 	umov	w11, v0.b[8]
   835e4:	331c0189 	bfi	w9, w12, #4, #1
   835e8:	0e133c0c 	umov	w12, v0.b[9]
   835ec:	12000108 	and	w8, w8, #0x1
   835f0:	331b01a9 	bfi	w9, w13, #5, #1
   835f4:	0e153c0d 	umov	w13, v0.b[10]
   835f8:	1200014a 	and	w10, w10, #0x1
   835fc:	2a081928 	orr	w8, w9, w8, lsl #6
   83600:	0e173c09 	umov	w9, v0.b[11]
   83604:	1200016b 	and	w11, w11, #0x1
   83608:	2a0a1d08 	orr	w8, w8, w10, lsl #7
   8360c:	0e193c0a 	umov	w10, v0.b[12]
   83610:	1200018c 	and	w12, w12, #0x1
   83614:	2a0b2108 	orr	w8, w8, w11, lsl #8
   83618:	0e1b3c0b 	umov	w11, v0.b[13]
   8361c:	120001ad 	and	w13, w13, #0x1
   83620:	2a0c2508 	orr	w8, w8, w12, lsl #9
   83624:	0e1d3c0c 	umov	w12, v0.b[14]
   83628:	12000129 	and	w9, w9, #0x1
   8362c:	2a0d2908 	orr	w8, w8, w13, lsl #10
   83630:	1200014a 	and	w10, w10, #0x1
   83634:	2a092d08 	orr	w8, w8, w9, lsl #11
   83638:	12000169 	and	w9, w11, #0x1
   8363c:	0e1f3c0b 	umov	w11, v0.b[15]
   83640:	2a0a3108 	orr	w8, w8, w10, lsl #12
   83644:	1200018a 	and	w10, w12, #0x1
   83648:	2a093508 	orr	w8, w8, w9, lsl #13
   8364c:	2a0a3908 	orr	w8, w8, w10, lsl #14
   83650:	2a0b3d08 	orr	w8, w8, w11, lsl #15
   83654:	927cee6b 	and	x11, x19, #0xfffffffffffffff0
   83658:	eb0b027f 	cmp	x19, x11
   8365c:	79003be8 	strh	w8, [sp, #28]
   83660:	12003d08 	and	w8, w8, #0xffff
   83664:	9e670100 	fmov	d0, x8
   83668:	0e205800 	cnt	v0.8b, v0.8b
   8366c:	2e303800 	uaddlv	h0, v0.8b
   83670:	1e260000 	fmov	w0, s0
   83674:	54000800 	b.eq	83774 <_ZN4core3fmt9Formatter3pad17hd0ac327128f96116E+0x43c>  // b.none
   83678:	37180073 	tbnz	w19, #3, 83684 <_ZN4core3fmt9Formatter3pad17hd0ac327128f96116E+0x34c>
   8367c:	8b0b0288 	add	x8, x20, x11
   83680:	14000037 	b	8375c <_ZN4core3fmt9Formatter3pad17hd0ac327128f96116E+0x424>
   83684:	6f00e400 	movi	v0.2d, #0x0
   83688:	5280002c 	mov	w12, #0x1                   	// #1
   8368c:	927df269 	and	x9, x19, #0xfffffffffffffff8
   83690:	0f05e7e2 	movi	v2.8b, #0xbf
   83694:	6f00e401 	movi	v1.2d, #0x0
   83698:	8b090288 	add	x8, x20, x9
   8369c:	6f00e403 	movi	v3.2d, #0x0
   836a0:	8b0b028a 	add	x10, x20, x11
   836a4:	4e081c00 	mov	v0.d[0], x0
   836a8:	cb09016b 	sub	x11, x11, x9
   836ac:	6f00e404 	movi	v4.2d, #0x0
   836b0:	4e080d85 	dup	v5.2d, x12
   836b4:	aa0a03ec 	mov	x12, x10
   836b8:	3940154f 	ldrb	w15, [x10, #5]
   836bc:	39400950 	ldrb	w16, [x10, #2]
   836c0:	b100216b 	adds	x11, x11, #0x8
   836c4:	38404d8d 	ldrb	w13, [x12, #4]!
   836c8:	39400d8e 	ldrb	w14, [x12, #3]
   836cc:	3940098c 	ldrb	w12, [x12, #2]
   836d0:	33181ded 	bfi	w13, w15, #8, #8
   836d4:	3940054f 	ldrb	w15, [x10, #1]
   836d8:	33181dcc 	bfi	w12, w14, #8, #8
   836dc:	39400d4e 	ldrb	w14, [x10, #3]
   836e0:	33103d8d 	bfi	w13, w12, #16, #16
   836e4:	b3781dd0 	bfi	x16, x14, #8, #8
   836e8:	3840854c 	ldrb	w12, [x10], #8
   836ec:	b3781dec 	bfi	x12, x15, #8, #8
   836f0:	b3703e0c 	bfi	x12, x16, #16, #16
   836f4:	b3607dac 	bfi	x12, x13, #32, #32
   836f8:	9e670186 	fmov	d6, x12
   836fc:	0e2234c6 	cmgt	v6.8b, v6.8b, v2.8b
   83700:	2f08a4c6 	uxtl	v6.8h, v6.8b
   83704:	2f10a4c7 	uxtl	v7.4s, v6.4h
   83708:	6f10a4c6 	uxtl2	v6.4s, v6.8h
   8370c:	2f20a4f0 	uxtl	v16.2d, v7.2s
   83710:	6f20a4e7 	uxtl2	v7.2d, v7.4s
   83714:	2f20a4d1 	uxtl	v17.2d, v6.2s
   83718:	6f20a4c6 	uxtl2	v6.2d, v6.4s
   8371c:	4e251e10 	and	v16.16b, v16.16b, v5.16b
   83720:	4e251ce7 	and	v7.16b, v7.16b, v5.16b
   83724:	4e251e31 	and	v17.16b, v17.16b, v5.16b
   83728:	4e251cc6 	and	v6.16b, v6.16b, v5.16b
   8372c:	4ee68484 	add	v4.2d, v4.2d, v6.2d
   83730:	4ef18463 	add	v3.2d, v3.2d, v17.2d
   83734:	4ee78421 	add	v1.2d, v1.2d, v7.2d
   83738:	4ef08400 	add	v0.2d, v0.2d, v16.2d
   8373c:	54fffbc1 	b.ne	836b4 <_ZN4core3fmt9Formatter3pad17hd0ac327128f96116E+0x37c>  // b.any
   83740:	4ee38400 	add	v0.2d, v0.2d, v3.2d
   83744:	eb09027f 	cmp	x19, x9
   83748:	4ee48421 	add	v1.2d, v1.2d, v4.2d
   8374c:	4ee18400 	add	v0.2d, v0.2d, v1.2d
   83750:	5ef1b800 	addp	d0, v0.2d
   83754:	9e660000 	fmov	x0, d0
   83758:	540000e0 	b.eq	83774 <_ZN4core3fmt9Formatter3pad17hd0ac327128f96116E+0x43c>  // b.none
   8375c:	8b130289 	add	x9, x20, x19
   83760:	38c0150a 	ldrsb	w10, [x8], #1
   83764:	3101055f 	cmn	w10, #0x41
   83768:	9a80d400 	cinc	x0, x0, gt
   8376c:	eb09011f 	cmp	x8, x9
   83770:	54ffff81 	b.ne	83760 <_ZN4core3fmt9Formatter3pad17hd0ac327128f96116E+0x428>  // b.any
   83774:	eb0002c8 	subs	x8, x22, x0
   83778:	54000149 	b.ls	837a0 <_ZN4core3fmt9Formatter3pad17hd0ac327128f96116E+0x468>  // b.plast
   8377c:	3940e2a9 	ldrb	w9, [x21, #56]
   83780:	71000d3f 	cmp	w9, #0x3
   83784:	1a8903e9 	csel	w9, wzr, w9, eq  // eq = none
   83788:	7200053f 	tst	w9, #0x3
   8378c:	540001e0 	b.eq	837c8 <_ZN4core3fmt9Formatter3pad17hd0ac327128f96116E+0x490>  // b.none
   83790:	7100053f 	cmp	w9, #0x1
   83794:	540001e1 	b.ne	837d0 <_ZN4core3fmt9Formatter3pad17hd0ac327128f96116E+0x498>  // b.any
   83798:	aa1f03f8 	mov	x24, xzr
   8379c:	14000011 	b	837e0 <_ZN4core3fmt9Formatter3pad17hd0ac327128f96116E+0x4a8>
   837a0:	a94222a0 	ldp	x0, x8, [x21, #32]
   837a4:	aa1403e1 	mov	x1, x20
   837a8:	aa1303e2 	mov	x2, x19
   837ac:	a9454ff4 	ldp	x20, x19, [sp, #80]
   837b0:	a94457f6 	ldp	x22, x21, [sp, #64]
   837b4:	a9435ff8 	ldp	x24, x23, [sp, #48]
   837b8:	a94267fe 	ldp	x30, x25, [sp, #32]
   837bc:	f9400d03 	ldr	x3, [x8, #24]
   837c0:	910183ff 	add	sp, sp, #0x60
   837c4:	d61f0060 	br	x3
   837c8:	aa0803f8 	mov	x24, x8
   837cc:	14000004 	b	837dc <_ZN4core3fmt9Formatter3pad17hd0ac327128f96116E+0x4a4>
   837d0:	d341fd09 	lsr	x9, x8, #1
   837d4:	91000508 	add	x8, x8, #0x1
   837d8:	d341fd18 	lsr	x24, x8, #1
   837dc:	aa0903e8 	mov	x8, x9
   837e0:	a9425eb6 	ldp	x22, x23, [x21, #32]
   837e4:	91000519 	add	x25, x8, #0x1
   837e8:	b94036b5 	ldr	w21, [x21, #52]
   837ec:	f1000739 	subs	x25, x25, #0x1
   837f0:	540000e0 	b.eq	8380c <_ZN4core3fmt9Formatter3pad17hd0ac327128f96116E+0x4d4>  // b.none
   837f4:	f94012e8 	ldr	x8, [x23, #32]
   837f8:	aa1603e0 	mov	x0, x22
   837fc:	2a1503e1 	mov	w1, w21
   83800:	d63f0100 	blr	x8
   83804:	3607ff40 	tbz	w0, #0, 837ec <_ZN4core3fmt9Formatter3pad17hd0ac327128f96116E+0x4b4>
   83808:	1400000a 	b	83830 <_ZN4core3fmt9Formatter3pad17hd0ac327128f96116E+0x4f8>
   8380c:	714442bf 	cmp	w21, #0x110, lsl #12
   83810:	9a9803f8 	csel	x24, xzr, x24, eq  // eq = none
   83814:	540000e0 	b.eq	83830 <_ZN4core3fmt9Formatter3pad17hd0ac327128f96116E+0x4f8>  // b.none
   83818:	f9400ee8 	ldr	x8, [x23, #24]
   8381c:	aa1603e0 	mov	x0, x22
   83820:	aa1403e1 	mov	x1, x20
   83824:	aa1303e2 	mov	x2, x19
   83828:	d63f0100 	blr	x8
   8382c:	36000100 	tbz	w0, #0, 8384c <_ZN4core3fmt9Formatter3pad17hd0ac327128f96116E+0x514>
   83830:	52800020 	mov	w0, #0x1                   	// #1
   83834:	a9454ff4 	ldp	x20, x19, [sp, #80]
   83838:	a94457f6 	ldp	x22, x21, [sp, #64]
   8383c:	a9435ff8 	ldp	x24, x23, [sp, #48]
   83840:	a94267fe 	ldp	x30, x25, [sp, #32]
   83844:	910183ff 	add	sp, sp, #0x60
   83848:	d65f03c0 	ret
   8384c:	aa1f03f3 	mov	x19, xzr
   83850:	eb13031f 	cmp	x24, x19
   83854:	54000120 	b.eq	83878 <_ZN4core3fmt9Formatter3pad17hd0ac327128f96116E+0x540>  // b.none
   83858:	f94012e8 	ldr	x8, [x23, #32]
   8385c:	aa1603e0 	mov	x0, x22
   83860:	2a1503e1 	mov	w1, w21
   83864:	91000673 	add	x19, x19, #0x1
   83868:	d63f0100 	blr	x8
   8386c:	34ffff20 	cbz	w0, 83850 <_ZN4core3fmt9Formatter3pad17hd0ac327128f96116E+0x518>
   83870:	d1000668 	sub	x8, x19, #0x1
   83874:	14000002 	b	8387c <_ZN4core3fmt9Formatter3pad17hd0ac327128f96116E+0x544>
   83878:	aa1803e8 	mov	x8, x24
   8387c:	eb18011f 	cmp	x8, x24
   83880:	1a9f27e0 	cset	w0, cc  // cc = lo, ul, last
   83884:	a9454ff4 	ldp	x20, x19, [sp, #80]
   83888:	a94457f6 	ldp	x22, x21, [sp, #64]
   8388c:	a9435ff8 	ldp	x24, x23, [sp, #48]
   83890:	a94267fe 	ldp	x30, x25, [sp, #32]
   83894:	910183ff 	add	sp, sp, #0x60
   83898:	d65f03c0 	ret

000000000008389c <_ZN42_$LT$str$u20$as$u20$core..fmt..Display$GT$3fmt17ha60ebf429b0a2d81E>:
   8389c:	aa0103e8 	mov	x8, x1
   838a0:	aa0003e1 	mov	x1, x0
   838a4:	aa0203e0 	mov	x0, x2
   838a8:	aa0803e2 	mov	x2, x8
   838ac:	17fffea3 	b	83338 <_ZN4core3fmt9Formatter3pad17hd0ac327128f96116E>

00000000000838b0 <_ZN4core3ptr28drop_in_place$LT$$RF$u64$GT$17h11ed966025d43eccE.llvm.808812796197236722>:
   838b0:	d65f03c0 	ret

00000000000838b4 <_ZN4core9panicking5panic17hef51cd3fc116a419E>:
   838b4:	d10103ff 	sub	sp, sp, #0x40
   838b8:	9100c3e8 	add	x8, sp, #0x30
   838bc:	52800029 	mov	w9, #0x1                   	// #1
   838c0:	a90307e0 	stp	x0, x1, [sp, #48]
   838c4:	910003e0 	mov	x0, sp
   838c8:	aa0203e1 	mov	x1, x2
   838cc:	a9017fff 	stp	xzr, xzr, [sp, #16]
   838d0:	a90027e8 	stp	x8, x9, [sp]
   838d4:	b0000008 	adrp	x8, 84000 <_ZN17compiler_builtins3mem6memcpy17h5498ba8912cb5f38E+0x6e4>
   838d8:	91266108 	add	x8, x8, #0x998
   838dc:	a9027fe8 	stp	x8, xzr, [sp, #32]
   838e0:	94000002 	bl	838e8 <_ZN4core9panicking9panic_fmt17h2312ad85af3cbc59E>
   838e4:	d4200020 	brk	#0x1

00000000000838e8 <_ZN4core9panicking9panic_fmt17h2312ad85af3cbc59E>:
   838e8:	d100c3ff 	sub	sp, sp, #0x30
   838ec:	b0000008 	adrp	x8, 84000 <_ZN17compiler_builtins3mem6memcpy17h5498ba8912cb5f38E+0x6e4>
   838f0:	91266108 	add	x8, x8, #0x998
   838f4:	b0000009 	adrp	x9, 84000 <_ZN17compiler_builtins3mem6memcpy17h5498ba8912cb5f38E+0x6e4>
   838f8:	91266129 	add	x9, x9, #0x998
   838fc:	a90187e0 	stp	x0, x1, [sp, #24]
   83900:	910023e0 	add	x0, sp, #0x8
   83904:	a900a7e8 	stp	x8, x9, [sp, #8]
   83908:	52800028 	mov	w8, #0x1                   	// #1
   8390c:	3900a3e8 	strb	w8, [sp, #40]
   83910:	97fff43b 	bl	809fc <rust_begin_unwind>
   83914:	d4200020 	brk	#0x1

0000000000083918 <memcpy>:
   83918:	14000001 	b	8391c <_ZN17compiler_builtins3mem6memcpy17h5498ba8912cb5f38E>

000000000008391c <_ZN17compiler_builtins3mem6memcpy17h5498ba8912cb5f38E>:
   8391c:	d10483ff 	sub	sp, sp, #0x120
   83920:	f1003c5f 	cmp	x2, #0xf
   83924:	f90083fd 	str	x29, [sp, #256]
   83928:	a9114ff4 	stp	x20, x19, [sp, #272]
   8392c:	540002e9 	b.ls	83988 <_ZN17compiler_builtins3mem6memcpy17h5498ba8912cb5f38E+0x6c>  // b.plast
   83930:	4b0003e8 	neg	w8, w0
   83934:	f240090a 	ands	x10, x8, #0x7
   83938:	8b0a0008 	add	x8, x0, x10
   8393c:	54001ac0 	b.eq	83c94 <_ZN17compiler_builtins3mem6memcpy17h5498ba8912cb5f38E+0x378>  // b.none
   83940:	8b000149 	add	x9, x10, x0
   83944:	9100040b 	add	x11, x0, #0x1
   83948:	eb0b013f 	cmp	x9, x11
   8394c:	aa0003ec 	mov	x12, x0
   83950:	9a808529 	csinc	x9, x9, x0, hi  // hi = pmore
   83954:	aa0103ed 	mov	x13, x1
   83958:	cb000129 	sub	x9, x9, x0
   8395c:	f100213f 	cmp	x9, #0x8
   83960:	54001923 	b.cc	83c84 <_ZN17compiler_builtins3mem6memcpy17h5498ba8912cb5f38E+0x368>  // b.lo, b.ul, b.last
   83964:	aa0003ec 	mov	x12, x0
   83968:	aa0103ed 	mov	x13, x1
   8396c:	cb01000b 	sub	x11, x0, x1
   83970:	f100817f 	cmp	x11, #0x20
   83974:	54001883 	b.cc	83c84 <_ZN17compiler_builtins3mem6memcpy17h5498ba8912cb5f38E+0x368>  // b.lo, b.ul, b.last
   83978:	f100813f 	cmp	x9, #0x20
   8397c:	540000c2 	b.cs	83994 <_ZN17compiler_builtins3mem6memcpy17h5498ba8912cb5f38E+0x78>  // b.hs, b.nlast
   83980:	aa1f03eb 	mov	x11, xzr
   83984:	1400009c 	b	83bf4 <_ZN17compiler_builtins3mem6memcpy17h5498ba8912cb5f38E+0x2d8>
   83988:	aa0003e9 	mov	x9, x0
   8398c:	b5003122 	cbnz	x2, 83fb0 <_ZN17compiler_builtins3mem6memcpy17h5498ba8912cb5f38E+0x694>
   83990:	14000259 	b	842f4 <_ZN17compiler_builtins3mem6memcpy17h5498ba8912cb5f38E+0x9d8>
   83994:	927be92b 	and	x11, x9, #0xffffffffffffffe0
   83998:	9100402c 	add	x12, x1, #0x10
   8399c:	9100400e 	add	x14, x0, #0x10
   839a0:	aa0b03ed 	mov	x13, x11
   839a4:	aa0c03ef 	mov	x15, x12
   839a8:	385f5184 	ldurb	w4, [x12, #-11]
   839ac:	f10081ad 	subs	x13, x13, #0x20
   839b0:	385f0df0 	ldrb	w16, [x15, #-16]!
   839b4:	aa0f03f1 	mov	x17, x15
   839b8:	394009e5 	ldrb	w5, [x15, #2]
   839bc:	38404e32 	ldrb	w18, [x17, #4]!
   839c0:	39400e23 	ldrb	w3, [x17, #3]
   839c4:	39400a31 	ldrb	w17, [x17, #2]
   839c8:	33181c92 	bfi	w18, w4, #8, #8
   839cc:	33181c71 	bfi	w17, w3, #8, #8
   839d0:	39400de3 	ldrb	w3, [x15, #3]
   839d4:	33103e32 	bfi	w18, w17, #16, #16
   839d8:	385f1191 	ldurb	w17, [x12, #-15]
   839dc:	b3781c65 	bfi	x5, x3, #8, #8
   839e0:	b3781e30 	bfi	x16, x17, #8, #8
   839e4:	aa0f03f1 	mov	x17, x15
   839e8:	b3703cb0 	bfi	x16, x5, #16, #16
   839ec:	b3607e50 	bfi	x16, x18, #32, #32
   839f0:	f9006bf0 	str	x16, [sp, #208]
   839f4:	38408e30 	ldrb	w16, [x17, #8]!
   839f8:	39400e32 	ldrb	w18, [x17, #3]
   839fc:	39400a23 	ldrb	w3, [x17, #2]
   83a00:	38404e24 	ldrb	w4, [x17, #4]!
   83a04:	39400e25 	ldrb	w5, [x17, #3]
   83a08:	39400a31 	ldrb	w17, [x17, #2]
   83a0c:	b3781e43 	bfi	x3, x18, #8, #8
   83a10:	394035e6 	ldrb	w6, [x15, #13]
   83a14:	394025ef 	ldrb	w15, [x15, #9]
   83a18:	33181cb1 	bfi	w17, w5, #8, #8
   83a1c:	33181cc4 	bfi	w4, w6, #8, #8
   83a20:	b3781df0 	bfi	x16, x15, #8, #8
   83a24:	aa0c03ef 	mov	x15, x12
   83a28:	33103e24 	bfi	w4, w17, #16, #16
   83a2c:	b3703c70 	bfi	x16, x3, #16, #16
   83a30:	b3607c90 	bfi	x16, x4, #32, #32
   83a34:	f9006ff0 	str	x16, [sp, #216]
   83a38:	38404df0 	ldrb	w16, [x15, #4]!
   83a3c:	39400df1 	ldrb	w17, [x15, #3]
   83a40:	394009ef 	ldrb	w15, [x15, #2]
   83a44:	39401592 	ldrb	w18, [x12, #5]
   83a48:	39400983 	ldrb	w3, [x12, #2]
   83a4c:	33181e2f 	bfi	w15, w17, #8, #8
   83a50:	39400d91 	ldrb	w17, [x12, #3]
   83a54:	33181e50 	bfi	w16, w18, #8, #8
   83a58:	39400592 	ldrb	w18, [x12, #1]
   83a5c:	33103df0 	bfi	w16, w15, #16, #16
   83a60:	3940018f 	ldrb	w15, [x12]
   83a64:	b3781e23 	bfi	x3, x17, #8, #8
   83a68:	b3781e4f 	bfi	x15, x18, #8, #8
   83a6c:	b3703c6f 	bfi	x15, x3, #16, #16
   83a70:	b3607e0f 	bfi	x15, x16, #32, #32
   83a74:	aa0c03f0 	mov	x16, x12
   83a78:	f90063ef 	str	x15, [sp, #192]
   83a7c:	38408e0f 	ldrb	w15, [x16, #8]!
   83a80:	39400e11 	ldrb	w17, [x16, #3]
   83a84:	39400a12 	ldrb	w18, [x16, #2]
   83a88:	38404e03 	ldrb	w3, [x16, #4]!
   83a8c:	39400e04 	ldrb	w4, [x16, #3]
   83a90:	39400a10 	ldrb	w16, [x16, #2]
   83a94:	b3781e32 	bfi	x18, x17, #8, #8
   83a98:	39403585 	ldrb	w5, [x12, #13]
   83a9c:	33181c90 	bfi	w16, w4, #8, #8
   83aa0:	33181ca3 	bfi	w3, w5, #8, #8
   83aa4:	33103e03 	bfi	w3, w16, #16, #16
   83aa8:	39402590 	ldrb	w16, [x12, #9]
   83aac:	9100818c 	add	x12, x12, #0x20
   83ab0:	b3781e0f 	bfi	x15, x16, #8, #8
   83ab4:	b3703e4f 	bfi	x15, x18, #16, #16
   83ab8:	b3607c6f 	bfi	x15, x3, #32, #32
   83abc:	f90067ef 	str	x15, [sp, #200]
   83ac0:	aa0e03ef 	mov	x15, x14
   83ac4:	ad4603e1 	ldp	q1, q0, [sp, #192]
   83ac8:	3d803fe0 	str	q0, [sp, #240]
   83acc:	f9407bf0 	ldr	x16, [sp, #240]
   83ad0:	381f0df0 	strb	w16, [x15, #-16]!
   83ad4:	f9407ff1 	ldr	x17, [sp, #248]
   83ad8:	d358fe12 	lsr	x18, x16, #24
   83adc:	d350fe03 	lsr	x3, x16, #16
   83ae0:	d368fe04 	lsr	x4, x16, #40
   83ae4:	d368fe25 	lsr	x5, x17, #40
   83ae8:	39000df2 	strb	w18, [x15, #3]
   83aec:	d348fe32 	lsr	x18, x17, #8
   83af0:	390009e3 	strb	w3, [x15, #2]
   83af4:	d360fe03 	lsr	x3, x16, #32
   83af8:	381f51c4 	sturb	w4, [x14, #-11]
   83afc:	390035e5 	strb	w5, [x15, #13]
   83b00:	d348fe05 	lsr	x5, x16, #8
   83b04:	390025f2 	strb	w18, [x15, #9]
   83b08:	aa0f03f2 	mov	x18, x15
   83b0c:	38004de3 	strb	w3, [x15, #4]!
   83b10:	d378fe03 	lsr	x3, x16, #56
   83b14:	d358fe24 	lsr	x4, x17, #24
   83b18:	381f11c5 	sturb	w5, [x14, #-15]
   83b1c:	d350fe25 	lsr	x5, x17, #16
   83b20:	38008e51 	strb	w17, [x18, #8]!
   83b24:	39000e44 	strb	w4, [x18, #3]
   83b28:	d370fe10 	lsr	x16, x16, #48
   83b2c:	d360fe24 	lsr	x4, x17, #32
   83b30:	39000de3 	strb	w3, [x15, #3]
   83b34:	d378fe23 	lsr	x3, x17, #56
   83b38:	d370fe31 	lsr	x17, x17, #48
   83b3c:	39000a45 	strb	w5, [x18, #2]
   83b40:	390009f0 	strb	w16, [x15, #2]
   83b44:	aa0e03f0 	mov	x16, x14
   83b48:	38004e44 	strb	w4, [x18, #4]!
   83b4c:	39000e43 	strb	w3, [x18, #3]
   83b50:	39000a51 	strb	w17, [x18, #2]
   83b54:	3d803be1 	str	q1, [sp, #224]
   83b58:	f94073ef 	ldr	x15, [sp, #224]
   83b5c:	390001cf 	strb	w15, [x14]
   83b60:	f94077f1 	ldr	x17, [sp, #232]
   83b64:	d358fe32 	lsr	x18, x17, #24
   83b68:	d350fe23 	lsr	x3, x17, #16
   83b6c:	d360fe24 	lsr	x4, x17, #32
   83b70:	38008e11 	strb	w17, [x16, #8]!
   83b74:	39000e12 	strb	w18, [x16, #3]
   83b78:	d368fdf2 	lsr	x18, x15, #40
   83b7c:	39000a03 	strb	w3, [x16, #2]
   83b80:	d358fde3 	lsr	x3, x15, #24
   83b84:	38004e04 	strb	w4, [x16, #4]!
   83b88:	d350fde4 	lsr	x4, x15, #16
   83b8c:	390015d2 	strb	w18, [x14, #5]
   83b90:	d348fdf2 	lsr	x18, x15, #8
   83b94:	39000dc3 	strb	w3, [x14, #3]
   83b98:	d368fe23 	lsr	x3, x17, #40
   83b9c:	390009c4 	strb	w4, [x14, #2]
   83ba0:	d348fe24 	lsr	x4, x17, #8
   83ba4:	390005d2 	strb	w18, [x14, #1]
   83ba8:	d360fdf2 	lsr	x18, x15, #32
   83bac:	390035c3 	strb	w3, [x14, #13]
   83bb0:	910081c3 	add	x3, x14, #0x20
   83bb4:	390025c4 	strb	w4, [x14, #9]
   83bb8:	d378fde4 	lsr	x4, x15, #56
   83bbc:	d370fdef 	lsr	x15, x15, #48
   83bc0:	38004dd2 	strb	w18, [x14, #4]!
   83bc4:	39000dc4 	strb	w4, [x14, #3]
   83bc8:	d378fe32 	lsr	x18, x17, #56
   83bcc:	d370fe31 	lsr	x17, x17, #48
   83bd0:	390009cf 	strb	w15, [x14, #2]
   83bd4:	aa0303ee 	mov	x14, x3
   83bd8:	39000e12 	strb	w18, [x16, #3]
   83bdc:	39000a11 	strb	w17, [x16, #2]
   83be0:	54ffee21 	b.ne	839a4 <_ZN17compiler_builtins3mem6memcpy17h5498ba8912cb5f38E+0x88>  // b.any
   83be4:	eb0b013f 	cmp	x9, x11
   83be8:	54000560 	b.eq	83c94 <_ZN17compiler_builtins3mem6memcpy17h5498ba8912cb5f38E+0x378>  // b.none
   83bec:	f27d053f 	tst	x9, #0x18
   83bf0:	54000460 	b.eq	83c7c <_ZN17compiler_builtins3mem6memcpy17h5498ba8912cb5f38E+0x360>  // b.none
   83bf4:	927df12e 	and	x14, x9, #0xfffffffffffffff8
   83bf8:	8b0b002f 	add	x15, x1, x11
   83bfc:	8b0e000c 	add	x12, x0, x14
   83c00:	8b0e002d 	add	x13, x1, x14
   83c04:	8b0b0010 	add	x16, x0, x11
   83c08:	cb0e016b 	sub	x11, x11, x14
   83c0c:	aa0f03f1 	mov	x17, x15
   83c10:	394015f2 	ldrb	w18, [x15, #5]
   83c14:	394005e3 	ldrb	w3, [x15, #1]
   83c18:	b100216b 	adds	x11, x11, #0x8
   83c1c:	394009e6 	ldrb	w6, [x15, #2]
   83c20:	38404e24 	ldrb	w4, [x17, #4]!
   83c24:	39400a25 	ldrb	w5, [x17, #2]
   83c28:	39400e31 	ldrb	w17, [x17, #3]
   83c2c:	33181e44 	bfi	w4, w18, #8, #8
   83c30:	39400df3 	ldrb	w19, [x15, #3]
   83c34:	2a0503e7 	mov	w7, w5
   83c38:	33181e27 	bfi	w7, w17, #8, #8
   83c3c:	384085f4 	ldrb	w20, [x15], #8
   83c40:	39001612 	strb	w18, [x16, #5]
   83c44:	91002212 	add	x18, x16, #0x8
   83c48:	33103ce4 	bfi	w4, w7, #16, #16
   83c4c:	39000a06 	strb	w6, [x16, #2]
   83c50:	39000e13 	strb	w19, [x16, #3]
   83c54:	39000214 	strb	w20, [x16]
   83c58:	39000603 	strb	w3, [x16, #1]
   83c5c:	38004e04 	strb	w4, [x16, #4]!
   83c60:	39000a05 	strb	w5, [x16, #2]
   83c64:	39000e11 	strb	w17, [x16, #3]
   83c68:	aa1203f0 	mov	x16, x18
   83c6c:	54fffd01 	b.ne	83c0c <_ZN17compiler_builtins3mem6memcpy17h5498ba8912cb5f38E+0x2f0>  // b.any
   83c70:	eb0e013f 	cmp	x9, x14
   83c74:	54000081 	b.ne	83c84 <_ZN17compiler_builtins3mem6memcpy17h5498ba8912cb5f38E+0x368>  // b.any
   83c78:	14000007 	b	83c94 <_ZN17compiler_builtins3mem6memcpy17h5498ba8912cb5f38E+0x378>
   83c7c:	8b0b002d 	add	x13, x1, x11
   83c80:	8b0b000c 	add	x12, x0, x11
   83c84:	384015a9 	ldrb	w9, [x13], #1
   83c88:	38001589 	strb	w9, [x12], #1
   83c8c:	eb08019f 	cmp	x12, x8
   83c90:	54ffffa3 	b.cc	83c84 <_ZN17compiler_builtins3mem6memcpy17h5498ba8912cb5f38E+0x368>  // b.lo, b.ul, b.last
   83c94:	cb0a004b 	sub	x11, x2, x10
   83c98:	8b0a002d 	add	x13, x1, x10
   83c9c:	927df16c 	and	x12, x11, #0xfffffffffffffff8
   83ca0:	f24009bf 	tst	x13, #0x7
   83ca4:	8b0c0109 	add	x9, x8, x12
   83ca8:	54000200 	b.eq	83ce8 <_ZN17compiler_builtins3mem6memcpy17h5498ba8912cb5f38E+0x3cc>  // b.none
   83cac:	f100059f 	cmp	x12, #0x1
   83cb0:	540017ab 	b.lt	83fa4 <_ZN17compiler_builtins3mem6memcpy17h5498ba8912cb5f38E+0x688>  // b.tstop
   83cb4:	8b00018f 	add	x15, x12, x0
   83cb8:	8b00014e 	add	x14, x10, x0
   83cbc:	8b0a01ef 	add	x15, x15, x10
   83cc0:	910021d0 	add	x16, x14, #0x8
   83cc4:	eb1001ff 	cmp	x15, x16
   83cc8:	9a9081ef 	csel	x15, x15, x16, hi  // hi = pmore
   83ccc:	aa2003f0 	mvn	x16, x0
   83cd0:	8b1001ef 	add	x15, x15, x16
   83cd4:	cb0a01ef 	sub	x15, x15, x10
   83cd8:	f100a1ff 	cmp	x15, #0x28
   83cdc:	54000242 	b.cs	83d24 <_ZN17compiler_builtins3mem6memcpy17h5498ba8912cb5f38E+0x408>  // b.hs, b.nlast
   83ce0:	aa0d03ee 	mov	x14, x13
   83ce4:	14000073 	b	83eb0 <_ZN17compiler_builtins3mem6memcpy17h5498ba8912cb5f38E+0x594>
   83ce8:	f100059f 	cmp	x12, #0x1
   83cec:	540015cb 	b.lt	83fa4 <_ZN17compiler_builtins3mem6memcpy17h5498ba8912cb5f38E+0x688>  // b.tstop
   83cf0:	8b00018f 	add	x15, x12, x0
   83cf4:	8b00014e 	add	x14, x10, x0
   83cf8:	8b0a01ef 	add	x15, x15, x10
   83cfc:	910021d0 	add	x16, x14, #0x8
   83d00:	eb1001ff 	cmp	x15, x16
   83d04:	9a9081ef 	csel	x15, x15, x16, hi  // hi = pmore
   83d08:	aa2003f0 	mvn	x16, x0
   83d0c:	8b1001ef 	add	x15, x15, x16
   83d10:	cb0a01ef 	sub	x15, x15, x10
   83d14:	f100a1ff 	cmp	x15, #0x28
   83d18:	54000f42 	b.cs	83f00 <_ZN17compiler_builtins3mem6memcpy17h5498ba8912cb5f38E+0x5e4>  // b.hs, b.nlast
   83d1c:	aa0d03ee 	mov	x14, x13
   83d20:	1400009d 	b	83f94 <_ZN17compiler_builtins3mem6memcpy17h5498ba8912cb5f38E+0x678>
   83d24:	cb0d01d0 	sub	x16, x14, x13
   83d28:	aa0d03ee 	mov	x14, x13
   83d2c:	f100821f 	cmp	x16, #0x20
   83d30:	54000c03 	b.cc	83eb0 <_ZN17compiler_builtins3mem6memcpy17h5498ba8912cb5f38E+0x594>  // b.lo, b.ul, b.last
   83d34:	d343fdee 	lsr	x14, x15, #3
   83d38:	b27c0151 	orr	x17, x10, #0x10
   83d3c:	910005cf 	add	x15, x14, #0x1
   83d40:	8b11002a 	add	x10, x1, x17
   83d44:	927eedf0 	and	x16, x15, #0x3ffffffffffffffc
   83d48:	8b110011 	add	x17, x0, x17
   83d4c:	d37df20e 	lsl	x14, x16, #3
   83d50:	aa1003f2 	mov	x18, x16
   83d54:	8b0e0108 	add	x8, x8, x14
   83d58:	8b0e01ae 	add	x14, x13, x14
   83d5c:	aa0a03e1 	mov	x1, x10
   83d60:	385f5146 	ldurb	w6, [x10, #-11]
   83d64:	f1001252 	subs	x18, x18, #0x4
   83d68:	385f0c22 	ldrb	w2, [x1, #-16]!
   83d6c:	aa0103e3 	mov	x3, x1
   83d70:	39400827 	ldrb	w7, [x1, #2]
   83d74:	38404c64 	ldrb	w4, [x3, #4]!
   83d78:	39400c65 	ldrb	w5, [x3, #3]
   83d7c:	39400863 	ldrb	w3, [x3, #2]
   83d80:	33181cc4 	bfi	w4, w6, #8, #8
   83d84:	33181ca3 	bfi	w3, w5, #8, #8
   83d88:	39400c25 	ldrb	w5, [x1, #3]
   83d8c:	33103c64 	bfi	w4, w3, #16, #16
   83d90:	385f1143 	ldurb	w3, [x10, #-15]
   83d94:	b3781ca7 	bfi	x7, x5, #8, #8
   83d98:	b3781c62 	bfi	x2, x3, #8, #8
   83d9c:	aa0103e3 	mov	x3, x1
   83da0:	b3703ce2 	bfi	x2, x7, #16, #16
   83da4:	b3607c82 	bfi	x2, x4, #32, #32
   83da8:	f9004be2 	str	x2, [sp, #144]
   83dac:	38408c62 	ldrb	w2, [x3, #8]!
   83db0:	39400c64 	ldrb	w4, [x3, #3]
   83db4:	39400865 	ldrb	w5, [x3, #2]
   83db8:	38404c66 	ldrb	w6, [x3, #4]!
   83dbc:	39400c67 	ldrb	w7, [x3, #3]
   83dc0:	39400863 	ldrb	w3, [x3, #2]
   83dc4:	b3781c85 	bfi	x5, x4, #8, #8
   83dc8:	39403433 	ldrb	w19, [x1, #13]
   83dcc:	39402421 	ldrb	w1, [x1, #9]
   83dd0:	33181ce3 	bfi	w3, w7, #8, #8
   83dd4:	33181e66 	bfi	w6, w19, #8, #8
   83dd8:	b3781c22 	bfi	x2, x1, #8, #8
   83ddc:	aa0a03e1 	mov	x1, x10
   83de0:	33103c66 	bfi	w6, w3, #16, #16
   83de4:	b3703ca2 	bfi	x2, x5, #16, #16
   83de8:	b3607cc2 	bfi	x2, x6, #32, #32
   83dec:	f9004fe2 	str	x2, [sp, #152]
   83df0:	38404c22 	ldrb	w2, [x1, #4]!
   83df4:	39400c23 	ldrb	w3, [x1, #3]
   83df8:	39400821 	ldrb	w1, [x1, #2]
   83dfc:	39401544 	ldrb	w4, [x10, #5]
   83e00:	39400945 	ldrb	w5, [x10, #2]
   83e04:	33181c61 	bfi	w1, w3, #8, #8
   83e08:	39400d43 	ldrb	w3, [x10, #3]
   83e0c:	33181c82 	bfi	w2, w4, #8, #8
   83e10:	39400544 	ldrb	w4, [x10, #1]
   83e14:	33103c22 	bfi	w2, w1, #16, #16
   83e18:	39400141 	ldrb	w1, [x10]
   83e1c:	b3781c65 	bfi	x5, x3, #8, #8
   83e20:	b3781c81 	bfi	x1, x4, #8, #8
   83e24:	b3703ca1 	bfi	x1, x5, #16, #16
   83e28:	b3607c41 	bfi	x1, x2, #32, #32
   83e2c:	aa0a03e2 	mov	x2, x10
   83e30:	f90043e1 	str	x1, [sp, #128]
   83e34:	38408c41 	ldrb	w1, [x2, #8]!
   83e38:	39400c43 	ldrb	w3, [x2, #3]
   83e3c:	39400844 	ldrb	w4, [x2, #2]
   83e40:	38404c45 	ldrb	w5, [x2, #4]!
   83e44:	39400c46 	ldrb	w6, [x2, #3]
   83e48:	39400842 	ldrb	w2, [x2, #2]
   83e4c:	b3781c64 	bfi	x4, x3, #8, #8
   83e50:	39403547 	ldrb	w7, [x10, #13]
   83e54:	33181cc2 	bfi	w2, w6, #8, #8
   83e58:	33181ce5 	bfi	w5, w7, #8, #8
   83e5c:	33103c45 	bfi	w5, w2, #16, #16
   83e60:	39402542 	ldrb	w2, [x10, #9]
   83e64:	9100814a 	add	x10, x10, #0x20
   83e68:	b3781c41 	bfi	x1, x2, #8, #8
   83e6c:	b3703c81 	bfi	x1, x4, #16, #16
   83e70:	b3607ca1 	bfi	x1, x5, #32, #32
   83e74:	f90047e1 	str	x1, [sp, #136]
   83e78:	ad4403e1 	ldp	q1, q0, [sp, #128]
   83e7c:	3d802fe0 	str	q0, [sp, #176]
   83e80:	f9405fe1 	ldr	x1, [sp, #184]
   83e84:	f81f8221 	stur	x1, [x17, #-8]
   83e88:	f9405be1 	ldr	x1, [sp, #176]
   83e8c:	f81f0221 	stur	x1, [x17, #-16]
   83e90:	3d802be1 	str	q1, [sp, #160]
   83e94:	f94057e1 	ldr	x1, [sp, #168]
   83e98:	f9000621 	str	x1, [x17, #8]
   83e9c:	f94053e1 	ldr	x1, [sp, #160]
   83ea0:	f8020621 	str	x1, [x17], #32
   83ea4:	54fff5c1 	b.ne	83d5c <_ZN17compiler_builtins3mem6memcpy17h5498ba8912cb5f38E+0x440>  // b.any
   83ea8:	eb1001ff 	cmp	x15, x16
   83eac:	540007c0 	b.eq	83fa4 <_ZN17compiler_builtins3mem6memcpy17h5498ba8912cb5f38E+0x688>  // b.none
   83eb0:	aa0e03ea 	mov	x10, x14
   83eb4:	394015d1 	ldrb	w17, [x14, #5]
   83eb8:	394009d2 	ldrb	w18, [x14, #2]
   83ebc:	38404d4f 	ldrb	w15, [x10, #4]!
   83ec0:	39400d50 	ldrb	w16, [x10, #3]
   83ec4:	3940094a 	ldrb	w10, [x10, #2]
   83ec8:	33181e2f 	bfi	w15, w17, #8, #8
   83ecc:	394005d1 	ldrb	w17, [x14, #1]
   83ed0:	33181e0a 	bfi	w10, w16, #8, #8
   83ed4:	39400dd0 	ldrb	w16, [x14, #3]
   83ed8:	33103d4f 	bfi	w15, w10, #16, #16
   83edc:	b3781e12 	bfi	x18, x16, #8, #8
   83ee0:	384085ca 	ldrb	w10, [x14], #8
   83ee4:	b3781e2a 	bfi	x10, x17, #8, #8
   83ee8:	b3703e4a 	bfi	x10, x18, #16, #16
   83eec:	b3607dea 	bfi	x10, x15, #32, #32
   83ef0:	f800850a 	str	x10, [x8], #8
   83ef4:	eb09011f 	cmp	x8, x9
   83ef8:	54fffdc3 	b.cc	83eb0 <_ZN17compiler_builtins3mem6memcpy17h5498ba8912cb5f38E+0x594>  // b.lo, b.ul, b.last
   83efc:	1400002a 	b	83fa4 <_ZN17compiler_builtins3mem6memcpy17h5498ba8912cb5f38E+0x688>
   83f00:	cb0d01d0 	sub	x16, x14, x13
   83f04:	aa0d03ee 	mov	x14, x13
   83f08:	f100821f 	cmp	x16, #0x20
   83f0c:	54000443 	b.cc	83f94 <_ZN17compiler_builtins3mem6memcpy17h5498ba8912cb5f38E+0x678>  // b.lo, b.ul, b.last
   83f10:	d343fdee 	lsr	x14, x15, #3
   83f14:	b27c0151 	orr	x17, x10, #0x10
   83f18:	910005cf 	add	x15, x14, #0x1
   83f1c:	8b11002a 	add	x10, x1, x17
   83f20:	927eedf0 	and	x16, x15, #0x3ffffffffffffffc
   83f24:	8b110011 	add	x17, x0, x17
   83f28:	d37df20e 	lsl	x14, x16, #3
   83f2c:	aa1003f2 	mov	x18, x16
   83f30:	8b0e0108 	add	x8, x8, x14
   83f34:	8b0e01ae 	add	x14, x13, x14
   83f38:	f85f8141 	ldur	x1, [x10, #-8]
   83f3c:	f1001252 	subs	x18, x18, #0x4
   83f40:	f9002fe1 	str	x1, [sp, #88]
   83f44:	f85f0141 	ldur	x1, [x10, #-16]
   83f48:	f9002be1 	str	x1, [sp, #80]
   83f4c:	f9400541 	ldr	x1, [x10, #8]
   83f50:	f90027e1 	str	x1, [sp, #72]
   83f54:	f8420541 	ldr	x1, [x10], #32
   83f58:	f90023e1 	str	x1, [sp, #64]
   83f5c:	ad4203e1 	ldp	q1, q0, [sp, #64]
   83f60:	3d801fe0 	str	q0, [sp, #112]
   83f64:	f9403fe1 	ldr	x1, [sp, #120]
   83f68:	f81f8221 	stur	x1, [x17, #-8]
   83f6c:	f9403be1 	ldr	x1, [sp, #112]
   83f70:	f81f0221 	stur	x1, [x17, #-16]
   83f74:	3d801be1 	str	q1, [sp, #96]
   83f78:	f94037e1 	ldr	x1, [sp, #104]
   83f7c:	f9000621 	str	x1, [x17, #8]
   83f80:	f94033e1 	ldr	x1, [sp, #96]
   83f84:	f8020621 	str	x1, [x17], #32
   83f88:	54fffd81 	b.ne	83f38 <_ZN17compiler_builtins3mem6memcpy17h5498ba8912cb5f38E+0x61c>  // b.any
   83f8c:	eb1001ff 	cmp	x15, x16
   83f90:	540000a0 	b.eq	83fa4 <_ZN17compiler_builtins3mem6memcpy17h5498ba8912cb5f38E+0x688>  // b.none
   83f94:	f84085ca 	ldr	x10, [x14], #8
   83f98:	f800850a 	str	x10, [x8], #8
   83f9c:	eb09011f 	cmp	x8, x9
   83fa0:	54ffffa3 	b.cc	83f94 <_ZN17compiler_builtins3mem6memcpy17h5498ba8912cb5f38E+0x678>  // b.lo, b.ul, b.last
   83fa4:	8b0c01a1 	add	x1, x13, x12
   83fa8:	92400962 	and	x2, x11, #0x7
   83fac:	b4001a42 	cbz	x2, 842f4 <_ZN17compiler_builtins3mem6memcpy17h5498ba8912cb5f38E+0x9d8>
   83fb0:	8b090048 	add	x8, x2, x9
   83fb4:	9100052a 	add	x10, x9, #0x1
   83fb8:	eb0a011f 	cmp	x8, x10
   83fbc:	9a898508 	csinc	x8, x8, x9, hi  // hi = pmore
   83fc0:	cb090108 	sub	x8, x8, x9
   83fc4:	f100211f 	cmp	x8, #0x8
   83fc8:	54000103 	b.cc	83fe8 <_ZN17compiler_builtins3mem6memcpy17h5498ba8912cb5f38E+0x6cc>  // b.lo, b.ul, b.last
   83fcc:	cb01012a 	sub	x10, x9, x1
   83fd0:	f100815f 	cmp	x10, #0x20
   83fd4:	540000a3 	b.cc	83fe8 <_ZN17compiler_builtins3mem6memcpy17h5498ba8912cb5f38E+0x6cc>  // b.lo, b.ul, b.last
   83fd8:	f100811f 	cmp	x8, #0x20
   83fdc:	540000a2 	b.cs	83ff0 <_ZN17compiler_builtins3mem6memcpy17h5498ba8912cb5f38E+0x6d4>  // b.hs, b.nlast
   83fe0:	aa1f03ea 	mov	x10, xzr
   83fe4:	1400009b 	b	84250 <_ZN17compiler_builtins3mem6memcpy17h5498ba8912cb5f38E+0x934>
   83fe8:	aa0903eb 	mov	x11, x9
   83fec:	140000bd 	b	842e0 <_ZN17compiler_builtins3mem6memcpy17h5498ba8912cb5f38E+0x9c4>
   83ff0:	927be90a 	and	x10, x8, #0xffffffffffffffe0
   83ff4:	9100402b 	add	x11, x1, #0x10
   83ff8:	9100412d 	add	x13, x9, #0x10
   83ffc:	aa0a03ec 	mov	x12, x10
   84000:	aa0b03ee 	mov	x14, x11
   84004:	385f5163 	ldurb	w3, [x11, #-11]
   84008:	f100818c 	subs	x12, x12, #0x20
   8400c:	385f0dcf 	ldrb	w15, [x14, #-16]!
   84010:	aa0e03f0 	mov	x16, x14
   84014:	394009c4 	ldrb	w4, [x14, #2]
   84018:	38404e11 	ldrb	w17, [x16, #4]!
   8401c:	39400e12 	ldrb	w18, [x16, #3]
   84020:	39400a10 	ldrb	w16, [x16, #2]
   84024:	33181c71 	bfi	w17, w3, #8, #8
   84028:	33181e50 	bfi	w16, w18, #8, #8
   8402c:	39400dd2 	ldrb	w18, [x14, #3]
   84030:	33103e11 	bfi	w17, w16, #16, #16
   84034:	385f1170 	ldurb	w16, [x11, #-15]
   84038:	b3781e44 	bfi	x4, x18, #8, #8
   8403c:	b3781e0f 	bfi	x15, x16, #8, #8
   84040:	aa0e03f0 	mov	x16, x14
   84044:	b3703c8f 	bfi	x15, x4, #16, #16
   84048:	b3607e2f 	bfi	x15, x17, #32, #32
   8404c:	f9000bef 	str	x15, [sp, #16]
   84050:	38408e0f 	ldrb	w15, [x16, #8]!
   84054:	39400e11 	ldrb	w17, [x16, #3]
   84058:	39400a12 	ldrb	w18, [x16, #2]
   8405c:	38404e03 	ldrb	w3, [x16, #4]!
   84060:	39400e04 	ldrb	w4, [x16, #3]
   84064:	39400a10 	ldrb	w16, [x16, #2]
   84068:	b3781e32 	bfi	x18, x17, #8, #8
   8406c:	394035c5 	ldrb	w5, [x14, #13]
   84070:	394025ce 	ldrb	w14, [x14, #9]
   84074:	33181c90 	bfi	w16, w4, #8, #8
   84078:	33181ca3 	bfi	w3, w5, #8, #8
   8407c:	b3781dcf 	bfi	x15, x14, #8, #8
   84080:	aa0b03ee 	mov	x14, x11
   84084:	33103e03 	bfi	w3, w16, #16, #16
   84088:	b3703e4f 	bfi	x15, x18, #16, #16
   8408c:	b3607c6f 	bfi	x15, x3, #32, #32
   84090:	f9000fef 	str	x15, [sp, #24]
   84094:	38404dcf 	ldrb	w15, [x14, #4]!
   84098:	39400dd0 	ldrb	w16, [x14, #3]
   8409c:	394009ce 	ldrb	w14, [x14, #2]
   840a0:	39401571 	ldrb	w17, [x11, #5]
   840a4:	39400972 	ldrb	w18, [x11, #2]
   840a8:	33181e0e 	bfi	w14, w16, #8, #8
   840ac:	39400d70 	ldrb	w16, [x11, #3]
   840b0:	33181e2f 	bfi	w15, w17, #8, #8
   840b4:	39400571 	ldrb	w17, [x11, #1]
   840b8:	33103dcf 	bfi	w15, w14, #16, #16
   840bc:	3940016e 	ldrb	w14, [x11]
   840c0:	b3781e12 	bfi	x18, x16, #8, #8
   840c4:	b3781e2e 	bfi	x14, x17, #8, #8
   840c8:	b3703e4e 	bfi	x14, x18, #16, #16
   840cc:	b3607dee 	bfi	x14, x15, #32, #32
   840d0:	aa0b03ef 	mov	x15, x11
   840d4:	f90003ee 	str	x14, [sp]
   840d8:	38408dee 	ldrb	w14, [x15, #8]!
   840dc:	39400df0 	ldrb	w16, [x15, #3]
   840e0:	394009f1 	ldrb	w17, [x15, #2]
   840e4:	38404df2 	ldrb	w18, [x15, #4]!
   840e8:	39400de3 	ldrb	w3, [x15, #3]
   840ec:	394009ef 	ldrb	w15, [x15, #2]
   840f0:	b3781e11 	bfi	x17, x16, #8, #8
   840f4:	39403564 	ldrb	w4, [x11, #13]
   840f8:	33181c6f 	bfi	w15, w3, #8, #8
   840fc:	33181c92 	bfi	w18, w4, #8, #8
   84100:	33103df2 	bfi	w18, w15, #16, #16
   84104:	3940256f 	ldrb	w15, [x11, #9]
   84108:	9100816b 	add	x11, x11, #0x20
   8410c:	b3781dee 	bfi	x14, x15, #8, #8
   84110:	b3703e2e 	bfi	x14, x17, #16, #16
   84114:	b3607e4e 	bfi	x14, x18, #32, #32
   84118:	f90007ee 	str	x14, [sp, #8]
   8411c:	aa0d03ee 	mov	x14, x13
   84120:	ad4003e1 	ldp	q1, q0, [sp]
   84124:	3d800fe0 	str	q0, [sp, #48]
   84128:	f9401bef 	ldr	x15, [sp, #48]
   8412c:	381f0dcf 	strb	w15, [x14, #-16]!
   84130:	f9401ff0 	ldr	x16, [sp, #56]
   84134:	d358fdf1 	lsr	x17, x15, #24
   84138:	d350fdf2 	lsr	x18, x15, #16
   8413c:	d368fde3 	lsr	x3, x15, #40
   84140:	d368fe04 	lsr	x4, x16, #40
   84144:	39000dd1 	strb	w17, [x14, #3]
   84148:	d348fe11 	lsr	x17, x16, #8
   8414c:	390009d2 	strb	w18, [x14, #2]
   84150:	d360fdf2 	lsr	x18, x15, #32
   84154:	381f51a3 	sturb	w3, [x13, #-11]
   84158:	390035c4 	strb	w4, [x14, #13]
   8415c:	d348fde4 	lsr	x4, x15, #8
   84160:	390025d1 	strb	w17, [x14, #9]
   84164:	aa0e03f1 	mov	x17, x14
   84168:	38004dd2 	strb	w18, [x14, #4]!
   8416c:	d378fdf2 	lsr	x18, x15, #56
   84170:	d358fe03 	lsr	x3, x16, #24
   84174:	381f11a4 	sturb	w4, [x13, #-15]
   84178:	d350fe04 	lsr	x4, x16, #16
   8417c:	38008e30 	strb	w16, [x17, #8]!
   84180:	39000e23 	strb	w3, [x17, #3]
   84184:	d370fdef 	lsr	x15, x15, #48
   84188:	d360fe03 	lsr	x3, x16, #32
   8418c:	39000dd2 	strb	w18, [x14, #3]
   84190:	d378fe12 	lsr	x18, x16, #56
   84194:	d370fe10 	lsr	x16, x16, #48
   84198:	39000a24 	strb	w4, [x17, #2]
   8419c:	390009cf 	strb	w15, [x14, #2]
   841a0:	aa0d03ef 	mov	x15, x13
   841a4:	38004e23 	strb	w3, [x17, #4]!
   841a8:	39000e32 	strb	w18, [x17, #3]
   841ac:	39000a30 	strb	w16, [x17, #2]
   841b0:	3d800be1 	str	q1, [sp, #32]
   841b4:	f94013ee 	ldr	x14, [sp, #32]
   841b8:	390001ae 	strb	w14, [x13]
   841bc:	f94017f0 	ldr	x16, [sp, #40]
   841c0:	d358fe11 	lsr	x17, x16, #24
   841c4:	d350fe12 	lsr	x18, x16, #16
   841c8:	d360fe03 	lsr	x3, x16, #32
   841cc:	38008df0 	strb	w16, [x15, #8]!
   841d0:	39000df1 	strb	w17, [x15, #3]
   841d4:	d368fdd1 	lsr	x17, x14, #40
   841d8:	390009f2 	strb	w18, [x15, #2]
   841dc:	d358fdd2 	lsr	x18, x14, #24
   841e0:	38004de3 	strb	w3, [x15, #4]!
   841e4:	d350fdc3 	lsr	x3, x14, #16
   841e8:	390015b1 	strb	w17, [x13, #5]
   841ec:	d348fdd1 	lsr	x17, x14, #8
   841f0:	39000db2 	strb	w18, [x13, #3]
   841f4:	d368fe12 	lsr	x18, x16, #40
   841f8:	390009a3 	strb	w3, [x13, #2]
   841fc:	d348fe03 	lsr	x3, x16, #8
   84200:	390005b1 	strb	w17, [x13, #1]
   84204:	d360fdd1 	lsr	x17, x14, #32
   84208:	390035b2 	strb	w18, [x13, #13]
   8420c:	910081b2 	add	x18, x13, #0x20
   84210:	390025a3 	strb	w3, [x13, #9]
   84214:	d378fdc3 	lsr	x3, x14, #56
   84218:	d370fdce 	lsr	x14, x14, #48
   8421c:	38004db1 	strb	w17, [x13, #4]!
   84220:	39000da3 	strb	w3, [x13, #3]
   84224:	d378fe11 	lsr	x17, x16, #56
   84228:	d370fe10 	lsr	x16, x16, #48
   8422c:	390009ae 	strb	w14, [x13, #2]
   84230:	aa1203ed 	mov	x13, x18
   84234:	39000df1 	strb	w17, [x15, #3]
   84238:	390009f0 	strb	w16, [x15, #2]
   8423c:	54ffee21 	b.ne	84000 <_ZN17compiler_builtins3mem6memcpy17h5498ba8912cb5f38E+0x6e4>  // b.any
   84240:	eb0a011f 	cmp	x8, x10
   84244:	54000580 	b.eq	842f4 <_ZN17compiler_builtins3mem6memcpy17h5498ba8912cb5f38E+0x9d8>  // b.none
   84248:	f27d051f 	tst	x8, #0x18
   8424c:	54000460 	b.eq	842d8 <_ZN17compiler_builtins3mem6memcpy17h5498ba8912cb5f38E+0x9bc>  // b.none
   84250:	927df10c 	and	x12, x8, #0xfffffffffffffff8
   84254:	8b0a002d 	add	x13, x1, x10
   84258:	8b0c012b 	add	x11, x9, x12
   8425c:	8b0c0021 	add	x1, x1, x12
   84260:	8b0a012e 	add	x14, x9, x10
   84264:	cb0c014a 	sub	x10, x10, x12
   84268:	aa0d03ef 	mov	x15, x13
   8426c:	394015b0 	ldrb	w16, [x13, #5]
   84270:	394005b1 	ldrb	w17, [x13, #1]
   84274:	b100214a 	adds	x10, x10, #0x8
   84278:	394009a4 	ldrb	w4, [x13, #2]
   8427c:	38404df2 	ldrb	w18, [x15, #4]!
   84280:	394009e3 	ldrb	w3, [x15, #2]
   84284:	39400def 	ldrb	w15, [x15, #3]
   84288:	33181e12 	bfi	w18, w16, #8, #8
   8428c:	39400da6 	ldrb	w6, [x13, #3]
   84290:	2a0303e5 	mov	w5, w3
   84294:	33181de5 	bfi	w5, w15, #8, #8
   84298:	384085a7 	ldrb	w7, [x13], #8
   8429c:	390015d0 	strb	w16, [x14, #5]
   842a0:	910021d0 	add	x16, x14, #0x8
   842a4:	33103cb2 	bfi	w18, w5, #16, #16
   842a8:	390009c4 	strb	w4, [x14, #2]
   842ac:	39000dc6 	strb	w6, [x14, #3]
   842b0:	390001c7 	strb	w7, [x14]
   842b4:	390005d1 	strb	w17, [x14, #1]
   842b8:	38004dd2 	strb	w18, [x14, #4]!
   842bc:	390009c3 	strb	w3, [x14, #2]
   842c0:	39000dcf 	strb	w15, [x14, #3]
   842c4:	aa1003ee 	mov	x14, x16
   842c8:	54fffd01 	b.ne	84268 <_ZN17compiler_builtins3mem6memcpy17h5498ba8912cb5f38E+0x94c>  // b.any
   842cc:	eb0c011f 	cmp	x8, x12
   842d0:	54000081 	b.ne	842e0 <_ZN17compiler_builtins3mem6memcpy17h5498ba8912cb5f38E+0x9c4>  // b.any
   842d4:	14000008 	b	842f4 <_ZN17compiler_builtins3mem6memcpy17h5498ba8912cb5f38E+0x9d8>
   842d8:	8b0a0021 	add	x1, x1, x10
   842dc:	8b0a012b 	add	x11, x9, x10
   842e0:	8b020128 	add	x8, x9, x2
   842e4:	38401429 	ldrb	w9, [x1], #1
   842e8:	38001569 	strb	w9, [x11], #1
   842ec:	eb08017f 	cmp	x11, x8
   842f0:	54ffffa3 	b.cc	842e4 <_ZN17compiler_builtins3mem6memcpy17h5498ba8912cb5f38E+0x9c8>  // b.lo, b.ul, b.last
   842f4:	a9514ff4 	ldp	x20, x19, [sp, #272]
   842f8:	f94083fd 	ldr	x29, [sp, #256]
   842fc:	910483ff 	add	sp, sp, #0x120
   84300:	d65f03c0 	ret
