aarch64-none-elf-objdump --disassemble-all target/aarch64-unknown-none/release/graph_os

target/aarch64-unknown-none/release/graph_os:     file format elf64-littleaarch64


Disassembly of section .text:

0000000000080000 <_start>:
   80000:	d53800a1 	mrs	x1, mpidr_el1
   80004:	92400421 	and	x1, x1, #0x3
   80008:	b4000061 	cbz	x1, 80014 <_start+0x14>
   8000c:	d503205f 	wfe
   80010:	17ffffff 	b	8000c <_start+0xc>
   80014:	d5384240 	mrs	x0, currentel
   80018:	927e0400 	and	x0, x0, #0xc
   8001c:	f100301f 	cmp	x0, #0xc
   80020:	54000101 	b.ne	80040 <_start+0x40>  // b.any
   80024:	d280b622 	mov	x2, #0x5b1                 	// #1457
   80028:	d51e1102 	msr	scr_el3, x2
   8002c:	d2807922 	mov	x2, #0x3c9                 	// #969
   80030:	d51e4002 	msr	spsr_el3, x2
   80034:	10000062 	adr	x2, 80040 <_start+0x40>
   80038:	d51e4022 	msr	elr_el3, x2
   8003c:	d69f03e0 	eret
   80040:	f100101f 	cmp	x0, #0x4
   80044:	54000220 	b.eq	80088 <_start+0x88>  // b.none
   80048:	d53ce100 	mrs	x0, cnthctl_el2
   8004c:	b2400400 	orr	x0, x0, #0x3
   80050:	d51ce100 	msr	cnthctl_el2, x0
   80054:	d51ce07f 	msr	cntvoff_el2, xzr
   80058:	d2a00600 	mov	x0, #0x300000              	// #3145728
   8005c:	d51c1140 	msr	cptr_el2, x0
   80060:	d5181040 	msr	cpacr_el1, x0
   80064:	d2b00000 	mov	x0, #0x80000000            	// #2147483648
   80068:	b27f0000 	orr	x0, x0, #0x2
   8006c:	d51c1100 	msr	hcr_el2, x0
   80070:	d53c1100 	mrs	x0, hcr_el2
   80074:	d2807882 	mov	x2, #0x3c4                 	// #964
   80078:	d51c4002 	msr	spsr_el2, x2
   8007c:	10000062 	adr	x2, 80088 <_start+0x88>
   80080:	d51c4022 	msr	elr_el2, x2
   80084:	d69f03e0 	eret
   80088:	58000200 	ldr	x0, 800c8 <_start+0xc8>
   8008c:	9100001f 	mov	sp, x0
   80090:	58000201 	ldr	x1, 800d0 <_start+0xd0>
   80094:	18000222 	ldr	w2, 800d8 <_start+0xd8>
   80098:	34000082 	cbz	w2, 800a8 <_start+0xa8>
   8009c:	f800843f 	str	xzr, [x1], #8
   800a0:	51000442 	sub	w2, w2, #0x1
   800a4:	35ffff62 	cbnz	w2, 80090 <_start+0x90>
   800a8:	580001c0 	ldr	x0, 800e0 <_start+0xe0>
   800ac:	d518c000 	msr	vbar_el1, x0
   800b0:	580001c0 	ldr	x0, 800e8 <_start+0xe8>
   800b4:	580001e1 	ldr	x1, 800f0 <_start+0xf0>
   800b8:	58000202 	ldr	x2, 800f8 <_start+0xf8>
   800bc:	58000223 	ldr	x3, 80100 <_start+0x100>
   800c0:	14000689 	b	81ae4 <main>
   800c4:	00000000 	udf	#0
   800c8:	00080000 	.inst	0x00080000 ; undefined
   800cc:	00000000 	udf	#0
   800d0:	000849f0 	.inst	0x000849f0 ; undefined
	...
   800e0:	00081000 	.inst	0x00081000 ; undefined
   800e4:	00000000 	udf	#0
   800e8:	00086010 	.inst	0x00086010 ; undefined
   800ec:	00000000 	udf	#0
   800f0:	00100000 	.inst	0x00100000 ; undefined
   800f4:	00000000 	udf	#0
   800f8:	00186010 	.inst	0x00186010 ; undefined
   800fc:	00000000 	udf	#0
   80100:	00085000 	.inst	0x00085000 ; undefined
   80104:	00000000 	udf	#0

0000000000080108 <_ZN4core3fmt5Write10write_char17he4458d32d3c8c3e1E.llvm.3186792272011239407>:
   80108:	d10043ff 	sub	sp, sp, #0x10
   8010c:	7102003f 	cmp	w1, #0x80
   80110:	b9000fff 	str	wzr, [sp, #12]
   80114:	54000082 	b.cs	80124 <_ZN4core3fmt5Write10write_char17he4458d32d3c8c3e1E.llvm.3186792272011239407+0x1c>  // b.hs, b.nlast
   80118:	5280002a 	mov	w10, #0x1                   	// #1
   8011c:	390033e1 	strb	w1, [sp, #12]
   80120:	14000025 	b	801b4 <_ZN4core3fmt5Write10write_char17he4458d32d3c8c3e1E.llvm.3186792272011239407+0xac>
   80124:	7120003f 	cmp	w1, #0x800
   80128:	54000122 	b.cs	8014c <_ZN4core3fmt5Write10write_char17he4458d32d3c8c3e1E.llvm.3186792272011239407+0x44>  // b.hs, b.nlast
   8012c:	53067c28 	lsr	w8, w1, #6
   80130:	52801009 	mov	w9, #0x80                  	// #128
   80134:	321a0508 	orr	w8, w8, #0xc0
   80138:	33001429 	bfxil	w9, w1, #0, #6
   8013c:	5280004a 	mov	w10, #0x2                   	// #2
   80140:	390033e8 	strb	w8, [sp, #12]
   80144:	390037e9 	strb	w9, [sp, #13]
   80148:	1400001b 	b	801b4 <_ZN4core3fmt5Write10write_char17he4458d32d3c8c3e1E.llvm.3186792272011239407+0xac>
   8014c:	7140403f 	cmp	w1, #0x10, lsl #12
   80150:	54000182 	b.cs	80180 <_ZN4core3fmt5Write10write_char17he4458d32d3c8c3e1E.llvm.3186792272011239407+0x78>  // b.hs, b.nlast
   80154:	530c7c28 	lsr	w8, w1, #12
   80158:	52801009 	mov	w9, #0x80                  	// #128
   8015c:	5280100b 	mov	w11, #0x80                  	// #128
   80160:	321b0908 	orr	w8, w8, #0xe0
   80164:	33062c29 	bfxil	w9, w1, #6, #6
   80168:	3300142b 	bfxil	w11, w1, #0, #6
   8016c:	5280006a 	mov	w10, #0x3                   	// #3
   80170:	390033e8 	strb	w8, [sp, #12]
   80174:	390037e9 	strb	w9, [sp, #13]
   80178:	39003beb 	strb	w11, [sp, #14]
   8017c:	1400000e 	b	801b4 <_ZN4core3fmt5Write10write_char17he4458d32d3c8c3e1E.llvm.3186792272011239407+0xac>
   80180:	52801e08 	mov	w8, #0xf0                  	// #240
   80184:	52801009 	mov	w9, #0x80                  	// #128
   80188:	5280100b 	mov	w11, #0x80                  	// #128
   8018c:	5280100c 	mov	w12, #0x80                  	// #128
   80190:	33125028 	bfxil	w8, w1, #18, #3
   80194:	330c4429 	bfxil	w9, w1, #12, #6
   80198:	33062c2b 	bfxil	w11, w1, #6, #6
   8019c:	3300142c 	bfxil	w12, w1, #0, #6
   801a0:	5280008a 	mov	w10, #0x4                   	// #4
   801a4:	390033e8 	strb	w8, [sp, #12]
   801a8:	390037e9 	strb	w9, [sp, #13]
   801ac:	39003beb 	strb	w11, [sp, #14]
   801b0:	39003fec 	strb	w12, [sp, #15]
   801b4:	528a0a88 	mov	w8, #0x5054                	// #20564
   801b8:	910033eb 	add	x11, sp, #0xc
   801bc:	72a00428 	movk	w8, #0x21, lsl #16
   801c0:	f9400409 	ldr	x9, [x0, #8]
   801c4:	8b0a016a 	add	x10, x11, x10
   801c8:	aa0b03ed 	mov	x13, x11
   801cc:	38c015ac 	ldrsb	w12, [x13], #1
   801d0:	12001d8e 	and	w14, w12, #0xff
   801d4:	37f8008c 	tbnz	w12, #31, 801e4 <_ZN4core3fmt5Write10write_char17he4458d32d3c8c3e1E.llvm.3186792272011239407+0xdc>
   801d8:	2a0e03ec 	mov	w12, w14
   801dc:	aa0d03eb 	mov	x11, x13
   801e0:	1400001b 	b	8024c <_ZN4core3fmt5Write10write_char17he4458d32d3c8c3e1E.llvm.3186792272011239407+0x144>
   801e4:	3940056c 	ldrb	w12, [x11, #1]
   801e8:	120011cd 	and	w13, w14, #0x1f
   801ec:	71037ddf 	cmp	w14, #0xdf
   801f0:	1200158c 	and	w12, w12, #0x3f
   801f4:	540001c9 	b.ls	8022c <_ZN4core3fmt5Write10write_char17he4458d32d3c8c3e1E.llvm.3186792272011239407+0x124>  // b.plast
   801f8:	3940096f 	ldrb	w15, [x11, #2]
   801fc:	7103c1df 	cmp	w14, #0xf0
   80200:	120015ef 	and	w15, w15, #0x3f
   80204:	331a158f 	bfi	w15, w12, #6, #6
   80208:	54000183 	b.cc	80238 <_ZN4core3fmt5Write10write_char17he4458d32d3c8c3e1E.llvm.3186792272011239407+0x130>  // b.lo, b.ul, b.last
   8020c:	39400d6c 	ldrb	w12, [x11, #3]
   80210:	1200158c 	and	w12, w12, #0x3f
   80214:	331a2dec 	bfi	w12, w15, #6, #12
   80218:	330e09ac 	bfi	w12, w13, #18, #3
   8021c:	7144419f 	cmp	w12, #0x110, lsl #12
   80220:	540002a0 	b.eq	80274 <_ZN4core3fmt5Write10write_char17he4458d32d3c8c3e1E.llvm.3186792272011239407+0x16c>  // b.none
   80224:	9100116b 	add	x11, x11, #0x4
   80228:	14000009 	b	8024c <_ZN4core3fmt5Write10write_char17he4458d32d3c8c3e1E.llvm.3186792272011239407+0x144>
   8022c:	9100096b 	add	x11, x11, #0x2
   80230:	331a11ac 	bfi	w12, w13, #6, #5
   80234:	14000006 	b	8024c <_ZN4core3fmt5Write10write_char17he4458d32d3c8c3e1E.llvm.3186792272011239407+0x144>
   80238:	331411af 	bfi	w15, w13, #12, #5
   8023c:	91000d6b 	add	x11, x11, #0x3
   80240:	2a0f03ec 	mov	w12, w15
   80244:	14000002 	b	8024c <_ZN4core3fmt5Write10write_char17he4458d32d3c8c3e1E.llvm.3186792272011239407+0x144>
   80248:	d503201f 	nop
   8024c:	f940052d 	ldr	x13, [x9, #8]
   80250:	eb0801bf 	cmp	x13, x8
   80254:	54000163 	b.cc	80280 <_ZN4core3fmt5Write10write_char17he4458d32d3c8c3e1E.llvm.3186792272011239407+0x178>  // b.lo, b.ul, b.last
   80258:	f940012d 	ldr	x13, [x9]
   8025c:	b86869ae 	ldr	w14, [x13, x8]
   80260:	362fff4e 	tbz	w14, #5, 80248 <_ZN4core3fmt5Write10write_char17he4458d32d3c8c3e1E.llvm.3186792272011239407+0x140>
   80264:	8b0d010d 	add	x13, x8, x13
   80268:	eb0a017f 	cmp	x11, x10
   8026c:	b81ec1ac 	stur	w12, [x13, #-20]
   80270:	54fffac1 	b.ne	801c8 <_ZN4core3fmt5Write10write_char17he4458d32d3c8c3e1E.llvm.3186792272011239407+0xc0>  // b.any
   80274:	2a1f03e0 	mov	w0, wzr
   80278:	910043ff 	add	sp, sp, #0x10
   8027c:	d65f03c0 	ret
   80280:	90000020 	adrp	x0, 84000 <_ZN17compiler_builtins3mem6memcpy17h5498ba8912cb5f38E+0x6d4>
   80284:	911be000 	add	x0, x0, #0x6f8
   80288:	90000022 	adrp	x2, 84000 <_ZN17compiler_builtins3mem6memcpy17h5498ba8912cb5f38E+0x6d4>
   8028c:	911c8042 	add	x2, x2, #0x720
   80290:	528004a1 	mov	w1, #0x25                  	// #37
   80294:	94000d8c 	bl	838c4 <_ZN4core9panicking5panic17hef51cd3fc116a419E>
   80298:	d4200020 	brk	#0x1

000000000008029c <_ZN4core3fmt5Write9write_fmt17hb80de78056cadd10E.llvm.3186792272011239407>:
   8029c:	d10103ff 	sub	sp, sp, #0x40
   802a0:	a90303fe 	stp	x30, x0, [sp, #48]
   802a4:	910003e0 	mov	x0, sp
   802a8:	52800602 	mov	w2, #0x30                  	// #48
   802ac:	94000d9f 	bl	83928 <memcpy>
   802b0:	90000021 	adrp	x1, 84000 <_ZN17compiler_builtins3mem6memcpy17h5498ba8912cb5f38E+0x6d4>
   802b4:	91158021 	add	x1, x1, #0x560
   802b8:	9100e3e0 	add	x0, sp, #0x38
   802bc:	910003e2 	mov	x2, sp
   802c0:	94000a29 	bl	82b64 <_ZN4core3fmt5write17h158ce1ba0cbf453dE>
   802c4:	f9401bfe 	ldr	x30, [sp, #48]
   802c8:	910103ff 	add	sp, sp, #0x40
   802cc:	d65f03c0 	ret

00000000000802d0 <_ZN4core3ptr29drop_in_place$LT$$LP$$RP$$GT$17h152d6acc2154b684E.llvm.3186792272011239407>:
   802d0:	d65f03c0 	ret

00000000000802d4 <_ZN50_$LT$$RF$mut$u20$W$u20$as$u20$core..fmt..Write$GT$10write_char17h73852a8c485193e4E>:
   802d4:	f81f0ffe 	str	x30, [sp, #-16]!
   802d8:	f9400000 	ldr	x0, [x0]
   802dc:	97ffff8b 	bl	80108 <_ZN4core3fmt5Write10write_char17he4458d32d3c8c3e1E.llvm.3186792272011239407>
   802e0:	2a1f03e0 	mov	w0, wzr
   802e4:	f84107fe 	ldr	x30, [sp], #16
   802e8:	d65f03c0 	ret

00000000000802ec <_ZN50_$LT$$RF$mut$u20$W$u20$as$u20$core..fmt..Write$GT$9write_fmt17hed06fd9cdecad22bE>:
   802ec:	d10103ff 	sub	sp, sp, #0x40
   802f0:	f9400008 	ldr	x8, [x0]
   802f4:	910003e0 	mov	x0, sp
   802f8:	52800602 	mov	w2, #0x30                  	// #48
   802fc:	a90323fe 	stp	x30, x8, [sp, #48]
   80300:	94000d8a 	bl	83928 <memcpy>
   80304:	90000021 	adrp	x1, 84000 <_ZN17compiler_builtins3mem6memcpy17h5498ba8912cb5f38E+0x6d4>
   80308:	91158021 	add	x1, x1, #0x560
   8030c:	9100e3e0 	add	x0, sp, #0x38
   80310:	910003e2 	mov	x2, sp
   80314:	94000a14 	bl	82b64 <_ZN4core3fmt5write17h158ce1ba0cbf453dE>
   80318:	f9401bfe 	ldr	x30, [sp, #48]
   8031c:	910103ff 	add	sp, sp, #0x40
   80320:	d65f03c0 	ret

0000000000080324 <_ZN50_$LT$$RF$mut$u20$W$u20$as$u20$core..fmt..Write$GT$9write_str17h3e8cfa04fc511f15E>:
   80324:	b4000622 	cbz	x2, 803e8 <_ZN50_$LT$$RF$mut$u20$W$u20$as$u20$core..fmt..Write$GT$9write_str17h3e8cfa04fc511f15E+0xc4>
   80328:	f9400008 	ldr	x8, [x0]
   8032c:	528a0a8a 	mov	w10, #0x5054                	// #20564
   80330:	8b020029 	add	x9, x1, x2
   80334:	72a0042a 	movk	w10, #0x21, lsl #16
   80338:	f9400508 	ldr	x8, [x8, #8]
   8033c:	aa0103ec 	mov	x12, x1
   80340:	38c0158b 	ldrsb	w11, [x12], #1
   80344:	12001d6d 	and	w13, w11, #0xff
   80348:	37f8008b 	tbnz	w11, #31, 80358 <_ZN50_$LT$$RF$mut$u20$W$u20$as$u20$core..fmt..Write$GT$9write_str17h3e8cfa04fc511f15E+0x34>
   8034c:	2a0d03eb 	mov	w11, w13
   80350:	aa0c03e1 	mov	x1, x12
   80354:	1400001b 	b	803c0 <_ZN50_$LT$$RF$mut$u20$W$u20$as$u20$core..fmt..Write$GT$9write_str17h3e8cfa04fc511f15E+0x9c>
   80358:	3940042b 	ldrb	w11, [x1, #1]
   8035c:	120011ac 	and	w12, w13, #0x1f
   80360:	71037dbf 	cmp	w13, #0xdf
   80364:	1200156b 	and	w11, w11, #0x3f
   80368:	540001c9 	b.ls	803a0 <_ZN50_$LT$$RF$mut$u20$W$u20$as$u20$core..fmt..Write$GT$9write_str17h3e8cfa04fc511f15E+0x7c>  // b.plast
   8036c:	3940082e 	ldrb	w14, [x1, #2]
   80370:	7103c1bf 	cmp	w13, #0xf0
   80374:	120015ce 	and	w14, w14, #0x3f
   80378:	331a156e 	bfi	w14, w11, #6, #6
   8037c:	54000183 	b.cc	803ac <_ZN50_$LT$$RF$mut$u20$W$u20$as$u20$core..fmt..Write$GT$9write_str17h3e8cfa04fc511f15E+0x88>  // b.lo, b.ul, b.last
   80380:	39400c2b 	ldrb	w11, [x1, #3]
   80384:	1200156b 	and	w11, w11, #0x3f
   80388:	331a2dcb 	bfi	w11, w14, #6, #12
   8038c:	330e098b 	bfi	w11, w12, #18, #3
   80390:	7144417f 	cmp	w11, #0x110, lsl #12
   80394:	540002a0 	b.eq	803e8 <_ZN50_$LT$$RF$mut$u20$W$u20$as$u20$core..fmt..Write$GT$9write_str17h3e8cfa04fc511f15E+0xc4>  // b.none
   80398:	91001021 	add	x1, x1, #0x4
   8039c:	14000009 	b	803c0 <_ZN50_$LT$$RF$mut$u20$W$u20$as$u20$core..fmt..Write$GT$9write_str17h3e8cfa04fc511f15E+0x9c>
   803a0:	91000821 	add	x1, x1, #0x2
   803a4:	331a118b 	bfi	w11, w12, #6, #5
   803a8:	14000006 	b	803c0 <_ZN50_$LT$$RF$mut$u20$W$u20$as$u20$core..fmt..Write$GT$9write_str17h3e8cfa04fc511f15E+0x9c>
   803ac:	3314118e 	bfi	w14, w12, #12, #5
   803b0:	91000c21 	add	x1, x1, #0x3
   803b4:	2a0e03eb 	mov	w11, w14
   803b8:	14000002 	b	803c0 <_ZN50_$LT$$RF$mut$u20$W$u20$as$u20$core..fmt..Write$GT$9write_str17h3e8cfa04fc511f15E+0x9c>
   803bc:	d503201f 	nop
   803c0:	f940050c 	ldr	x12, [x8, #8]
   803c4:	eb0a019f 	cmp	x12, x10
   803c8:	54000143 	b.cc	803f0 <_ZN50_$LT$$RF$mut$u20$W$u20$as$u20$core..fmt..Write$GT$9write_str17h3e8cfa04fc511f15E+0xcc>  // b.lo, b.ul, b.last
   803cc:	f940010c 	ldr	x12, [x8]
   803d0:	b86a698d 	ldr	w13, [x12, x10]
   803d4:	362fff4d 	tbz	w13, #5, 803bc <_ZN50_$LT$$RF$mut$u20$W$u20$as$u20$core..fmt..Write$GT$9write_str17h3e8cfa04fc511f15E+0x98>
   803d8:	8b0c014c 	add	x12, x10, x12
   803dc:	eb09003f 	cmp	x1, x9
   803e0:	b81ec18b 	stur	w11, [x12, #-20]
   803e4:	54fffac1 	b.ne	8033c <_ZN50_$LT$$RF$mut$u20$W$u20$as$u20$core..fmt..Write$GT$9write_str17h3e8cfa04fc511f15E+0x18>  // b.any
   803e8:	2a1f03e0 	mov	w0, wzr
   803ec:	d65f03c0 	ret
   803f0:	90000020 	adrp	x0, 84000 <_ZN17compiler_builtins3mem6memcpy17h5498ba8912cb5f38E+0x6d4>
   803f4:	911be000 	add	x0, x0, #0x6f8
   803f8:	90000022 	adrp	x2, 84000 <_ZN17compiler_builtins3mem6memcpy17h5498ba8912cb5f38E+0x6d4>
   803fc:	911c8042 	add	x2, x2, #0x720
   80400:	528004a1 	mov	w1, #0x25                  	// #37
   80404:	94000d30 	bl	838c4 <_ZN4core9panicking5panic17hef51cd3fc116a419E>
   80408:	d4200020 	brk	#0x1

000000000008040c <_ZN85_$LT$graph_os..platform..raspi3..uart..UARTController$u20$as$u20$core..fmt..Write$GT$9write_str17hc63ec03fcb904406E.llvm.3186792272011239407>:
   8040c:	b4000602 	cbz	x2, 804cc <_ZN85_$LT$graph_os..platform..raspi3..uart..UARTController$u20$as$u20$core..fmt..Write$GT$9write_str17hc63ec03fcb904406E.llvm.3186792272011239407+0xc0>
   80410:	528a0a8a 	mov	w10, #0x5054                	// #20564
   80414:	f9400408 	ldr	x8, [x0, #8]
   80418:	8b020029 	add	x9, x1, x2
   8041c:	72a0042a 	movk	w10, #0x21, lsl #16
   80420:	aa0103ec 	mov	x12, x1
   80424:	38c0158b 	ldrsb	w11, [x12], #1
   80428:	12001d6d 	and	w13, w11, #0xff
   8042c:	37f8008b 	tbnz	w11, #31, 8043c <_ZN85_$LT$graph_os..platform..raspi3..uart..UARTController$u20$as$u20$core..fmt..Write$GT$9write_str17hc63ec03fcb904406E.llvm.3186792272011239407+0x30>
   80430:	2a0d03eb 	mov	w11, w13
   80434:	aa0c03e1 	mov	x1, x12
   80438:	1400001b 	b	804a4 <_ZN85_$LT$graph_os..platform..raspi3..uart..UARTController$u20$as$u20$core..fmt..Write$GT$9write_str17hc63ec03fcb904406E.llvm.3186792272011239407+0x98>
   8043c:	3940042b 	ldrb	w11, [x1, #1]
   80440:	120011ac 	and	w12, w13, #0x1f
   80444:	71037dbf 	cmp	w13, #0xdf
   80448:	1200156b 	and	w11, w11, #0x3f
   8044c:	540001c9 	b.ls	80484 <_ZN85_$LT$graph_os..platform..raspi3..uart..UARTController$u20$as$u20$core..fmt..Write$GT$9write_str17hc63ec03fcb904406E.llvm.3186792272011239407+0x78>  // b.plast
   80450:	3940082e 	ldrb	w14, [x1, #2]
   80454:	7103c1bf 	cmp	w13, #0xf0
   80458:	120015ce 	and	w14, w14, #0x3f
   8045c:	331a156e 	bfi	w14, w11, #6, #6
   80460:	54000183 	b.cc	80490 <_ZN85_$LT$graph_os..platform..raspi3..uart..UARTController$u20$as$u20$core..fmt..Write$GT$9write_str17hc63ec03fcb904406E.llvm.3186792272011239407+0x84>  // b.lo, b.ul, b.last
   80464:	39400c2b 	ldrb	w11, [x1, #3]
   80468:	1200156b 	and	w11, w11, #0x3f
   8046c:	331a2dcb 	bfi	w11, w14, #6, #12
   80470:	330e098b 	bfi	w11, w12, #18, #3
   80474:	7144417f 	cmp	w11, #0x110, lsl #12
   80478:	540002a0 	b.eq	804cc <_ZN85_$LT$graph_os..platform..raspi3..uart..UARTController$u20$as$u20$core..fmt..Write$GT$9write_str17hc63ec03fcb904406E.llvm.3186792272011239407+0xc0>  // b.none
   8047c:	91001021 	add	x1, x1, #0x4
   80480:	14000009 	b	804a4 <_ZN85_$LT$graph_os..platform..raspi3..uart..UARTController$u20$as$u20$core..fmt..Write$GT$9write_str17hc63ec03fcb904406E.llvm.3186792272011239407+0x98>
   80484:	91000821 	add	x1, x1, #0x2
   80488:	331a118b 	bfi	w11, w12, #6, #5
   8048c:	14000006 	b	804a4 <_ZN85_$LT$graph_os..platform..raspi3..uart..UARTController$u20$as$u20$core..fmt..Write$GT$9write_str17hc63ec03fcb904406E.llvm.3186792272011239407+0x98>
   80490:	3314118e 	bfi	w14, w12, #12, #5
   80494:	91000c21 	add	x1, x1, #0x3
   80498:	2a0e03eb 	mov	w11, w14
   8049c:	14000002 	b	804a4 <_ZN85_$LT$graph_os..platform..raspi3..uart..UARTController$u20$as$u20$core..fmt..Write$GT$9write_str17hc63ec03fcb904406E.llvm.3186792272011239407+0x98>
   804a0:	d503201f 	nop
   804a4:	f940050c 	ldr	x12, [x8, #8]
   804a8:	eb0a019f 	cmp	x12, x10
   804ac:	54000143 	b.cc	804d4 <_ZN85_$LT$graph_os..platform..raspi3..uart..UARTController$u20$as$u20$core..fmt..Write$GT$9write_str17hc63ec03fcb904406E.llvm.3186792272011239407+0xc8>  // b.lo, b.ul, b.last
   804b0:	f940010c 	ldr	x12, [x8]
   804b4:	b86a698d 	ldr	w13, [x12, x10]
   804b8:	362fff4d 	tbz	w13, #5, 804a0 <_ZN85_$LT$graph_os..platform..raspi3..uart..UARTController$u20$as$u20$core..fmt..Write$GT$9write_str17hc63ec03fcb904406E.llvm.3186792272011239407+0x94>
   804bc:	8b0c014c 	add	x12, x10, x12
   804c0:	eb09003f 	cmp	x1, x9
   804c4:	b81ec18b 	stur	w11, [x12, #-20]
   804c8:	54fffac1 	b.ne	80420 <_ZN85_$LT$graph_os..platform..raspi3..uart..UARTController$u20$as$u20$core..fmt..Write$GT$9write_str17hc63ec03fcb904406E.llvm.3186792272011239407+0x14>  // b.any
   804cc:	2a1f03e0 	mov	w0, wzr
   804d0:	d65f03c0 	ret
   804d4:	90000020 	adrp	x0, 84000 <_ZN17compiler_builtins3mem6memcpy17h5498ba8912cb5f38E+0x6d4>
   804d8:	911be000 	add	x0, x0, #0x6f8
   804dc:	90000022 	adrp	x2, 84000 <_ZN17compiler_builtins3mem6memcpy17h5498ba8912cb5f38E+0x6d4>
   804e0:	911c8042 	add	x2, x2, #0x720
   804e4:	528004a1 	mov	w1, #0x25                  	// #37
   804e8:	94000cf7 	bl	838c4 <_ZN4core9panicking5panic17hef51cd3fc116a419E>
   804ec:	d4200020 	brk	#0x1

00000000000804f0 <_ZN8graph_os8platform6raspi34uart14UARTController4init17h49c0dec43b03d8f0E>:
   804f0:	f940042a 	ldr	x10, [x1, #8]
   804f4:	52800089 	mov	w9, #0x4                   	// #4
   804f8:	528a000b 	mov	w11, #0x5000                	// #20480
   804fc:	72a00409 	movk	w9, #0x20, lsl #16
   80500:	72a0002b 	movk	w11, #0x1, lsl #16
   80504:	aa0b012b 	orr	x11, x9, x11
   80508:	eb0b015f 	cmp	x10, x11
   8050c:	54000b43 	b.cc	80674 <_ZN8graph_os8platform6raspi34uart14UARTController4init17h49c0dec43b03d8f0E+0x184>  // b.lo, b.ul, b.last
   80510:	f940002a 	ldr	x10, [x1]
   80514:	8b0a012a 	add	x10, x9, x10
   80518:	9140554a 	add	x10, x10, #0x15, lsl #12
   8051c:	b940014b 	ldr	w11, [x10]
   80520:	3200016b 	orr	w11, w11, #0x1
   80524:	b900014b 	str	w11, [x10]
   80528:	528a0c0a 	mov	w10, #0x5060                	// #20576
   8052c:	f940042b 	ldr	x11, [x1, #8]
   80530:	72a0042a 	movk	w10, #0x21, lsl #16
   80534:	eb0a017f 	cmp	x11, x10
   80538:	54000903 	b.cc	80658 <_ZN8graph_os8platform6raspi34uart14UARTController4init17h49c0dec43b03d8f0E+0x168>  // b.lo, b.ul, b.last
   8053c:	f940002b 	ldr	x11, [x1]
   80540:	d100514c 	sub	x12, x10, #0x14
   80544:	b82a697f 	str	wzr, [x11, x10]
   80548:	f940042b 	ldr	x11, [x1, #8]
   8054c:	eb0c017f 	cmp	x11, x12
   80550:	54000843 	b.cc	80658 <_ZN8graph_os8platform6raspi34uart14UARTController4init17h49c0dec43b03d8f0E+0x168>  // b.lo, b.ul, b.last
   80554:	f940002b 	ldr	x11, [x1]
   80558:	5280006c 	mov	w12, #0x3                   	// #3
   8055c:	8b0b014b 	add	x11, x10, x11
   80560:	b81ec16c 	stur	w12, [x11, #-20]
   80564:	d100414c 	sub	x12, x10, #0x10
   80568:	f940042b 	ldr	x11, [x1, #8]
   8056c:	eb0c017f 	cmp	x11, x12
   80570:	54000743 	b.cc	80658 <_ZN8graph_os8platform6raspi34uart14UARTController4init17h49c0dec43b03d8f0E+0x168>  // b.lo, b.ul, b.last
   80574:	f940002b 	ldr	x11, [x1]
   80578:	d100714c 	sub	x12, x10, #0x1c
   8057c:	8b0b014b 	add	x11, x10, x11
   80580:	b81f017f 	stur	wzr, [x11, #-16]
   80584:	f940042b 	ldr	x11, [x1, #8]
   80588:	eb0c017f 	cmp	x11, x12
   8058c:	54000663 	b.cc	80658 <_ZN8graph_os8platform6raspi34uart14UARTController4init17h49c0dec43b03d8f0E+0x168>  // b.lo, b.ul, b.last
   80590:	f940002b 	ldr	x11, [x1]
   80594:	d100614c 	sub	x12, x10, #0x18
   80598:	8b0b014b 	add	x11, x10, x11
   8059c:	b81e417f 	stur	wzr, [x11, #-28]
   805a0:	f940042b 	ldr	x11, [x1, #8]
   805a4:	eb0c017f 	cmp	x11, x12
   805a8:	54000583 	b.cc	80658 <_ZN8graph_os8platform6raspi34uart14UARTController4init17h49c0dec43b03d8f0E+0x168>  // b.lo, b.ul, b.last
   805ac:	f940002b 	ldr	x11, [x1]
   805b0:	528018cc 	mov	w12, #0xc6                  	// #198
   805b4:	8b0b014b 	add	x11, x10, x11
   805b8:	b81e816c 	stur	w12, [x11, #-24]
   805bc:	9100214c 	add	x12, x10, #0x8
   805c0:	f940042b 	ldr	x11, [x1, #8]
   805c4:	eb0c017f 	cmp	x11, x12
   805c8:	54000483 	b.cc	80658 <_ZN8graph_os8platform6raspi34uart14UARTController4init17h49c0dec43b03d8f0E+0x168>  // b.lo, b.ul, b.last
   805cc:	f940002b 	ldr	x11, [x1]
   805d0:	528021cc 	mov	w12, #0x10e                 	// #270
   805d4:	8b0b014b 	add	x11, x10, x11
   805d8:	b900096c 	str	w12, [x11, #8]
   805dc:	f940000b 	ldr	x11, [x0]
   805e0:	f940056c 	ldr	x12, [x11, #8]
   805e4:	eb09019f 	cmp	x12, x9
   805e8:	54000463 	b.cc	80674 <_ZN8graph_os8platform6raspi34uart14UARTController4init17h49c0dec43b03d8f0E+0x184>  // b.lo, b.ul, b.last
   805ec:	f940016c 	ldr	x12, [x11]
   805f0:	528fffeb 	mov	w11, #0x7fff                	// #32767
   805f4:	72bff90b 	movk	w11, #0xffc8, lsl #16
   805f8:	b869698d 	ldr	w13, [x12, x9]
   805fc:	114c256e 	add	w14, w11, #0x309, lsl #12
   80600:	0a0e01ad 	and	w13, w13, w14
   80604:	321301ad 	orr	w13, w13, #0x2000
   80608:	b829698d 	str	w13, [x12, x9]
   8060c:	f940000c 	ldr	x12, [x0]
   80610:	f940058d 	ldr	x13, [x12, #8]
   80614:	eb0901bf 	cmp	x13, x9
   80618:	540002e3 	b.cc	80674 <_ZN8graph_os8platform6raspi34uart14UARTController4init17h49c0dec43b03d8f0E+0x184>  // b.lo, b.ul, b.last
   8061c:	f940018c 	ldr	x12, [x12]
   80620:	b869698d 	ldr	w13, [x12, x9]
   80624:	0a0b01ab 	and	w11, w13, w11
   80628:	3210016b 	orr	w11, w11, #0x10000
   8062c:	b829698b 	str	w11, [x12, x9]
   80630:	f9400429 	ldr	x9, [x1, #8]
   80634:	eb0a013f 	cmp	x9, x10
   80638:	54000103 	b.cc	80658 <_ZN8graph_os8platform6raspi34uart14UARTController4init17h49c0dec43b03d8f0E+0x168>  // b.lo, b.ul, b.last
   8063c:	f9400029 	ldr	x9, [x1]
   80640:	5280006b 	mov	w11, #0x3                   	// #3
   80644:	b82a692b 	str	w11, [x9, x10]
   80648:	a9000500 	stp	x0, x1, [x8]
   8064c:	f900091f 	str	xzr, [x8, #16]
   80650:	3900611f 	strb	wzr, [x8, #24]
   80654:	d65f03c0 	ret
   80658:	90000020 	adrp	x0, 84000 <_ZN17compiler_builtins3mem6memcpy17h5498ba8912cb5f38E+0x6d4>
   8065c:	911a8000 	add	x0, x0, #0x6a0
   80660:	90000022 	adrp	x2, 84000 <_ZN17compiler_builtins3mem6memcpy17h5498ba8912cb5f38E+0x6d4>
   80664:	911b8042 	add	x2, x2, #0x6e0
   80668:	52800481 	mov	w1, #0x24                  	// #36
   8066c:	94000c96 	bl	838c4 <_ZN4core9panicking5panic17hef51cd3fc116a419E>
   80670:	d4200020 	brk	#0x1
   80674:	90000020 	adrp	x0, 84000 <_ZN17compiler_builtins3mem6memcpy17h5498ba8912cb5f38E+0x6d4>
   80678:	911be000 	add	x0, x0, #0x6f8
   8067c:	90000022 	adrp	x2, 84000 <_ZN17compiler_builtins3mem6memcpy17h5498ba8912cb5f38E+0x6d4>
   80680:	911c8042 	add	x2, x2, #0x720
   80684:	528004a1 	mov	w1, #0x25                  	// #37
   80688:	94000c8f 	bl	838c4 <_ZN4core9panicking5panic17hef51cd3fc116a419E>
   8068c:	d4200020 	brk	#0x1

0000000000080690 <_ZN8graph_os8platform6raspi34uart14UARTController7writeln17hbe6f1acb1c65d039E>:
   80690:	d10283ff 	sub	sp, sp, #0xa0
   80694:	f9400808 	ldr	x8, [x0, #16]
   80698:	a90857fe 	stp	x30, x21, [sp, #128]
   8069c:	a9094ff4 	stp	x20, x19, [sp, #144]
   806a0:	aa0203f5 	mov	x21, x2
   806a4:	aa0003f3 	mov	x19, x0
   806a8:	39406009 	ldrb	w9, [x0, #24]
   806ac:	91000508 	add	x8, x8, #0x1
   806b0:	aa0103f4 	mov	x20, x1
   806b4:	f9000808 	str	x8, [x0, #16]
   806b8:	340003e9 	cbz	w9, 80734 <_ZN8graph_os8platform6raspi34uart14UARTController7writeln17hbe6f1acb1c65d039E+0xa4>
   806bc:	f90007e8 	str	x8, [sp, #8]
   806c0:	910023e9 	add	x9, sp, #0x8
   806c4:	d5384248 	mrs	x8, currentel
   806c8:	d000000a 	adrp	x10, 82000 <_ZN4core3str5count14do_count_chars17hf4570e7a07268196E+0xbc>
   806cc:	9127914a 	add	x10, x10, #0x9e4
   806d0:	d3420d08 	ubfx	x8, x8, #2, #2
   806d4:	d000000b 	adrp	x11, 82000 <_ZN4core3str5count14do_count_chars17hf4570e7a07268196E+0xbc>
   806d8:	9127916b 	add	x11, x11, #0x9e4
   806dc:	910103ec 	add	x12, sp, #0x40
   806e0:	90000021 	adrp	x1, 84000 <_ZN17compiler_builtins3mem6memcpy17h5498ba8912cb5f38E+0x6d4>
   806e4:	91164021 	add	x1, x1, #0x590
   806e8:	f90023e8 	str	x8, [sp, #64]
   806ec:	d53800a8 	mrs	x8, mpidr_el1
   806f0:	a9012be9 	stp	x9, x10, [sp, #16]
   806f4:	910123e9 	add	x9, sp, #0x48
   806f8:	92401d08 	and	x8, x8, #0xff
   806fc:	9000002a 	adrp	x10, 84000 <_ZN17compiler_builtins3mem6memcpy17h5498ba8912cb5f38E+0x6d4>
   80700:	9117214a 	add	x10, x10, #0x5c8
   80704:	a9022fec 	stp	x12, x11, [sp, #32]
   80708:	5280008c 	mov	w12, #0x4                   	// #4
   8070c:	a9032fe9 	stp	x9, x11, [sp, #48]
   80710:	910043e9 	add	x9, sp, #0x10
   80714:	f90027e8 	str	x8, [sp, #72]
   80718:	52800068 	mov	w8, #0x3                   	// #3
   8071c:	910143e2 	add	x2, sp, #0x50
   80720:	aa1303e0 	mov	x0, x19
   80724:	a90533ea 	stp	x10, x12, [sp, #80]
   80728:	a9067fff 	stp	xzr, xzr, [sp, #96]
   8072c:	a90723e9 	stp	x9, x8, [sp, #112]
   80730:	9400090d 	bl	82b64 <_ZN4core3fmt5write17h158ce1ba0cbf453dE>
   80734:	528a0a88 	mov	w8, #0x5054                	// #20564
   80738:	f9400669 	ldr	x9, [x19, #8]
   8073c:	72a00428 	movk	w8, #0x21, lsl #16
   80740:	b4000615 	cbz	x21, 80800 <_ZN8graph_os8platform6raspi34uart14UARTController7writeln17hbe6f1acb1c65d039E+0x170>
   80744:	8b15028a 	add	x10, x20, x21
   80748:	aa1403ec 	mov	x12, x20
   8074c:	38c0158b 	ldrsb	w11, [x12], #1
   80750:	12001d6d 	and	w13, w11, #0xff
   80754:	37f8008b 	tbnz	w11, #31, 80764 <_ZN8graph_os8platform6raspi34uart14UARTController7writeln17hbe6f1acb1c65d039E+0xd4>
   80758:	2a0d03eb 	mov	w11, w13
   8075c:	aa0c03f4 	mov	x20, x12
   80760:	1400001b 	b	807cc <_ZN8graph_os8platform6raspi34uart14UARTController7writeln17hbe6f1acb1c65d039E+0x13c>
   80764:	3940068b 	ldrb	w11, [x20, #1]
   80768:	120011ac 	and	w12, w13, #0x1f
   8076c:	71037dbf 	cmp	w13, #0xdf
   80770:	1200156b 	and	w11, w11, #0x3f
   80774:	540001c9 	b.ls	807ac <_ZN8graph_os8platform6raspi34uart14UARTController7writeln17hbe6f1acb1c65d039E+0x11c>  // b.plast
   80778:	39400a8e 	ldrb	w14, [x20, #2]
   8077c:	7103c1bf 	cmp	w13, #0xf0
   80780:	120015ce 	and	w14, w14, #0x3f
   80784:	331a156e 	bfi	w14, w11, #6, #6
   80788:	54000183 	b.cc	807b8 <_ZN8graph_os8platform6raspi34uart14UARTController7writeln17hbe6f1acb1c65d039E+0x128>  // b.lo, b.ul, b.last
   8078c:	39400e8b 	ldrb	w11, [x20, #3]
   80790:	1200156b 	and	w11, w11, #0x3f
   80794:	331a2dcb 	bfi	w11, w14, #6, #12
   80798:	330e098b 	bfi	w11, w12, #18, #3
   8079c:	7144417f 	cmp	w11, #0x110, lsl #12
   807a0:	540002a0 	b.eq	807f4 <_ZN8graph_os8platform6raspi34uart14UARTController7writeln17hbe6f1acb1c65d039E+0x164>  // b.none
   807a4:	91001294 	add	x20, x20, #0x4
   807a8:	14000009 	b	807cc <_ZN8graph_os8platform6raspi34uart14UARTController7writeln17hbe6f1acb1c65d039E+0x13c>
   807ac:	91000a94 	add	x20, x20, #0x2
   807b0:	331a118b 	bfi	w11, w12, #6, #5
   807b4:	14000006 	b	807cc <_ZN8graph_os8platform6raspi34uart14UARTController7writeln17hbe6f1acb1c65d039E+0x13c>
   807b8:	3314118e 	bfi	w14, w12, #12, #5
   807bc:	91000e94 	add	x20, x20, #0x3
   807c0:	2a0e03eb 	mov	w11, w14
   807c4:	14000002 	b	807cc <_ZN8graph_os8platform6raspi34uart14UARTController7writeln17hbe6f1acb1c65d039E+0x13c>
   807c8:	d503201f 	nop
   807cc:	f940052c 	ldr	x12, [x9, #8]
   807d0:	eb08019f 	cmp	x12, x8
   807d4:	540003c3 	b.cc	8084c <_ZN8graph_os8platform6raspi34uart14UARTController7writeln17hbe6f1acb1c65d039E+0x1bc>  // b.lo, b.ul, b.last
   807d8:	f940012c 	ldr	x12, [x9]
   807dc:	b868698d 	ldr	w13, [x12, x8]
   807e0:	362fff4d 	tbz	w13, #5, 807c8 <_ZN8graph_os8platform6raspi34uart14UARTController7writeln17hbe6f1acb1c65d039E+0x138>
   807e4:	8b0c010c 	add	x12, x8, x12
   807e8:	eb0a029f 	cmp	x20, x10
   807ec:	b81ec18b 	stur	w11, [x12, #-20]
   807f0:	54fffac1 	b.ne	80748 <_ZN8graph_os8platform6raspi34uart14UARTController7writeln17hbe6f1acb1c65d039E+0xb8>  // b.any
   807f4:	f9400669 	ldr	x9, [x19, #8]
   807f8:	14000002 	b	80800 <_ZN8graph_os8platform6raspi34uart14UARTController7writeln17hbe6f1acb1c65d039E+0x170>
   807fc:	d503201f 	nop
   80800:	f940052a 	ldr	x10, [x9, #8]
   80804:	eb08015f 	cmp	x10, x8
   80808:	54000223 	b.cc	8084c <_ZN8graph_os8platform6raspi34uart14UARTController7writeln17hbe6f1acb1c65d039E+0x1bc>  // b.lo, b.ul, b.last
   8080c:	f940012a 	ldr	x10, [x9]
   80810:	b868694b 	ldr	w11, [x10, x8]
   80814:	362fff4b 	tbz	w11, #5, 807fc <_ZN8graph_os8platform6raspi34uart14UARTController7writeln17hbe6f1acb1c65d039E+0x16c>
   80818:	8b0a010a 	add	x10, x8, x10
   8081c:	5280014b 	mov	w11, #0xa                   	// #10
   80820:	b81ec14b 	stur	w11, [x10, #-20]
   80824:	f940052a 	ldr	x10, [x9, #8]
   80828:	eb08015f 	cmp	x10, x8
   8082c:	54000103 	b.cc	8084c <_ZN8graph_os8platform6raspi34uart14UARTController7writeln17hbe6f1acb1c65d039E+0x1bc>  // b.lo, b.ul, b.last
   80830:	f940012a 	ldr	x10, [x9]
   80834:	b868694b 	ldr	w11, [x10, x8]
   80838:	3728018b 	tbnz	w11, #5, 80868 <_ZN8graph_os8platform6raspi34uart14UARTController7writeln17hbe6f1acb1c65d039E+0x1d8>
   8083c:	d503201f 	nop
   80840:	f940052a 	ldr	x10, [x9, #8]
   80844:	eb08015f 	cmp	x10, x8
   80848:	54ffff42 	b.cs	80830 <_ZN8graph_os8platform6raspi34uart14UARTController7writeln17hbe6f1acb1c65d039E+0x1a0>  // b.hs, b.nlast
   8084c:	90000020 	adrp	x0, 84000 <_ZN17compiler_builtins3mem6memcpy17h5498ba8912cb5f38E+0x6d4>
   80850:	911be000 	add	x0, x0, #0x6f8
   80854:	90000022 	adrp	x2, 84000 <_ZN17compiler_builtins3mem6memcpy17h5498ba8912cb5f38E+0x6d4>
   80858:	911c8042 	add	x2, x2, #0x720
   8085c:	528004a1 	mov	w1, #0x25                  	// #37
   80860:	94000c19 	bl	838c4 <_ZN4core9panicking5panic17hef51cd3fc116a419E>
   80864:	d4200020 	brk	#0x1
   80868:	8b0a0108 	add	x8, x8, x10
   8086c:	528001a9 	mov	w9, #0xd                   	// #13
   80870:	b81ec109 	stur	w9, [x8, #-20]
   80874:	a9494ff4 	ldp	x20, x19, [sp, #144]
   80878:	a94857fe 	ldp	x30, x21, [sp, #128]
   8087c:	910283ff 	add	sp, sp, #0xa0
   80880:	d65f03c0 	ret

0000000000080884 <_ZN8graph_os8platform6raspi34uart14UARTController8writefln17heb74615e31add7b4E>:
   80884:	d10283ff 	sub	sp, sp, #0xa0
   80888:	f9400808 	ldr	x8, [x0, #16]
   8088c:	a9094ff4 	stp	x20, x19, [sp, #144]
   80890:	aa0003f3 	mov	x19, x0
   80894:	39406009 	ldrb	w9, [x0, #24]
   80898:	aa0103f4 	mov	x20, x1
   8089c:	a90857fe 	stp	x30, x21, [sp, #128]
   808a0:	91000508 	add	x8, x8, #0x1
   808a4:	f9000808 	str	x8, [x0, #16]
   808a8:	340003e9 	cbz	w9, 80924 <_ZN8graph_os8platform6raspi34uart14UARTController8writefln17heb74615e31add7b4E+0xa0>
   808ac:	f90007e8 	str	x8, [sp, #8]
   808b0:	910023e9 	add	x9, sp, #0x8
   808b4:	d5384248 	mrs	x8, currentel
   808b8:	d000000a 	adrp	x10, 82000 <_ZN4core3str5count14do_count_chars17hf4570e7a07268196E+0xbc>
   808bc:	9127914a 	add	x10, x10, #0x9e4
   808c0:	d3420d08 	ubfx	x8, x8, #2, #2
   808c4:	d000000b 	adrp	x11, 82000 <_ZN4core3str5count14do_count_chars17hf4570e7a07268196E+0xbc>
   808c8:	9127916b 	add	x11, x11, #0x9e4
   808cc:	910103ec 	add	x12, sp, #0x40
   808d0:	90000021 	adrp	x1, 84000 <_ZN17compiler_builtins3mem6memcpy17h5498ba8912cb5f38E+0x6d4>
   808d4:	91164021 	add	x1, x1, #0x590
   808d8:	f90023e8 	str	x8, [sp, #64]
   808dc:	d53800a8 	mrs	x8, mpidr_el1
   808e0:	a9012be9 	stp	x9, x10, [sp, #16]
   808e4:	910123e9 	add	x9, sp, #0x48
   808e8:	92401d08 	and	x8, x8, #0xff
   808ec:	9000002a 	adrp	x10, 84000 <_ZN17compiler_builtins3mem6memcpy17h5498ba8912cb5f38E+0x6d4>
   808f0:	9117214a 	add	x10, x10, #0x5c8
   808f4:	a9022fec 	stp	x12, x11, [sp, #32]
   808f8:	5280008c 	mov	w12, #0x4                   	// #4
   808fc:	a9032fe9 	stp	x9, x11, [sp, #48]
   80900:	910043e9 	add	x9, sp, #0x10
   80904:	f90027e8 	str	x8, [sp, #72]
   80908:	52800068 	mov	w8, #0x3                   	// #3
   8090c:	910143e2 	add	x2, sp, #0x50
   80910:	aa1303e0 	mov	x0, x19
   80914:	a90533ea 	stp	x10, x12, [sp, #80]
   80918:	a9067fff 	stp	xzr, xzr, [sp, #96]
   8091c:	a90723e9 	stp	x9, x8, [sp, #112]
   80920:	94000891 	bl	82b64 <_ZN4core3fmt5write17h158ce1ba0cbf453dE>
   80924:	910143e0 	add	x0, sp, #0x50
   80928:	aa1403e1 	mov	x1, x20
   8092c:	52800602 	mov	w2, #0x30                  	// #48
   80930:	528a0a95 	mov	w21, #0x5054                	// #20564
   80934:	72a00435 	movk	w21, #0x21, lsl #16
   80938:	94000bfc 	bl	83928 <memcpy>
   8093c:	90000021 	adrp	x1, 84000 <_ZN17compiler_builtins3mem6memcpy17h5498ba8912cb5f38E+0x6d4>
   80940:	91164021 	add	x1, x1, #0x590
   80944:	910143e2 	add	x2, sp, #0x50
   80948:	aa1303e0 	mov	x0, x19
   8094c:	94000886 	bl	82b64 <_ZN4core3fmt5write17h158ce1ba0cbf453dE>
   80950:	f9400668 	ldr	x8, [x19, #8]
   80954:	f9400509 	ldr	x9, [x8, #8]
   80958:	eb15013f 	cmp	x9, x21
   8095c:	54000103 	b.cc	8097c <_ZN8graph_os8platform6raspi34uart14UARTController8writefln17heb74615e31add7b4E+0xf8>  // b.lo, b.ul, b.last
   80960:	f9400109 	ldr	x9, [x8]
   80964:	b875692a 	ldr	w10, [x9, x21]
   80968:	3728018a 	tbnz	w10, #5, 80998 <_ZN8graph_os8platform6raspi34uart14UARTController8writefln17heb74615e31add7b4E+0x114>
   8096c:	d503201f 	nop
   80970:	f9400509 	ldr	x9, [x8, #8]
   80974:	eb15013f 	cmp	x9, x21
   80978:	54ffff42 	b.cs	80960 <_ZN8graph_os8platform6raspi34uart14UARTController8writefln17heb74615e31add7b4E+0xdc>  // b.hs, b.nlast
   8097c:	90000020 	adrp	x0, 84000 <_ZN17compiler_builtins3mem6memcpy17h5498ba8912cb5f38E+0x6d4>
   80980:	911be000 	add	x0, x0, #0x6f8
   80984:	90000022 	adrp	x2, 84000 <_ZN17compiler_builtins3mem6memcpy17h5498ba8912cb5f38E+0x6d4>
   80988:	911c8042 	add	x2, x2, #0x720
   8098c:	528004a1 	mov	w1, #0x25                  	// #37
   80990:	94000bcd 	bl	838c4 <_ZN4core9panicking5panic17hef51cd3fc116a419E>
   80994:	d4200020 	brk	#0x1
   80998:	8b0902a9 	add	x9, x21, x9
   8099c:	5280014a 	mov	w10, #0xa                   	// #10
   809a0:	b81ec12a 	stur	w10, [x9, #-20]
   809a4:	f9400509 	ldr	x9, [x8, #8]
   809a8:	eb15013f 	cmp	x9, x21
   809ac:	54fffe83 	b.cc	8097c <_ZN8graph_os8platform6raspi34uart14UARTController8writefln17heb74615e31add7b4E+0xf8>  // b.lo, b.ul, b.last
   809b0:	f9400109 	ldr	x9, [x8]
   809b4:	b875692a 	ldr	w10, [x9, x21]
   809b8:	372800ca 	tbnz	w10, #5, 809d0 <_ZN8graph_os8platform6raspi34uart14UARTController8writefln17heb74615e31add7b4E+0x14c>
   809bc:	d503201f 	nop
   809c0:	f9400509 	ldr	x9, [x8, #8]
   809c4:	eb15013f 	cmp	x9, x21
   809c8:	54ffff42 	b.cs	809b0 <_ZN8graph_os8platform6raspi34uart14UARTController8writefln17heb74615e31add7b4E+0x12c>  // b.hs, b.nlast
   809cc:	17ffffec 	b	8097c <_ZN8graph_os8platform6raspi34uart14UARTController8writefln17heb74615e31add7b4E+0xf8>
   809d0:	8b0902a8 	add	x8, x21, x9
   809d4:	528001a9 	mov	w9, #0xd                   	// #13
   809d8:	b81ec109 	stur	w9, [x8, #-20]
   809dc:	a9494ff4 	ldp	x20, x19, [sp, #144]
   809e0:	a94857fe 	ldp	x30, x21, [sp, #128]
   809e4:	910283ff 	add	sp, sp, #0xa0
   809e8:	d65f03c0 	ret

00000000000809ec <_ZN44_$LT$$RF$T$u20$as$u20$core..fmt..Display$GT$3fmt17h5212310d857b58ffE>:
   809ec:	aa0103e2 	mov	x2, x1
   809f0:	a9400408 	ldp	x8, x1, [x0]
   809f4:	aa0803e0 	mov	x0, x8
   809f8:	14000bad 	b	838ac <_ZN42_$LT$str$u20$as$u20$core..fmt..Display$GT$3fmt17ha60ebf429b0a2d81E>

00000000000809fc <rust_begin_unwind>:
   809fc:	d10303ff 	sub	sp, sp, #0xc0
   80a00:	90000028 	adrp	x8, 84000 <_ZN17compiler_builtins3mem6memcpy17h5498ba8912cb5f38E+0x6d4>
   80a04:	a90b4ff4 	stp	x20, x19, [sp, #176]
   80a08:	aa0003f3 	mov	x19, x0
   80a0c:	910063e0 	add	x0, sp, #0x18
   80a10:	910003e1 	mov	x1, sp
   80a14:	52800114 	mov	w20, #0x8                   	// #8
   80a18:	3dc18500 	ldr	q0, [x8, #1552]
   80a1c:	910003e8 	mov	x8, sp
   80a20:	f90053fe 	str	x30, [sp, #160]
   80a24:	72a00414 	movk	w20, #0x20, lsl #16
   80a28:	f9000fe8 	str	x8, [sp, #24]
   80a2c:	910083e8 	add	x8, sp, #0x20
   80a30:	3d8003e0 	str	q0, [sp]
   80a34:	97fffeaf 	bl	804f0 <_ZN8graph_os8platform6raspi34uart14UARTController4init17h49c0dec43b03d8f0E>
   80a38:	f9400fe8 	ldr	x8, [sp, #24]
   80a3c:	d100128a 	sub	x10, x20, #0x4
   80a40:	f9400509 	ldr	x9, [x8, #8]
   80a44:	eb0a013f 	cmp	x9, x10
   80a48:	54000ec3 	b.cc	80c20 <rust_begin_unwind+0x224>  // b.lo, b.ul, b.last
   80a4c:	f9400109 	ldr	x9, [x8]
   80a50:	8b09028a 	add	x10, x20, x9
   80a54:	12a1bc09 	mov	w9, #0xf21fffff            	// #-232783873
   80a58:	b85fc14b 	ldur	w11, [x10, #-4]
   80a5c:	0a09016b 	and	w11, w11, w9
   80a60:	320b016b 	orr	w11, w11, #0x200000
   80a64:	b81fc14b 	stur	w11, [x10, #-4]
   80a68:	f940050a 	ldr	x10, [x8, #8]
   80a6c:	eb14015f 	cmp	x10, x20
   80a70:	54000d83 	b.cc	80c20 <rust_begin_unwind+0x224>  // b.lo, b.ul, b.last
   80a74:	f940010a 	ldr	x10, [x8]
   80a78:	b874694b 	ldr	w11, [x10, x20]
   80a7c:	0a090169 	and	w9, w11, w9
   80a80:	320b0129 	orr	w9, w9, #0x200000
   80a84:	b8346949 	str	w9, [x10, x20]
   80a88:	f9400509 	ldr	x9, [x8, #8]
   80a8c:	eb14013f 	cmp	x9, x20
   80a90:	54000c83 	b.cc	80c20 <rust_begin_unwind+0x224>  // b.lo, b.ul, b.last
   80a94:	f9400108 	ldr	x8, [x8]
   80a98:	1283780a 	mov	w10, #0xffffe43f            	// #-7105
   80a9c:	b8746909 	ldr	w9, [x8, x20]
   80aa0:	0a0a0129 	and	w9, w9, w10
   80aa4:	321a0129 	orr	w9, w9, #0x40
   80aa8:	b8346909 	str	w9, [x8, x20]
   80aac:	91008288 	add	x8, x20, #0x20
   80ab0:	f9400fe9 	ldr	x9, [sp, #24]
   80ab4:	f940052a 	ldr	x10, [x9, #8]
   80ab8:	eb08015f 	cmp	x10, x8
   80abc:	54000b23 	b.cc	80c20 <rust_begin_unwind+0x224>  // b.lo, b.ul, b.last
   80ac0:	f9400129 	ldr	x9, [x9]
   80ac4:	b868692a 	ldr	w10, [x9, x8]
   80ac8:	3205014a 	orr	w10, w10, #0x8000000
   80acc:	b828692a 	str	w10, [x9, x8]
   80ad0:	f9400fe9 	ldr	x9, [sp, #24]
   80ad4:	f940052a 	ldr	x10, [x9, #8]
   80ad8:	eb08015f 	cmp	x10, x8
   80adc:	54000a23 	b.cc	80c20 <rust_begin_unwind+0x224>  // b.lo, b.ul, b.last
   80ae0:	f9400128 	ldr	x8, [x9]
   80ae4:	9100528a 	add	x10, x20, #0x14
   80ae8:	8b080288 	add	x8, x20, x8
   80aec:	b9402109 	ldr	w9, [x8, #32]
   80af0:	320a0129 	orr	w9, w9, #0x400000
   80af4:	b9002109 	str	w9, [x8, #32]
   80af8:	f9400fe8 	ldr	x8, [sp, #24]
   80afc:	f9400509 	ldr	x9, [x8, #8]
   80b00:	eb0a013f 	cmp	x9, x10
   80b04:	540008e3 	b.cc	80c20 <rust_begin_unwind+0x224>  // b.lo, b.ul, b.last
   80b08:	f9400108 	ldr	x8, [x8]
   80b0c:	90000021 	adrp	x1, 84000 <_ZN17compiler_builtins3mem6memcpy17h5498ba8912cb5f38E+0x6d4>
   80b10:	91188021 	add	x1, x1, #0x620
   80b14:	910083e0 	add	x0, sp, #0x20
   80b18:	aa1f03e2 	mov	x2, xzr
   80b1c:	8b080288 	add	x8, x20, x8
   80b20:	b9401509 	ldr	w9, [x8, #20]
   80b24:	320f0129 	orr	w9, w9, #0x20000
   80b28:	b9001509 	str	w9, [x8, #20]
   80b2c:	97fffed9 	bl	80690 <_ZN8graph_os8platform6raspi34uart14UARTController7writeln17hbe6f1acb1c65d039E>
   80b30:	90000021 	adrp	x1, 84000 <_ZN17compiler_builtins3mem6memcpy17h5498ba8912cb5f38E+0x6d4>
   80b34:	91188021 	add	x1, x1, #0x620
   80b38:	910083e0 	add	x0, sp, #0x20
   80b3c:	52800382 	mov	w2, #0x1c                  	// #28
   80b40:	97fffed4 	bl	80690 <_ZN8graph_os8platform6raspi34uart14UARTController7writeln17hbe6f1acb1c65d039E>
   80b44:	aa1303e0 	mov	x0, x19
   80b48:	9400072d 	bl	827fc <_ZN4core5panic10panic_info9PanicInfo7message17h593763465f5aa4e8E>
   80b4c:	b40002a0 	cbz	x0, 80ba0 <rust_begin_unwind+0x1a4>
   80b50:	f9400409 	ldr	x9, [x0, #8]
   80b54:	f9401408 	ldr	x8, [x0, #40]
   80b58:	f100053f 	cmp	x9, #0x1
   80b5c:	540000e0 	b.eq	80b78 <rust_begin_unwind+0x17c>  // b.none
   80b60:	b50000e9 	cbnz	x9, 80b7c <rust_begin_unwind+0x180>
   80b64:	b50000c8 	cbnz	x8, 80b7c <rust_begin_unwind+0x180>
   80b68:	aa1f03e2 	mov	x2, xzr
   80b6c:	90000021 	adrp	x1, 84000 <_ZN17compiler_builtins3mem6memcpy17h5498ba8912cb5f38E+0x6d4>
   80b70:	91188021 	add	x1, x1, #0x620
   80b74:	14000009 	b	80b98 <rust_begin_unwind+0x19c>
   80b78:	b40000c8 	cbz	x8, 80b90 <rust_begin_unwind+0x194>
   80b7c:	90000021 	adrp	x1, 84000 <_ZN17compiler_builtins3mem6memcpy17h5498ba8912cb5f38E+0x6d4>
   80b80:	9118f021 	add	x1, x1, #0x63c
   80b84:	910083e0 	add	x0, sp, #0x20
   80b88:	52800262 	mov	w2, #0x13                  	// #19
   80b8c:	14000004 	b	80b9c <rust_begin_unwind+0x1a0>
   80b90:	f9400008 	ldr	x8, [x0]
   80b94:	a9400901 	ldp	x1, x2, [x8]
   80b98:	910083e0 	add	x0, sp, #0x20
   80b9c:	97fffebd 	bl	80690 <_ZN8graph_os8platform6raspi34uart14UARTController7writeln17hbe6f1acb1c65d039E>
   80ba0:	aa1303e0 	mov	x0, x19
   80ba4:	94000718 	bl	82804 <_ZN4core5panic10panic_info9PanicInfo8location17hd9b6516e7f2b1d71E>
   80ba8:	b4000300 	cbz	x0, 80c08 <rust_begin_unwind+0x20c>
   80bac:	a9402408 	ldp	x8, x9, [x0]
   80bb0:	910103e1 	add	x1, sp, #0x40
   80bb4:	a9057fff 	stp	xzr, xzr, [sp, #80]
   80bb8:	b940100a 	ldr	w10, [x0, #16]
   80bbc:	910083e0 	add	x0, sp, #0x20
   80bc0:	a90927e8 	stp	x8, x9, [sp, #144]
   80bc4:	910243e8 	add	x8, sp, #0x90
   80bc8:	90000009 	adrp	x9, 80000 <_start>
   80bcc:	9127b129 	add	x9, x9, #0x9ec
   80bd0:	b900afea 	str	w10, [sp, #172]
   80bd4:	9102b3ea 	add	x10, sp, #0xac
   80bd8:	a90727e8 	stp	x8, x9, [sp, #112]
   80bdc:	d0000008 	adrp	x8, 82000 <_ZN4core3str5count14do_count_chars17hf4570e7a07268196E+0xbc>
   80be0:	9121b108 	add	x8, x8, #0x86c
   80be4:	90000029 	adrp	x9, 84000 <_ZN17compiler_builtins3mem6memcpy17h5498ba8912cb5f38E+0x6d4>
   80be8:	9119a129 	add	x9, x9, #0x668
   80bec:	a90823ea 	stp	x10, x8, [sp, #128]
   80bf0:	52800048 	mov	w8, #0x2                   	// #2
   80bf4:	a90423e9 	stp	x9, x8, [sp, #64]
   80bf8:	9101c3e9 	add	x9, sp, #0x70
   80bfc:	a90623e9 	stp	x9, x8, [sp, #96]
   80c00:	97ffff21 	bl	80884 <_ZN8graph_os8platform6raspi34uart14UARTController8writefln17heb74615e31add7b4E>
   80c04:	14000006 	b	80c1c <rust_begin_unwind+0x220>
   80c08:	90000021 	adrp	x1, 84000 <_ZN17compiler_builtins3mem6memcpy17h5498ba8912cb5f38E+0x6d4>
   80c0c:	91193c21 	add	x1, x1, #0x64f
   80c10:	910083e0 	add	x0, sp, #0x20
   80c14:	52800222 	mov	w2, #0x11                  	// #17
   80c18:	97fffe9e 	bl	80690 <_ZN8graph_os8platform6raspi34uart14UARTController7writeln17hbe6f1acb1c65d039E>
   80c1c:	14000000 	b	80c1c <rust_begin_unwind+0x220>
   80c20:	90000020 	adrp	x0, 84000 <_ZN17compiler_builtins3mem6memcpy17h5498ba8912cb5f38E+0x6d4>
   80c24:	911be000 	add	x0, x0, #0x6f8
   80c28:	90000022 	adrp	x2, 84000 <_ZN17compiler_builtins3mem6memcpy17h5498ba8912cb5f38E+0x6d4>
   80c2c:	911c8042 	add	x2, x2, #0x720
   80c30:	528004a1 	mov	w1, #0x25                  	// #37
   80c34:	94000b24 	bl	838c4 <_ZN4core9panicking5panic17hef51cd3fc116a419E>
   80c38:	d4200020 	brk	#0x1
	...

0000000000081000 <_exception_vector>:
   81000:	d2800000 	mov	x0, #0x0                   	// #0
   81004:	d2800001 	mov	x1, #0x0                   	// #0
   81008:	d5385202 	mrs	x2, esr_el1
   8100c:	d5384023 	mrs	x3, elr_el1
   81010:	d5384004 	mrs	x4, spsr_el1
   81014:	d5386005 	mrs	x5, far_el1
   81018:	910003e6 	mov	x6, sp
   8101c:	140001e1 	b	817a0 <handle_exception>
	...
   81080:	d2800000 	mov	x0, #0x0                   	// #0
   81084:	d2800021 	mov	x1, #0x1                   	// #1
   81088:	d5385202 	mrs	x2, esr_el1
   8108c:	d5384023 	mrs	x3, elr_el1
   81090:	d5384004 	mrs	x4, spsr_el1
   81094:	d5386005 	mrs	x5, far_el1
   81098:	910003e6 	mov	x6, sp
   8109c:	140001c1 	b	817a0 <handle_exception>
	...
   81100:	d2800000 	mov	x0, #0x0                   	// #0
   81104:	d2800041 	mov	x1, #0x2                   	// #2
   81108:	d5385202 	mrs	x2, esr_el1
   8110c:	d5384023 	mrs	x3, elr_el1
   81110:	d5384004 	mrs	x4, spsr_el1
   81114:	d5386005 	mrs	x5, far_el1
   81118:	910003e6 	mov	x6, sp
   8111c:	140001a1 	b	817a0 <handle_exception>
	...
   81180:	d2800000 	mov	x0, #0x0                   	// #0
   81184:	d2800061 	mov	x1, #0x3                   	// #3
   81188:	d5385202 	mrs	x2, esr_el1
   8118c:	d5384023 	mrs	x3, elr_el1
   81190:	d5384004 	mrs	x4, spsr_el1
   81194:	d5386005 	mrs	x5, far_el1
   81198:	910003e6 	mov	x6, sp
   8119c:	14000181 	b	817a0 <handle_exception>
	...
   81200:	d2800020 	mov	x0, #0x1                   	// #1
   81204:	d2800001 	mov	x1, #0x0                   	// #0
   81208:	d5385202 	mrs	x2, esr_el1
   8120c:	d5384023 	mrs	x3, elr_el1
   81210:	d5384004 	mrs	x4, spsr_el1
   81214:	d5386005 	mrs	x5, far_el1
   81218:	910003e6 	mov	x6, sp
   8121c:	14000161 	b	817a0 <handle_exception>
	...
   81280:	d2800020 	mov	x0, #0x1                   	// #1
   81284:	d2800021 	mov	x1, #0x1                   	// #1
   81288:	d5385202 	mrs	x2, esr_el1
   8128c:	d5384023 	mrs	x3, elr_el1
   81290:	d5384004 	mrs	x4, spsr_el1
   81294:	d5386005 	mrs	x5, far_el1
   81298:	910003e6 	mov	x6, sp
   8129c:	14000141 	b	817a0 <handle_exception>
	...
   81300:	d2800020 	mov	x0, #0x1                   	// #1
   81304:	d2800041 	mov	x1, #0x2                   	// #2
   81308:	d5385202 	mrs	x2, esr_el1
   8130c:	d5384023 	mrs	x3, elr_el1
   81310:	d5384004 	mrs	x4, spsr_el1
   81314:	d5386005 	mrs	x5, far_el1
   81318:	910003e6 	mov	x6, sp
   8131c:	14000121 	b	817a0 <handle_exception>
	...
   81380:	d2800020 	mov	x0, #0x1                   	// #1
   81384:	d2800061 	mov	x1, #0x3                   	// #3
   81388:	d5385202 	mrs	x2, esr_el1
   8138c:	d5384023 	mrs	x3, elr_el1
   81390:	d5384004 	mrs	x4, spsr_el1
   81394:	d5386005 	mrs	x5, far_el1
   81398:	910003e6 	mov	x6, sp
   8139c:	14000101 	b	817a0 <handle_exception>
	...
   81400:	d2800040 	mov	x0, #0x2                   	// #2
   81404:	d2800001 	mov	x1, #0x0                   	// #0
   81408:	d5385202 	mrs	x2, esr_el1
   8140c:	d5384023 	mrs	x3, elr_el1
   81410:	d5384004 	mrs	x4, spsr_el1
   81414:	d5386005 	mrs	x5, far_el1
   81418:	910003e6 	mov	x6, sp
   8141c:	140000e1 	b	817a0 <handle_exception>
	...
   81480:	d2800040 	mov	x0, #0x2                   	// #2
   81484:	d2800021 	mov	x1, #0x1                   	// #1
   81488:	d5385202 	mrs	x2, esr_el1
   8148c:	d5384023 	mrs	x3, elr_el1
   81490:	d5384004 	mrs	x4, spsr_el1
   81494:	d5386005 	mrs	x5, far_el1
   81498:	910003e6 	mov	x6, sp
   8149c:	140000c1 	b	817a0 <handle_exception>
	...
   81500:	d2800040 	mov	x0, #0x2                   	// #2
   81504:	d2800041 	mov	x1, #0x2                   	// #2
   81508:	d5385202 	mrs	x2, esr_el1
   8150c:	d5384023 	mrs	x3, elr_el1
   81510:	d5384004 	mrs	x4, spsr_el1
   81514:	d5386005 	mrs	x5, far_el1
   81518:	910003e6 	mov	x6, sp
   8151c:	140000a1 	b	817a0 <handle_exception>
	...
   81580:	d2800040 	mov	x0, #0x2                   	// #2
   81584:	d2800061 	mov	x1, #0x3                   	// #3
   81588:	d5385202 	mrs	x2, esr_el1
   8158c:	d5384023 	mrs	x3, elr_el1
   81590:	d5384004 	mrs	x4, spsr_el1
   81594:	d5386005 	mrs	x5, far_el1
   81598:	910003e6 	mov	x6, sp
   8159c:	14000081 	b	817a0 <handle_exception>
	...
   81600:	d2800060 	mov	x0, #0x3                   	// #3
   81604:	d2800001 	mov	x1, #0x0                   	// #0
   81608:	d5385202 	mrs	x2, esr_el1
   8160c:	d5384023 	mrs	x3, elr_el1
   81610:	d5384004 	mrs	x4, spsr_el1
   81614:	d5386005 	mrs	x5, far_el1
   81618:	910003e6 	mov	x6, sp
   8161c:	14000061 	b	817a0 <handle_exception>
	...
   81680:	d2800060 	mov	x0, #0x3                   	// #3
   81684:	d2800021 	mov	x1, #0x1                   	// #1
   81688:	d5385202 	mrs	x2, esr_el1
   8168c:	d5384023 	mrs	x3, elr_el1
   81690:	d5384004 	mrs	x4, spsr_el1
   81694:	d5386005 	mrs	x5, far_el1
   81698:	910003e6 	mov	x6, sp
   8169c:	14000041 	b	817a0 <handle_exception>
	...
   81700:	d2800060 	mov	x0, #0x3                   	// #3
   81704:	d2800041 	mov	x1, #0x2                   	// #2
   81708:	d5385202 	mrs	x2, esr_el1
   8170c:	d5384023 	mrs	x3, elr_el1
   81710:	d5384004 	mrs	x4, spsr_el1
   81714:	d5386005 	mrs	x5, far_el1
   81718:	910003e6 	mov	x6, sp
   8171c:	14000021 	b	817a0 <handle_exception>
	...
   81780:	d2800060 	mov	x0, #0x3                   	// #3
   81784:	d2800061 	mov	x1, #0x3                   	// #3
   81788:	d5385202 	mrs	x2, esr_el1
   8178c:	d5384023 	mrs	x3, elr_el1
   81790:	d5384004 	mrs	x4, spsr_el1
   81794:	d5386005 	mrs	x5, far_el1
   81798:	910003e6 	mov	x6, sp
   8179c:	14000001 	b	817a0 <handle_exception>

00000000000817a0 <handle_exception>:
   817a0:	52800388 	mov	w8, #0x1c                  	// #28
   817a4:	12a1bc0a 	mov	w10, #0xf21fffff            	// #-232783873
   817a8:	72a7e408 	movk	w8, #0x3f20, lsl #16
   817ac:	1283780c 	mov	w12, #0xffffe43f            	// #-7105
   817b0:	9100142d 	add	x13, x1, #0x5
   817b4:	b85e8109 	ldur	w9, [x8, #-24]
   817b8:	0a0a0129 	and	w9, w9, w10
   817bc:	320b0129 	orr	w9, w9, #0x200000
   817c0:	b81e8109 	stur	w9, [x8, #-24]
   817c4:	b85ec109 	ldur	w9, [x8, #-20]
   817c8:	0a0a0129 	and	w9, w9, w10
   817cc:	529c6c0a 	mov	w10, #0xe360                	// #58208
   817d0:	320b0129 	orr	w9, w9, #0x200000
   817d4:	72a002ca 	movk	w10, #0x16, lsl #16
   817d8:	b81ec109 	stur	w9, [x8, #-20]
   817dc:	52860089 	mov	w9, #0x3004                	// #12292
   817e0:	b85ec10b 	ldur	w11, [x8, #-20]
   817e4:	72a7e009 	movk	w9, #0x3f00, lsl #16
   817e8:	0a0c016c 	and	w12, w11, w12
   817ec:	528e360b 	mov	w11, #0x71b0                	// #29104
   817f0:	72a0016b 	movk	w11, #0xb, lsl #16
   817f4:	321a018e 	orr	w14, w12, #0x40
   817f8:	9100140c 	add	x12, x0, #0x5
   817fc:	b81ec10e 	stur	w14, [x8, #-20]
   81800:	b40003ac 	cbz	x12, 81874 <handle_exception+0xd4>
   81804:	aa1f03ee 	mov	x14, xzr
   81808:	b940010f 	ldr	w15, [x8]
   8180c:	320a01ef 	orr	w15, w15, #0x400000
   81810:	b900010f 	str	w15, [x8]
   81814:	b940012f 	ldr	w15, [x9]
   81818:	b9400530 	ldr	w16, [x9, #4]
   8181c:	8b0b01ef 	add	x15, x15, x11
   81820:	8b1081ef 	add	x15, x15, x16, lsl #32
   81824:	b9400130 	ldr	w16, [x9]
   81828:	b9400531 	ldr	w17, [x9, #4]
   8182c:	b3607e30 	bfi	x16, x17, #32, #32
   81830:	eb0f021f 	cmp	x16, x15
   81834:	54ffff83 	b.cc	81824 <handle_exception+0x84>  // b.lo, b.ul, b.last
   81838:	b9400d0f 	ldr	w15, [x8, #12]
   8183c:	320a01ef 	orr	w15, w15, #0x400000
   81840:	b9000d0f 	str	w15, [x8, #12]
   81844:	b940012f 	ldr	w15, [x9]
   81848:	b9400530 	ldr	w16, [x9, #4]
   8184c:	8b0b01ef 	add	x15, x15, x11
   81850:	8b1081ef 	add	x15, x15, x16, lsl #32
   81854:	b9400130 	ldr	w16, [x9]
   81858:	b9400531 	ldr	w17, [x9, #4]
   8185c:	b3607e30 	bfi	x16, x17, #32, #32
   81860:	eb0f021f 	cmp	x16, x15
   81864:	54ffff83 	b.cc	81854 <handle_exception+0xb4>  // b.lo, b.ul, b.last
   81868:	910005ce 	add	x14, x14, #0x1
   8186c:	eb0c01df 	cmp	x14, x12
   81870:	54fffcc1 	b.ne	81808 <handle_exception+0x68>  // b.any
   81874:	b940012e 	ldr	w14, [x9]
   81878:	b940052f 	ldr	w15, [x9, #4]
   8187c:	8b0a01ce 	add	x14, x14, x10
   81880:	8b0f81ce 	add	x14, x14, x15, lsl #32
   81884:	b940012f 	ldr	w15, [x9]
   81888:	b9400530 	ldr	w16, [x9, #4]
   8188c:	b3607e0f 	bfi	x15, x16, #32, #32
   81890:	eb0e01ff 	cmp	x15, x14
   81894:	54ffff83 	b.cc	81884 <handle_exception+0xe4>  // b.lo, b.ul, b.last
   81898:	b40003ad 	cbz	x13, 8190c <handle_exception+0x16c>
   8189c:	aa1f03ee 	mov	x14, xzr
   818a0:	b940010f 	ldr	w15, [x8]
   818a4:	320f01ef 	orr	w15, w15, #0x20000
   818a8:	b900010f 	str	w15, [x8]
   818ac:	b940012f 	ldr	w15, [x9]
   818b0:	b9400530 	ldr	w16, [x9, #4]
   818b4:	8b0b01ef 	add	x15, x15, x11
   818b8:	8b1081ef 	add	x15, x15, x16, lsl #32
   818bc:	b9400130 	ldr	w16, [x9]
   818c0:	b9400531 	ldr	w17, [x9, #4]
   818c4:	b3607e30 	bfi	x16, x17, #32, #32
   818c8:	eb0f021f 	cmp	x16, x15
   818cc:	54ffff83 	b.cc	818bc <handle_exception+0x11c>  // b.lo, b.ul, b.last
   818d0:	b9400d0f 	ldr	w15, [x8, #12]
   818d4:	320f01ef 	orr	w15, w15, #0x20000
   818d8:	b9000d0f 	str	w15, [x8, #12]
   818dc:	b940012f 	ldr	w15, [x9]
   818e0:	b9400530 	ldr	w16, [x9, #4]
   818e4:	8b0b01ef 	add	x15, x15, x11
   818e8:	8b1081ef 	add	x15, x15, x16, lsl #32
   818ec:	b9400130 	ldr	w16, [x9]
   818f0:	b9400531 	ldr	w17, [x9, #4]
   818f4:	b3607e30 	bfi	x16, x17, #32, #32
   818f8:	eb0f021f 	cmp	x16, x15
   818fc:	54ffff83 	b.cc	818ec <handle_exception+0x14c>  // b.lo, b.ul, b.last
   81900:	910005ce 	add	x14, x14, #0x1
   81904:	eb0d01df 	cmp	x14, x13
   81908:	54fffcc1 	b.ne	818a0 <handle_exception+0x100>  // b.any
   8190c:	b940012e 	ldr	w14, [x9]
   81910:	b940052f 	ldr	w15, [x9, #4]
   81914:	8b0a01ce 	add	x14, x14, x10
   81918:	8b0f81ce 	add	x14, x14, x15, lsl #32
   8191c:	b940012f 	ldr	w15, [x9]
   81920:	b9400530 	ldr	w16, [x9, #4]
   81924:	b3607e0f 	bfi	x15, x16, #32, #32
   81928:	eb0e01ff 	cmp	x15, x14
   8192c:	54ffff83 	b.cc	8191c <handle_exception+0x17c>  // b.lo, b.ul, b.last
   81930:	2a1f03ee 	mov	w14, wzr
   81934:	4b0e03ef 	neg	w15, w14
   81938:	9acf2450 	lsr	x16, x2, x15
   8193c:	b940010f 	ldr	w15, [x8]
   81940:	360001d0 	tbz	w16, #0, 81978 <handle_exception+0x1d8>
   81944:	320501ef 	orr	w15, w15, #0x8000000
   81948:	b900010f 	str	w15, [x8]
   8194c:	b940012f 	ldr	w15, [x9]
   81950:	b9400530 	ldr	w16, [x9, #4]
   81954:	8b0b01ef 	add	x15, x15, x11
   81958:	8b1081ef 	add	x15, x15, x16, lsl #32
   8195c:	b9400130 	ldr	w16, [x9]
   81960:	b9400531 	ldr	w17, [x9, #4]
   81964:	b3607e30 	bfi	x16, x17, #32, #32
   81968:	eb0f021f 	cmp	x16, x15
   8196c:	54ffff83 	b.cc	8195c <handle_exception+0x1bc>  // b.lo, b.ul, b.last
   81970:	52a1000f 	mov	w15, #0x8000000             	// #134217728
   81974:	1400000d 	b	819a8 <handle_exception+0x208>
   81978:	320a01ef 	orr	w15, w15, #0x400000
   8197c:	b900010f 	str	w15, [x8]
   81980:	b940012f 	ldr	w15, [x9]
   81984:	b9400530 	ldr	w16, [x9, #4]
   81988:	8b0b01ef 	add	x15, x15, x11
   8198c:	8b1081ef 	add	x15, x15, x16, lsl #32
   81990:	b9400130 	ldr	w16, [x9]
   81994:	b9400531 	ldr	w17, [x9, #4]
   81998:	b3607e30 	bfi	x16, x17, #32, #32
   8199c:	eb0f021f 	cmp	x16, x15
   819a0:	54ffff83 	b.cc	81990 <handle_exception+0x1f0>  // b.lo, b.ul, b.last
   819a4:	52a0080f 	mov	w15, #0x400000              	// #4194304
   819a8:	b9400d10 	ldr	w16, [x8, #12]
   819ac:	110005ce 	add	w14, w14, #0x1
   819b0:	2a0f020f 	orr	w15, w16, w15
   819b4:	b9000d0f 	str	w15, [x8, #12]
   819b8:	b940012f 	ldr	w15, [x9]
   819bc:	b9400530 	ldr	w16, [x9, #4]
   819c0:	8b0b01ef 	add	x15, x15, x11
   819c4:	8b1081ef 	add	x15, x15, x16, lsl #32
   819c8:	b9400130 	ldr	w16, [x9]
   819cc:	b9400531 	ldr	w17, [x9, #4]
   819d0:	b3607e30 	bfi	x16, x17, #32, #32
   819d4:	eb0f021f 	cmp	x16, x15
   819d8:	54ffff83 	b.cc	819c8 <handle_exception+0x228>  // b.lo, b.ul, b.last
   819dc:	710101df 	cmp	w14, #0x40
   819e0:	54fffaa1 	b.ne	81934 <handle_exception+0x194>  // b.any
   819e4:	b940012e 	ldr	w14, [x9]
   819e8:	b940052f 	ldr	w15, [x9, #4]
   819ec:	8b0a01ce 	add	x14, x14, x10
   819f0:	8b0f81ce 	add	x14, x14, x15, lsl #32
   819f4:	b940012f 	ldr	w15, [x9]
   819f8:	b9400530 	ldr	w16, [x9, #4]
   819fc:	b3607e0f 	bfi	x15, x16, #32, #32
   81a00:	eb0e01ff 	cmp	x15, x14
   81a04:	54ffff83 	b.cc	819f4 <handle_exception+0x254>  // b.lo, b.ul, b.last
   81a08:	2a1f03ee 	mov	w14, wzr
   81a0c:	4b0e03ef 	neg	w15, w14
   81a10:	9acf2470 	lsr	x16, x3, x15
   81a14:	b940010f 	ldr	w15, [x8]
   81a18:	360001d0 	tbz	w16, #0, 81a50 <handle_exception+0x2b0>
   81a1c:	320501ef 	orr	w15, w15, #0x8000000
   81a20:	b900010f 	str	w15, [x8]
   81a24:	b940012f 	ldr	w15, [x9]
   81a28:	b9400530 	ldr	w16, [x9, #4]
   81a2c:	8b0b01ef 	add	x15, x15, x11
   81a30:	8b1081ef 	add	x15, x15, x16, lsl #32
   81a34:	b9400130 	ldr	w16, [x9]
   81a38:	b9400531 	ldr	w17, [x9, #4]
   81a3c:	b3607e30 	bfi	x16, x17, #32, #32
   81a40:	eb0f021f 	cmp	x16, x15
   81a44:	54ffff83 	b.cc	81a34 <handle_exception+0x294>  // b.lo, b.ul, b.last
   81a48:	52a1000f 	mov	w15, #0x8000000             	// #134217728
   81a4c:	1400000d 	b	81a80 <handle_exception+0x2e0>
   81a50:	320a01ef 	orr	w15, w15, #0x400000
   81a54:	b900010f 	str	w15, [x8]
   81a58:	b940012f 	ldr	w15, [x9]
   81a5c:	b9400530 	ldr	w16, [x9, #4]
   81a60:	8b0b01ef 	add	x15, x15, x11
   81a64:	8b1081ef 	add	x15, x15, x16, lsl #32
   81a68:	b9400130 	ldr	w16, [x9]
   81a6c:	b9400531 	ldr	w17, [x9, #4]
   81a70:	b3607e30 	bfi	x16, x17, #32, #32
   81a74:	eb0f021f 	cmp	x16, x15
   81a78:	54ffff83 	b.cc	81a68 <handle_exception+0x2c8>  // b.lo, b.ul, b.last
   81a7c:	52a0080f 	mov	w15, #0x400000              	// #4194304
   81a80:	b9400d10 	ldr	w16, [x8, #12]
   81a84:	110005ce 	add	w14, w14, #0x1
   81a88:	2a0f020f 	orr	w15, w16, w15
   81a8c:	b9000d0f 	str	w15, [x8, #12]
   81a90:	b940012f 	ldr	w15, [x9]
   81a94:	b9400530 	ldr	w16, [x9, #4]
   81a98:	8b0b01ef 	add	x15, x15, x11
   81a9c:	8b1081ef 	add	x15, x15, x16, lsl #32
   81aa0:	b9400130 	ldr	w16, [x9]
   81aa4:	b9400531 	ldr	w17, [x9, #4]
   81aa8:	b3607e30 	bfi	x16, x17, #32, #32
   81aac:	eb0f021f 	cmp	x16, x15
   81ab0:	54ffff83 	b.cc	81aa0 <handle_exception+0x300>  // b.lo, b.ul, b.last
   81ab4:	710101df 	cmp	w14, #0x40
   81ab8:	54fffaa1 	b.ne	81a0c <handle_exception+0x26c>  // b.any
   81abc:	b940012e 	ldr	w14, [x9]
   81ac0:	b940052f 	ldr	w15, [x9, #4]
   81ac4:	8b0a01ce 	add	x14, x14, x10
   81ac8:	8b0f81ce 	add	x14, x14, x15, lsl #32
   81acc:	b940012f 	ldr	w15, [x9]
   81ad0:	b9400530 	ldr	w16, [x9, #4]
   81ad4:	b3607e0f 	bfi	x15, x16, #32, #32
   81ad8:	eb0e01ff 	cmp	x15, x14
   81adc:	54ffff83 	b.cc	81acc <handle_exception+0x32c>  // b.lo, b.ul, b.last
   81ae0:	17ffff48 	b	81800 <handle_exception+0x60>

0000000000081ae4 <main>:
   81ae4:	d10343ff 	sub	sp, sp, #0xd0
   81ae8:	a90b57f6 	stp	x22, x21, [sp, #176]
   81aec:	52800395 	mov	w21, #0x1c                  	// #28
   81af0:	72a7e415 	movk	w21, #0x3f20, lsl #16
   81af4:	f90053fe 	str	x30, [sp, #160]
   81af8:	a90c4ff4 	stp	x20, x19, [sp, #192]
   81afc:	12a1bc09 	mov	w9, #0xf21fffff            	// #-232783873
   81b00:	a90207e0 	stp	x0, x1, [sp, #32]
   81b04:	aa0303f3 	mov	x19, x3
   81b08:	b85e82a8 	ldur	w8, [x21, #-24]
   81b0c:	0a090108 	and	w8, w8, w9
   81b10:	320b0108 	orr	w8, w8, #0x200000
   81b14:	b81e82a8 	stur	w8, [x21, #-24]
   81b18:	b85ec2a8 	ldur	w8, [x21, #-20]
   81b1c:	0a090108 	and	w8, w8, w9
   81b20:	12837809 	mov	w9, #0xffffe43f            	// #-7105
   81b24:	320b0108 	orr	w8, w8, #0x200000
   81b28:	b81ec2a8 	stur	w8, [x21, #-20]
   81b2c:	b85ec2a8 	ldur	w8, [x21, #-20]
   81b30:	0a090108 	and	w8, w8, w9
   81b34:	321a0108 	orr	w8, w8, #0x40
   81b38:	b81ec2a8 	stur	w8, [x21, #-20]
   81b3c:	b94002a8 	ldr	w8, [x21]
   81b40:	32050109 	orr	w9, w8, #0x8000000
   81b44:	52860088 	mov	w8, #0x3004                	// #12292
   81b48:	72a7e008 	movk	w8, #0x3f00, lsl #16
   81b4c:	b90002a9 	str	w9, [x21]
   81b50:	5290d409 	mov	w9, #0x86a0                	// #34464
   81b54:	b940010a 	ldr	w10, [x8]
   81b58:	72a00029 	movk	w9, #0x1, lsl #16
   81b5c:	b940050b 	ldr	w11, [x8, #4]
   81b60:	b3607d6a 	bfi	x10, x11, #32, #32
   81b64:	8b09014a 	add	x10, x10, x9
   81b68:	b940010b 	ldr	w11, [x8]
   81b6c:	b940050c 	ldr	w12, [x8, #4]
   81b70:	b3607d8b 	bfi	x11, x12, #32, #32
   81b74:	eb0a017f 	cmp	x11, x10
   81b78:	54ffff83 	b.cc	81b68 <main+0x84>  // b.lo, b.ul, b.last
   81b7c:	b9400eaa 	ldr	w10, [x21, #12]
   81b80:	3205014a 	orr	w10, w10, #0x8000000
   81b84:	b9000eaa 	str	w10, [x21, #12]
   81b88:	b94002aa 	ldr	w10, [x21]
   81b8c:	320a014a 	orr	w10, w10, #0x400000
   81b90:	b90002aa 	str	w10, [x21]
   81b94:	b940010a 	ldr	w10, [x8]
   81b98:	b940050b 	ldr	w11, [x8, #4]
   81b9c:	8b09014a 	add	x10, x10, x9
   81ba0:	8b0b814a 	add	x10, x10, x11, lsl #32
   81ba4:	b940010b 	ldr	w11, [x8]
   81ba8:	b940050c 	ldr	w12, [x8, #4]
   81bac:	b3607d8b 	bfi	x11, x12, #32, #32
   81bb0:	eb0a017f 	cmp	x11, x10
   81bb4:	54ffff83 	b.cc	81ba4 <main+0xc0>  // b.lo, b.ul, b.last
   81bb8:	b9400eaa 	ldr	w10, [x21, #12]
   81bbc:	320a014a 	orr	w10, w10, #0x400000
   81bc0:	b9000eaa 	str	w10, [x21, #12]
   81bc4:	b94002aa 	ldr	w10, [x21]
   81bc8:	320f014a 	orr	w10, w10, #0x20000
   81bcc:	b90002aa 	str	w10, [x21]
   81bd0:	b940010a 	ldr	w10, [x8]
   81bd4:	b940050b 	ldr	w11, [x8, #4]
   81bd8:	8b090149 	add	x9, x10, x9
   81bdc:	8b0b8129 	add	x9, x9, x11, lsl #32
   81be0:	b940010a 	ldr	w10, [x8]
   81be4:	b940050b 	ldr	w11, [x8, #4]
   81be8:	b3607d6a 	bfi	x10, x11, #32, #32
   81bec:	eb09015f 	cmp	x10, x9
   81bf0:	54ffff83 	b.cc	81be0 <main+0xfc>  // b.lo, b.ul, b.last
   81bf4:	b9400ea8 	ldr	w8, [x21, #12]
   81bf8:	f0000000 	adrp	x0, 84000 <_ZN17compiler_builtins3mem6memcpy17h5498ba8912cb5f38E+0x6d4>
   81bfc:	911a6000 	add	x0, x0, #0x698
   81c00:	f0000001 	adrp	x1, 84000 <_ZN17compiler_builtins3mem6memcpy17h5498ba8912cb5f38E+0x6d4>
   81c04:	911a2021 	add	x1, x1, #0x688
   81c08:	320f0108 	orr	w8, w8, #0x20000
   81c0c:	b9000ea8 	str	w8, [x21, #12]
   81c10:	9100c3e8 	add	x8, sp, #0x30
   81c14:	97fffa37 	bl	804f0 <_ZN8graph_os8platform6raspi34uart14UARTController4init17h49c0dec43b03d8f0E>
   81c18:	52800028 	mov	w8, #0x1                   	// #1
   81c1c:	f0000014 	adrp	x20, 84000 <_ZN17compiler_builtins3mem6memcpy17h5498ba8912cb5f38E+0x6d4>
   81c20:	91272294 	add	x20, x20, #0x9c8
   81c24:	390123e8 	strb	w8, [sp, #72]
   81c28:	a94423e9 	ldp	x9, x8, [sp, #64]
   81c2c:	a9012289 	stp	x9, x8, [x20, #16]
   81c30:	a94323ea 	ldp	x10, x8, [sp, #48]
   81c34:	3940628b 	ldrb	w11, [x20, #24]
   81c38:	7100097f 	cmp	w11, #0x2
   81c3c:	a900228a 	stp	x10, x8, [x20]
   81c40:	54000fc0 	b.eq	81e38 <main+0x354>  // b.none
   81c44:	f0000008 	adrp	x8, 84000 <_ZN17compiler_builtins3mem6memcpy17h5498ba8912cb5f38E+0x6d4>
   81c48:	910ce108 	add	x8, x8, #0x338
   81c4c:	52800029 	mov	w9, #0x1                   	// #1
   81c50:	f0000016 	adrp	x22, 84000 <_ZN17compiler_builtins3mem6memcpy17h5498ba8912cb5f38E+0x6d4>
   81c54:	910c82d6 	add	x22, x22, #0x320
   81c58:	910143e1 	add	x1, sp, #0x50
   81c5c:	aa1403e0 	mov	x0, x20
   81c60:	a9067fff 	stp	xzr, xzr, [sp, #96]
   81c64:	a90527e8 	stp	x8, x9, [sp, #80]
   81c68:	a9077ff6 	stp	x22, xzr, [sp, #112]
   81c6c:	97fffb06 	bl	80884 <_ZN8graph_os8platform6raspi34uart14UARTController8writefln17heb74615e31add7b4E>
   81c70:	39406288 	ldrb	w8, [x20, #24]
   81c74:	7100091f 	cmp	w8, #0x2
   81c78:	54000ea0 	b.eq	81e4c <main+0x368>  // b.none
   81c7c:	f0000014 	adrp	x20, 84000 <_ZN17compiler_builtins3mem6memcpy17h5498ba8912cb5f38E+0x6d4>
   81c80:	91272294 	add	x20, x20, #0x9c8
   81c84:	f0000008 	adrp	x8, 84000 <_ZN17compiler_builtins3mem6memcpy17h5498ba8912cb5f38E+0x6d4>
   81c88:	910f2108 	add	x8, x8, #0x3c8
   81c8c:	52800029 	mov	w9, #0x1                   	// #1
   81c90:	910143e1 	add	x1, sp, #0x50
   81c94:	aa1403e0 	mov	x0, x20
   81c98:	a9067fff 	stp	xzr, xzr, [sp, #96]
   81c9c:	a9077ff6 	stp	x22, xzr, [sp, #112]
   81ca0:	a90527e8 	stp	x8, x9, [sp, #80]
   81ca4:	97fffaf8 	bl	80884 <_ZN8graph_os8platform6raspi34uart14UARTController8writefln17heb74615e31add7b4E>
   81ca8:	d5382009 	mrs	x9, ttbr0_el1
   81cac:	2a1f03e8 	mov	w8, wzr
   81cb0:	b340be69 	bfxil	x9, x19, #0, #48
   81cb4:	d5182009 	msr	ttbr0_el1, x9
   81cb8:	d518a208 	msr	mair_el1, x8
   81cbc:	52800429 	mov	w9, #0x21                  	// #33
   81cc0:	d5382048 	mrs	x8, tcr_el1
   81cc4:	72b00009 	movk	w9, #0x8000, lsl #16
   81cc8:	927ae508 	and	x8, x8, #0xffffffffffffffc0
   81ccc:	9260f508 	and	x8, x8, #0xffffffff3fffffff
   81cd0:	aa090108 	orr	x8, x8, x9
   81cd4:	52808029 	mov	w9, #0x401                 	// #1025
   81cd8:	d5182048 	msr	tcr_el1, x8
   81cdc:	aa1f03e8 	mov	x8, xzr
   81ce0:	d5033fdf 	isb
   81ce4:	4e080d20 	dup	v0.2d, x9
   81ce8:	3d8003e0 	str	q0, [sp]
   81cec:	8b080269 	add	x9, x19, x8
   81cf0:	f94007ea 	ldr	x10, [sp, #8]
   81cf4:	91008108 	add	x8, x8, #0x20
   81cf8:	f140051f 	cmp	x8, #0x1, lsl #12
   81cfc:	f900052a 	str	x10, [x9, #8]
   81d00:	f94003ea 	ldr	x10, [sp]
   81d04:	f900012a 	str	x10, [x9]
   81d08:	3d8007e0 	str	q0, [sp, #16]
   81d0c:	f9400fea 	ldr	x10, [sp, #24]
   81d10:	f9000d2a 	str	x10, [x9, #24]
   81d14:	f9400bea 	ldr	x10, [sp, #16]
   81d18:	f900092a 	str	x10, [x9, #16]
   81d1c:	54fffe61 	b.ne	81ce8 <main+0x204>  // b.any
   81d20:	d5033f9f 	dsb	sy
   81d24:	528000a9 	mov	w9, #0x5                   	// #5
   81d28:	d5381008 	mrs	x8, sctlr_el1
   81d2c:	aa090108 	orr	x8, x8, x9
   81d30:	f0000009 	adrp	x9, 84000 <_ZN17compiler_builtins3mem6memcpy17h5498ba8912cb5f38E+0x6d4>
   81d34:	d5181008 	msr	sctlr_el1, x8
   81d38:	d5033fdf 	isb
   81d3c:	39678128 	ldrb	w8, [x9, #2528]
   81d40:	7100091f 	cmp	w8, #0x2
   81d44:	540008e0 	b.eq	81e60 <main+0x37c>  // b.none
   81d48:	f0000008 	adrp	x8, 84000 <_ZN17compiler_builtins3mem6memcpy17h5498ba8912cb5f38E+0x6d4>
   81d4c:	91106108 	add	x8, x8, #0x418
   81d50:	52800029 	mov	w9, #0x1                   	// #1
   81d54:	910143e1 	add	x1, sp, #0x50
   81d58:	aa1403e0 	mov	x0, x20
   81d5c:	a9067fff 	stp	xzr, xzr, [sp, #96]
   81d60:	a9077ff6 	stp	x22, xzr, [sp, #112]
   81d64:	a90527e8 	stp	x8, x9, [sp, #80]
   81d68:	97fffac7 	bl	80884 <_ZN8graph_os8platform6raspi34uart14UARTController8writefln17heb74615e31add7b4E>
   81d6c:	39406288 	ldrb	w8, [x20, #24]
   81d70:	7100091f 	cmp	w8, #0x2
   81d74:	54000800 	b.eq	81e74 <main+0x390>  // b.none
   81d78:	f0000008 	adrp	x8, 84000 <_ZN17compiler_builtins3mem6memcpy17h5498ba8912cb5f38E+0x6d4>
   81d7c:	91118108 	add	x8, x8, #0x460
   81d80:	52800029 	mov	w9, #0x1                   	// #1
   81d84:	910143e1 	add	x1, sp, #0x50
   81d88:	aa1403e0 	mov	x0, x20
   81d8c:	a9067fff 	stp	xzr, xzr, [sp, #96]
   81d90:	a9077ff6 	stp	x22, xzr, [sp, #112]
   81d94:	a90527e8 	stp	x8, x9, [sp, #80]
   81d98:	97fffabb 	bl	80884 <_ZN8graph_os8platform6raspi34uart14UARTController8writefln17heb74615e31add7b4E>
   81d9c:	52820008 	mov	w8, #0x1000                	// #4096
   81da0:	f90043ff 	str	xzr, [sp, #128]
   81da4:	52900009 	mov	w9, #0x8000                	// #32768
   81da8:	72a00109 	movk	w9, #0x8, lsl #16
   81dac:	f9002be8 	str	x8, [sp, #80]
   81db0:	f9402be8 	ldr	x8, [sp, #80]
   81db4:	f9000128 	str	x8, [x9]
   81db8:	f94043e8 	ldr	x8, [sp, #128]
   81dbc:	f9000528 	str	x8, [x9, #8]
   81dc0:	f94057e8 	ldr	x8, [sp, #168]
   81dc4:	f9000928 	str	x8, [x9, #16]
   81dc8:	39406288 	ldrb	w8, [x20, #24]
   81dcc:	7100091f 	cmp	w8, #0x2
   81dd0:	540005c0 	b.eq	81e88 <main+0x3a4>  // b.none
   81dd4:	910083e8 	add	x8, sp, #0x20
   81dd8:	90000009 	adrp	x9, 81000 <_exception_vector>
   81ddc:	913a9129 	add	x9, x9, #0xea4
   81de0:	b000000a 	adrp	x10, 82000 <_ZN4core3str5count14do_count_chars17hf4570e7a07268196E+0xbc>
   81de4:	9127914a 	add	x10, x10, #0x9e4
   81de8:	9100a3eb 	add	x11, sp, #0x28
   81dec:	f0000000 	adrp	x0, 84000 <_ZN17compiler_builtins3mem6memcpy17h5498ba8912cb5f38E+0x6d4>
   81df0:	91272000 	add	x0, x0, #0x9c8
   81df4:	a90827e8 	stp	x8, x9, [sp, #128]
   81df8:	f0000008 	adrp	x8, 84000 <_ZN17compiler_builtins3mem6memcpy17h5498ba8912cb5f38E+0x6d4>
   81dfc:	9112e108 	add	x8, x8, #0x4b8
   81e00:	52800049 	mov	w9, #0x2                   	// #2
   81e04:	a9092beb 	stp	x11, x10, [sp, #144]
   81e08:	f000000a 	adrp	x10, 84000 <_ZN17compiler_builtins3mem6memcpy17h5498ba8912cb5f38E+0x6d4>
   81e0c:	9113614a 	add	x10, x10, #0x4d8
   81e10:	910143e1 	add	x1, sp, #0x50
   81e14:	a90527e8 	stp	x8, x9, [sp, #80]
   81e18:	910203e8 	add	x8, sp, #0x80
   81e1c:	a90627ea 	stp	x10, x9, [sp, #96]
   81e20:	a90727e8 	stp	x8, x9, [sp, #112]
   81e24:	97fffa98 	bl	80884 <_ZN8graph_os8platform6raspi34uart14UARTController8writefln17heb74615e31add7b4E>
   81e28:	b94002a8 	ldr	w8, [x21]
   81e2c:	32050108 	orr	w8, w8, #0x8000000
   81e30:	b90002a8 	str	w8, [x21]
   81e34:	14000000 	b	81e34 <main+0x350>
   81e38:	f0000000 	adrp	x0, 84000 <_ZN17compiler_builtins3mem6memcpy17h5498ba8912cb5f38E+0x6d4>
   81e3c:	910d2000 	add	x0, x0, #0x348
   81e40:	f0000002 	adrp	x2, 84000 <_ZN17compiler_builtins3mem6memcpy17h5498ba8912cb5f38E+0x6d4>
   81e44:	910e2042 	add	x2, x2, #0x388
   81e48:	14000014 	b	81e98 <main+0x3b4>
   81e4c:	f0000000 	adrp	x0, 84000 <_ZN17compiler_builtins3mem6memcpy17h5498ba8912cb5f38E+0x6d4>
   81e50:	910d2000 	add	x0, x0, #0x348
   81e54:	f0000002 	adrp	x2, 84000 <_ZN17compiler_builtins3mem6memcpy17h5498ba8912cb5f38E+0x6d4>
   81e58:	910f6042 	add	x2, x2, #0x3d8
   81e5c:	1400000f 	b	81e98 <main+0x3b4>
   81e60:	f0000000 	adrp	x0, 84000 <_ZN17compiler_builtins3mem6memcpy17h5498ba8912cb5f38E+0x6d4>
   81e64:	910d2000 	add	x0, x0, #0x348
   81e68:	f0000002 	adrp	x2, 84000 <_ZN17compiler_builtins3mem6memcpy17h5498ba8912cb5f38E+0x6d4>
   81e6c:	9110a042 	add	x2, x2, #0x428
   81e70:	1400000a 	b	81e98 <main+0x3b4>
   81e74:	f0000000 	adrp	x0, 84000 <_ZN17compiler_builtins3mem6memcpy17h5498ba8912cb5f38E+0x6d4>
   81e78:	910d2000 	add	x0, x0, #0x348
   81e7c:	f0000002 	adrp	x2, 84000 <_ZN17compiler_builtins3mem6memcpy17h5498ba8912cb5f38E+0x6d4>
   81e80:	9111c042 	add	x2, x2, #0x470
   81e84:	14000005 	b	81e98 <main+0x3b4>
   81e88:	f0000000 	adrp	x0, 84000 <_ZN17compiler_builtins3mem6memcpy17h5498ba8912cb5f38E+0x6d4>
   81e8c:	910d2000 	add	x0, x0, #0x348
   81e90:	f0000002 	adrp	x2, 84000 <_ZN17compiler_builtins3mem6memcpy17h5498ba8912cb5f38E+0x6d4>
   81e94:	91152042 	add	x2, x2, #0x548
   81e98:	528003c1 	mov	w1, #0x1e                  	// #30
   81e9c:	9400068a 	bl	838c4 <_ZN4core9panicking5panic17hef51cd3fc116a419E>
   81ea0:	d4200020 	brk	#0x1

0000000000081ea4 <_ZN4core3fmt3num53_$LT$impl$u20$core..fmt..LowerHex$u20$for$u20$i64$GT$3fmt17h5845e6562b381294E>:
   81ea4:	d10243ff 	sub	sp, sp, #0x90
   81ea8:	52800fe8 	mov	w8, #0x7f                  	// #127
   81eac:	52800ae9 	mov	w9, #0x57                  	// #87
   81eb0:	f940000c 	ldr	x12, [x0]
   81eb4:	5280060a 	mov	w10, #0x30                  	// #48
   81eb8:	910003eb 	mov	x11, sp
   81ebc:	f90043fe 	str	x30, [sp, #128]
   81ec0:	12000d8d 	and	w13, w12, #0xf
   81ec4:	d344fd8e 	lsr	x14, x12, #4
   81ec8:	710029bf 	cmp	w13, #0xa
   81ecc:	aa0803e0 	mov	x0, x8
   81ed0:	1a89314f 	csel	w15, w10, w9, cc  // cc = lo, ul, last
   81ed4:	f1003d9f 	cmp	x12, #0xf
   81ed8:	d1000508 	sub	x8, x8, #0x1
   81edc:	aa0e03ec 	mov	x12, x14
   81ee0:	0b0d01ed 	add	w13, w15, w13
   81ee4:	3820696d 	strb	w13, [x11, x0]
   81ee8:	54fffec8 	b.hi	81ec0 <_ZN4core3fmt3num53_$LT$impl$u20$core..fmt..LowerHex$u20$for$u20$i64$GT$3fmt17h5845e6562b381294E+0x1c>  // b.pmore
   81eec:	f102041f 	cmp	x0, #0x81
   81ef0:	54000202 	b.cs	81f30 <_ZN4core3fmt3num53_$LT$impl$u20$core..fmt..LowerHex$u20$for$u20$i64$GT$3fmt17h5845e6562b381294E+0x8c>  // b.hs, b.nlast
   81ef4:	91000408 	add	x8, x0, #0x1
   81ef8:	910003e9 	mov	x9, sp
   81efc:	8b080129 	add	x9, x9, x8
   81f00:	5280102a 	mov	w10, #0x81                  	// #129
   81f04:	d1000524 	sub	x4, x9, #0x1
   81f08:	cb080145 	sub	x5, x10, x8
   81f0c:	f0000002 	adrp	x2, 84000 <_ZN17compiler_builtins3mem6memcpy17h5498ba8912cb5f38E+0x6d4>
   81f10:	911f4042 	add	x2, x2, #0x7d0
   81f14:	aa0103e0 	mov	x0, x1
   81f18:	52800021 	mov	w1, #0x1                   	// #1
   81f1c:	52800043 	mov	w3, #0x2                   	// #2
   81f20:	9400039c 	bl	82d90 <_ZN4core3fmt9Formatter12pad_integral17h18655efe8c4788ccE>
   81f24:	f94043fe 	ldr	x30, [sp, #128]
   81f28:	910243ff 	add	sp, sp, #0x90
   81f2c:	d65f03c0 	ret
   81f30:	f0000002 	adrp	x2, 84000 <_ZN17compiler_builtins3mem6memcpy17h5498ba8912cb5f38E+0x6d4>
   81f34:	911ee042 	add	x2, x2, #0x7b8
   81f38:	52801001 	mov	w1, #0x80                  	// #128
   81f3c:	94000236 	bl	82814 <_ZN4core5slice5index26slice_start_index_len_fail17hd430acefd806b1e2E>
   81f40:	d4200020 	brk	#0x1

0000000000081f44 <_ZN4core3str5count14do_count_chars17hf4570e7a07268196E>:
   81f44:	d10103ff 	sub	sp, sp, #0x40
   81f48:	91001c08 	add	x8, x0, #0x7
   81f4c:	927df10c 	and	x12, x8, #0xfffffffffffffff8
   81f50:	cb00018b 	sub	x11, x12, x0
   81f54:	eb01017f 	cmp	x11, x1
   81f58:	54000188 	b.hi	81f88 <_ZN4core3str5count14do_count_chars17hf4570e7a07268196E+0x44>  // b.pmore
   81f5c:	f100217f 	cmp	x11, #0x8
   81f60:	54000148 	b.hi	81f88 <_ZN4core3str5count14do_count_chars17hf4570e7a07268196E+0x44>  // b.pmore
   81f64:	cb0b002a 	sub	x10, x1, x11
   81f68:	f100215f 	cmp	x10, #0x8
   81f6c:	540000e3 	b.cc	81f88 <_ZN4core3str5count14do_count_chars17hf4570e7a07268196E+0x44>  // b.lo, b.ul, b.last
   81f70:	8b0b0009 	add	x9, x0, x11
   81f74:	92400948 	and	x8, x10, #0x7
   81f78:	eb00019f 	cmp	x12, x0
   81f7c:	54000241 	b.ne	81fc4 <_ZN4core3str5count14do_count_chars17hf4570e7a07268196E+0x80>  // b.any
   81f80:	aa1f03ed 	mov	x13, xzr
   81f84:	14000153 	b	824d0 <_ZN4core3str5count14do_count_chars17hf4570e7a07268196E+0x58c>
   81f88:	b40000c1 	cbz	x1, 81fa0 <_ZN4core3str5count14do_count_chars17hf4570e7a07268196E+0x5c>
   81f8c:	f100203f 	cmp	x1, #0x8
   81f90:	54000102 	b.cs	81fb0 <_ZN4core3str5count14do_count_chars17hf4570e7a07268196E+0x6c>  // b.hs, b.nlast
   81f94:	aa1f03e8 	mov	x8, xzr
   81f98:	aa0003ea 	mov	x10, x0
   81f9c:	140000a6 	b	82234 <_ZN4core3str5count14do_count_chars17hf4570e7a07268196E+0x2f0>
   81fa0:	aa1f03e8 	mov	x8, xzr
   81fa4:	aa0803e0 	mov	x0, x8
   81fa8:	910103ff 	add	sp, sp, #0x40
   81fac:	d65f03c0 	ret
   81fb0:	f100403f 	cmp	x1, #0x10
   81fb4:	54000122 	b.cs	81fd8 <_ZN4core3str5count14do_count_chars17hf4570e7a07268196E+0x94>  // b.hs, b.nlast
   81fb8:	aa1f03e8 	mov	x8, xzr
   81fbc:	aa1f03e9 	mov	x9, xzr
   81fc0:	14000067 	b	8215c <_ZN4core3str5count14do_count_chars17hf4570e7a07268196E+0x218>
   81fc4:	f100217f 	cmp	x11, #0x8
   81fc8:	54001442 	b.cs	82250 <_ZN4core3str5count14do_count_chars17hf4570e7a07268196E+0x30c>  // b.hs, b.nlast
   81fcc:	aa1f03ed 	mov	x13, xzr
   81fd0:	aa0003ee 	mov	x14, x0
   81fd4:	1400013a 	b	824bc <_ZN4core3str5count14do_count_chars17hf4570e7a07268196E+0x578>
   81fd8:	5280002b 	mov	w11, #0x1                   	// #1
   81fdc:	927cec29 	and	x9, x1, #0xfffffffffffffff0
   81fe0:	6f00e400 	movi	v0.2d, #0x0
   81fe4:	aa0903e8 	mov	x8, x9
   81fe8:	4f05e7e1 	movi	v1.16b, #0xbf
   81fec:	aa0003ea 	mov	x10, x0
   81ff0:	6f00e402 	movi	v2.2d, #0x0
   81ff4:	6f00e404 	movi	v4.2d, #0x0
   81ff8:	6f00e403 	movi	v3.2d, #0x0
   81ffc:	6f00e406 	movi	v6.2d, #0x0
   82000:	6f00e405 	movi	v5.2d, #0x0
   82004:	6f00e410 	movi	v16.2d, #0x0
   82008:	6f00e407 	movi	v7.2d, #0x0
   8200c:	4e080d71 	dup	v17.2d, x11
   82010:	aa0a03eb 	mov	x11, x10
   82014:	3940154e 	ldrb	w14, [x10, #5]
   82018:	3940094f 	ldrb	w15, [x10, #2]
   8201c:	f1004108 	subs	x8, x8, #0x10
   82020:	38404d6c 	ldrb	w12, [x11, #4]!
   82024:	39400d6d 	ldrb	w13, [x11, #3]
   82028:	3940096b 	ldrb	w11, [x11, #2]
   8202c:	33181dcc 	bfi	w12, w14, #8, #8
   82030:	3940054e 	ldrb	w14, [x10, #1]
   82034:	33181dab 	bfi	w11, w13, #8, #8
   82038:	39400d4d 	ldrb	w13, [x10, #3]
   8203c:	33103d6c 	bfi	w12, w11, #16, #16
   82040:	3940014b 	ldrb	w11, [x10]
   82044:	b3781daf 	bfi	x15, x13, #8, #8
   82048:	b3781dcb 	bfi	x11, x14, #8, #8
   8204c:	b3703deb 	bfi	x11, x15, #16, #16
   82050:	b3607d8b 	bfi	x11, x12, #32, #32
   82054:	aa0a03ec 	mov	x12, x10
   82058:	f90003eb 	str	x11, [sp]
   8205c:	38408d8b 	ldrb	w11, [x12, #8]!
   82060:	39400d8d 	ldrb	w13, [x12, #3]
   82064:	3940098e 	ldrb	w14, [x12, #2]
   82068:	38404d8f 	ldrb	w15, [x12, #4]!
   8206c:	39400d90 	ldrb	w16, [x12, #3]
   82070:	3940098c 	ldrb	w12, [x12, #2]
   82074:	b3781dae 	bfi	x14, x13, #8, #8
   82078:	39403551 	ldrb	w17, [x10, #13]
   8207c:	33181e0c 	bfi	w12, w16, #8, #8
   82080:	33181e2f 	bfi	w15, w17, #8, #8
   82084:	33103d8f 	bfi	w15, w12, #16, #16
   82088:	3940254c 	ldrb	w12, [x10, #9]
   8208c:	9100414a 	add	x10, x10, #0x10
   82090:	b3781d8b 	bfi	x11, x12, #8, #8
   82094:	b3703dcb 	bfi	x11, x14, #16, #16
   82098:	b3607deb 	bfi	x11, x15, #32, #32
   8209c:	f90007eb 	str	x11, [sp, #8]
   820a0:	3dc003f2 	ldr	q18, [sp]
   820a4:	4e213652 	cmgt	v18.16b, v18.16b, v1.16b
   820a8:	2f08a653 	uxtl	v19.8h, v18.8b
   820ac:	6f08a652 	uxtl2	v18.8h, v18.16b
   820b0:	2f10a674 	uxtl	v20.4s, v19.4h
   820b4:	6f10a673 	uxtl2	v19.4s, v19.8h
   820b8:	2f10a655 	uxtl	v21.4s, v18.4h
   820bc:	6f10a652 	uxtl2	v18.4s, v18.8h
   820c0:	2f20a696 	uxtl	v22.2d, v20.2s
   820c4:	6f20a694 	uxtl2	v20.2d, v20.4s
   820c8:	2f20a677 	uxtl	v23.2d, v19.2s
   820cc:	2f20a6b8 	uxtl	v24.2d, v21.2s
   820d0:	6f20a673 	uxtl2	v19.2d, v19.4s
   820d4:	6f20a6b5 	uxtl2	v21.2d, v21.4s
   820d8:	2f20a659 	uxtl	v25.2d, v18.2s
   820dc:	6f20a652 	uxtl2	v18.2d, v18.4s
   820e0:	4e311ed6 	and	v22.16b, v22.16b, v17.16b
   820e4:	4e311e94 	and	v20.16b, v20.16b, v17.16b
   820e8:	4e311ef7 	and	v23.16b, v23.16b, v17.16b
   820ec:	4e311f18 	and	v24.16b, v24.16b, v17.16b
   820f0:	4e311e73 	and	v19.16b, v19.16b, v17.16b
   820f4:	4e311eb5 	and	v21.16b, v21.16b, v17.16b
   820f8:	4e311f39 	and	v25.16b, v25.16b, v17.16b
   820fc:	4e311e52 	and	v18.16b, v18.16b, v17.16b
   82100:	4ef284e7 	add	v7.2d, v7.2d, v18.2d
   82104:	4ef98610 	add	v16.2d, v16.2d, v25.2d
   82108:	4ef584a5 	add	v5.2d, v5.2d, v21.2d
   8210c:	4ef38463 	add	v3.2d, v3.2d, v19.2d
   82110:	4ef884c6 	add	v6.2d, v6.2d, v24.2d
   82114:	4ef78484 	add	v4.2d, v4.2d, v23.2d
   82118:	4ef48442 	add	v2.2d, v2.2d, v20.2d
   8211c:	4ef68400 	add	v0.2d, v0.2d, v22.2d
   82120:	54fff781 	b.ne	82010 <_ZN4core3str5count14do_count_chars17hf4570e7a07268196E+0xcc>  // b.any
   82124:	4ee68400 	add	v0.2d, v0.2d, v6.2d
   82128:	eb01013f 	cmp	x9, x1
   8212c:	4ef08481 	add	v1.2d, v4.2d, v16.2d
   82130:	4ee58442 	add	v2.2d, v2.2d, v5.2d
   82134:	4ee78463 	add	v3.2d, v3.2d, v7.2d
   82138:	4ee18400 	add	v0.2d, v0.2d, v1.2d
   8213c:	4ee38441 	add	v1.2d, v2.2d, v3.2d
   82140:	4ee18400 	add	v0.2d, v0.2d, v1.2d
   82144:	5ef1b800 	addp	d0, v0.2d
   82148:	9e660008 	fmov	x8, d0
   8214c:	54fff2c0 	b.eq	81fa4 <_ZN4core3str5count14do_count_chars17hf4570e7a07268196E+0x60>  // b.none
   82150:	37180061 	tbnz	w1, #3, 8215c <_ZN4core3str5count14do_count_chars17hf4570e7a07268196E+0x218>
   82154:	8b09000a 	add	x10, x0, x9
   82158:	14000037 	b	82234 <_ZN4core3str5count14do_count_chars17hf4570e7a07268196E+0x2f0>
   8215c:	6f00e400 	movi	v0.2d, #0x0
   82160:	5280002c 	mov	w12, #0x1                   	// #1
   82164:	927df02b 	and	x11, x1, #0xfffffffffffffff8
   82168:	0f05e7e2 	movi	v2.8b, #0xbf
   8216c:	6f00e401 	movi	v1.2d, #0x0
   82170:	8b0b000a 	add	x10, x0, x11
   82174:	6f00e403 	movi	v3.2d, #0x0
   82178:	4e081d00 	mov	v0.d[0], x8
   8217c:	8b090008 	add	x8, x0, x9
   82180:	6f00e404 	movi	v4.2d, #0x0
   82184:	cb0b0129 	sub	x9, x9, x11
   82188:	4e080d85 	dup	v5.2d, x12
   8218c:	aa0803ec 	mov	x12, x8
   82190:	3940150f 	ldrb	w15, [x8, #5]
   82194:	39400910 	ldrb	w16, [x8, #2]
   82198:	b1002129 	adds	x9, x9, #0x8
   8219c:	38404d8d 	ldrb	w13, [x12, #4]!
   821a0:	39400d8e 	ldrb	w14, [x12, #3]
   821a4:	3940098c 	ldrb	w12, [x12, #2]
   821a8:	33181ded 	bfi	w13, w15, #8, #8
   821ac:	3940050f 	ldrb	w15, [x8, #1]
   821b0:	33181dcc 	bfi	w12, w14, #8, #8
   821b4:	39400d0e 	ldrb	w14, [x8, #3]
   821b8:	33103d8d 	bfi	w13, w12, #16, #16
   821bc:	b3781dd0 	bfi	x16, x14, #8, #8
   821c0:	3840850c 	ldrb	w12, [x8], #8
   821c4:	b3781dec 	bfi	x12, x15, #8, #8
   821c8:	b3703e0c 	bfi	x12, x16, #16, #16
   821cc:	b3607dac 	bfi	x12, x13, #32, #32
   821d0:	9e670186 	fmov	d6, x12
   821d4:	0e2234c6 	cmgt	v6.8b, v6.8b, v2.8b
   821d8:	2f08a4c6 	uxtl	v6.8h, v6.8b
   821dc:	2f10a4c7 	uxtl	v7.4s, v6.4h
   821e0:	6f10a4c6 	uxtl2	v6.4s, v6.8h
   821e4:	2f20a4f0 	uxtl	v16.2d, v7.2s
   821e8:	6f20a4e7 	uxtl2	v7.2d, v7.4s
   821ec:	2f20a4d1 	uxtl	v17.2d, v6.2s
   821f0:	6f20a4c6 	uxtl2	v6.2d, v6.4s
   821f4:	4e251e10 	and	v16.16b, v16.16b, v5.16b
   821f8:	4e251ce7 	and	v7.16b, v7.16b, v5.16b
   821fc:	4e251e31 	and	v17.16b, v17.16b, v5.16b
   82200:	4e251cc6 	and	v6.16b, v6.16b, v5.16b
   82204:	4ee68484 	add	v4.2d, v4.2d, v6.2d
   82208:	4ef18463 	add	v3.2d, v3.2d, v17.2d
   8220c:	4ee78421 	add	v1.2d, v1.2d, v7.2d
   82210:	4ef08400 	add	v0.2d, v0.2d, v16.2d
   82214:	54fffbc1 	b.ne	8218c <_ZN4core3str5count14do_count_chars17hf4570e7a07268196E+0x248>  // b.any
   82218:	4ee38400 	add	v0.2d, v0.2d, v3.2d
   8221c:	eb01017f 	cmp	x11, x1
   82220:	4ee48421 	add	v1.2d, v1.2d, v4.2d
   82224:	4ee18400 	add	v0.2d, v0.2d, v1.2d
   82228:	5ef1b800 	addp	d0, v0.2d
   8222c:	9e660008 	fmov	x8, d0
   82230:	54ffeba0 	b.eq	81fa4 <_ZN4core3str5count14do_count_chars17hf4570e7a07268196E+0x60>  // b.none
   82234:	8b010009 	add	x9, x0, x1
   82238:	38c0154b 	ldrsb	w11, [x10], #1
   8223c:	3101057f 	cmn	w11, #0x41
   82240:	9a88d508 	cinc	x8, x8, gt
   82244:	eb09015f 	cmp	x10, x9
   82248:	54ffff81 	b.ne	82238 <_ZN4core3str5count14do_count_chars17hf4570e7a07268196E+0x2f4>  // b.any
   8224c:	17ffff56 	b	81fa4 <_ZN4core3str5count14do_count_chars17hf4570e7a07268196E+0x60>
   82250:	f100417f 	cmp	x11, #0x10
   82254:	54000742 	b.cs	8233c <_ZN4core3str5count14do_count_chars17hf4570e7a07268196E+0x3f8>  // b.hs, b.nlast
   82258:	aa1f03ed 	mov	x13, xzr
   8225c:	aa1f03ec 	mov	x12, xzr
   82260:	6f00e400 	movi	v0.2d, #0x0
   82264:	52800030 	mov	w16, #0x1                   	// #1
   82268:	927df16f 	and	x15, x11, #0xfffffffffffffff8
   8226c:	0f05e7e2 	movi	v2.8b, #0xbf
   82270:	6f00e401 	movi	v1.2d, #0x0
   82274:	8b0f000e 	add	x14, x0, x15
   82278:	6f00e403 	movi	v3.2d, #0x0
   8227c:	4e081da0 	mov	v0.d[0], x13
   82280:	8b0c000d 	add	x13, x0, x12
   82284:	6f00e404 	movi	v4.2d, #0x0
   82288:	cb0f018c 	sub	x12, x12, x15
   8228c:	4e080e05 	dup	v5.2d, x16
   82290:	aa0d03f0 	mov	x16, x13
   82294:	394015a0 	ldrb	w0, [x13, #5]
   82298:	394009a1 	ldrb	w1, [x13, #2]
   8229c:	b100218c 	adds	x12, x12, #0x8
   822a0:	38404e11 	ldrb	w17, [x16, #4]!
   822a4:	39400e12 	ldrb	w18, [x16, #3]
   822a8:	39400a10 	ldrb	w16, [x16, #2]
   822ac:	33181c11 	bfi	w17, w0, #8, #8
   822b0:	394005a0 	ldrb	w0, [x13, #1]
   822b4:	33181e50 	bfi	w16, w18, #8, #8
   822b8:	39400db2 	ldrb	w18, [x13, #3]
   822bc:	33103e11 	bfi	w17, w16, #16, #16
   822c0:	b3781e41 	bfi	x1, x18, #8, #8
   822c4:	384085b0 	ldrb	w16, [x13], #8
   822c8:	b3781c10 	bfi	x16, x0, #8, #8
   822cc:	b3703c30 	bfi	x16, x1, #16, #16
   822d0:	b3607e30 	bfi	x16, x17, #32, #32
   822d4:	9e670206 	fmov	d6, x16
   822d8:	0e2234c6 	cmgt	v6.8b, v6.8b, v2.8b
   822dc:	2f08a4c6 	uxtl	v6.8h, v6.8b
   822e0:	2f10a4c7 	uxtl	v7.4s, v6.4h
   822e4:	6f10a4c6 	uxtl2	v6.4s, v6.8h
   822e8:	2f20a4f0 	uxtl	v16.2d, v7.2s
   822ec:	6f20a4e7 	uxtl2	v7.2d, v7.4s
   822f0:	2f20a4d1 	uxtl	v17.2d, v6.2s
   822f4:	6f20a4c6 	uxtl2	v6.2d, v6.4s
   822f8:	4e251e10 	and	v16.16b, v16.16b, v5.16b
   822fc:	4e251ce7 	and	v7.16b, v7.16b, v5.16b
   82300:	4e251e31 	and	v17.16b, v17.16b, v5.16b
   82304:	4e251cc6 	and	v6.16b, v6.16b, v5.16b
   82308:	4ee68484 	add	v4.2d, v4.2d, v6.2d
   8230c:	4ef18463 	add	v3.2d, v3.2d, v17.2d
   82310:	4ee78421 	add	v1.2d, v1.2d, v7.2d
   82314:	4ef08400 	add	v0.2d, v0.2d, v16.2d
   82318:	54fffbc1 	b.ne	82290 <_ZN4core3str5count14do_count_chars17hf4570e7a07268196E+0x34c>  // b.any
   8231c:	4ee38400 	add	v0.2d, v0.2d, v3.2d
   82320:	eb0f017f 	cmp	x11, x15
   82324:	4ee48421 	add	v1.2d, v1.2d, v4.2d
   82328:	4ee18400 	add	v0.2d, v0.2d, v1.2d
   8232c:	5ef1b800 	addp	d0, v0.2d
   82330:	9e66000d 	fmov	x13, d0
   82334:	54000c41 	b.ne	824bc <_ZN4core3str5count14do_count_chars17hf4570e7a07268196E+0x578>  // b.any
   82338:	14000066 	b	824d0 <_ZN4core3str5count14do_count_chars17hf4570e7a07268196E+0x58c>
   8233c:	5280002f 	mov	w15, #0x1                   	// #1
   82340:	927ced6c 	and	x12, x11, #0xfffffffffffffff0
   82344:	6f00e400 	movi	v0.2d, #0x0
   82348:	aa0c03ed 	mov	x13, x12
   8234c:	4f05e7e1 	movi	v1.16b, #0xbf
   82350:	aa0003ee 	mov	x14, x0
   82354:	6f00e402 	movi	v2.2d, #0x0
   82358:	6f00e404 	movi	v4.2d, #0x0
   8235c:	6f00e403 	movi	v3.2d, #0x0
   82360:	6f00e406 	movi	v6.2d, #0x0
   82364:	6f00e405 	movi	v5.2d, #0x0
   82368:	6f00e410 	movi	v16.2d, #0x0
   8236c:	6f00e407 	movi	v7.2d, #0x0
   82370:	4e080df1 	dup	v17.2d, x15
   82374:	aa0e03ef 	mov	x15, x14
   82378:	394015d2 	ldrb	w18, [x14, #5]
   8237c:	394009c1 	ldrb	w1, [x14, #2]
   82380:	f10041ad 	subs	x13, x13, #0x10
   82384:	38404df0 	ldrb	w16, [x15, #4]!
   82388:	39400df1 	ldrb	w17, [x15, #3]
   8238c:	394009ef 	ldrb	w15, [x15, #2]
   82390:	33181e50 	bfi	w16, w18, #8, #8
   82394:	394005d2 	ldrb	w18, [x14, #1]
   82398:	33181e2f 	bfi	w15, w17, #8, #8
   8239c:	39400dd1 	ldrb	w17, [x14, #3]
   823a0:	33103df0 	bfi	w16, w15, #16, #16
   823a4:	394001cf 	ldrb	w15, [x14]
   823a8:	b3781e21 	bfi	x1, x17, #8, #8
   823ac:	b3781e4f 	bfi	x15, x18, #8, #8
   823b0:	b3703c2f 	bfi	x15, x1, #16, #16
   823b4:	b3607e0f 	bfi	x15, x16, #32, #32
   823b8:	aa0e03f0 	mov	x16, x14
   823bc:	f9001bef 	str	x15, [sp, #48]
   823c0:	38408e0f 	ldrb	w15, [x16, #8]!
   823c4:	39400e11 	ldrb	w17, [x16, #3]
   823c8:	39400a12 	ldrb	w18, [x16, #2]
   823cc:	38404e01 	ldrb	w1, [x16, #4]!
   823d0:	39400e02 	ldrb	w2, [x16, #3]
   823d4:	39400a10 	ldrb	w16, [x16, #2]
   823d8:	b3781e32 	bfi	x18, x17, #8, #8
   823dc:	394035c3 	ldrb	w3, [x14, #13]
   823e0:	33181c50 	bfi	w16, w2, #8, #8
   823e4:	33181c61 	bfi	w1, w3, #8, #8
   823e8:	33103e01 	bfi	w1, w16, #16, #16
   823ec:	394025d0 	ldrb	w16, [x14, #9]
   823f0:	910041ce 	add	x14, x14, #0x10
   823f4:	b3781e0f 	bfi	x15, x16, #8, #8
   823f8:	b3703e4f 	bfi	x15, x18, #16, #16
   823fc:	b3607c2f 	bfi	x15, x1, #32, #32
   82400:	f9001fef 	str	x15, [sp, #56]
   82404:	3dc00ff2 	ldr	q18, [sp, #48]
   82408:	4e213652 	cmgt	v18.16b, v18.16b, v1.16b
   8240c:	2f08a653 	uxtl	v19.8h, v18.8b
   82410:	6f08a652 	uxtl2	v18.8h, v18.16b
   82414:	2f10a674 	uxtl	v20.4s, v19.4h
   82418:	6f10a673 	uxtl2	v19.4s, v19.8h
   8241c:	2f10a655 	uxtl	v21.4s, v18.4h
   82420:	6f10a652 	uxtl2	v18.4s, v18.8h
   82424:	2f20a696 	uxtl	v22.2d, v20.2s
   82428:	6f20a694 	uxtl2	v20.2d, v20.4s
   8242c:	2f20a677 	uxtl	v23.2d, v19.2s
   82430:	2f20a6b8 	uxtl	v24.2d, v21.2s
   82434:	6f20a673 	uxtl2	v19.2d, v19.4s
   82438:	6f20a6b5 	uxtl2	v21.2d, v21.4s
   8243c:	2f20a659 	uxtl	v25.2d, v18.2s
   82440:	6f20a652 	uxtl2	v18.2d, v18.4s
   82444:	4e311ed6 	and	v22.16b, v22.16b, v17.16b
   82448:	4e311e94 	and	v20.16b, v20.16b, v17.16b
   8244c:	4e311ef7 	and	v23.16b, v23.16b, v17.16b
   82450:	4e311f18 	and	v24.16b, v24.16b, v17.16b
   82454:	4e311e73 	and	v19.16b, v19.16b, v17.16b
   82458:	4e311eb5 	and	v21.16b, v21.16b, v17.16b
   8245c:	4e311f39 	and	v25.16b, v25.16b, v17.16b
   82460:	4e311e52 	and	v18.16b, v18.16b, v17.16b
   82464:	4ef284e7 	add	v7.2d, v7.2d, v18.2d
   82468:	4ef98610 	add	v16.2d, v16.2d, v25.2d
   8246c:	4ef584a5 	add	v5.2d, v5.2d, v21.2d
   82470:	4ef38463 	add	v3.2d, v3.2d, v19.2d
   82474:	4ef884c6 	add	v6.2d, v6.2d, v24.2d
   82478:	4ef78484 	add	v4.2d, v4.2d, v23.2d
   8247c:	4ef48442 	add	v2.2d, v2.2d, v20.2d
   82480:	4ef68400 	add	v0.2d, v0.2d, v22.2d
   82484:	54fff781 	b.ne	82374 <_ZN4core3str5count14do_count_chars17hf4570e7a07268196E+0x430>  // b.any
   82488:	4ee68400 	add	v0.2d, v0.2d, v6.2d
   8248c:	eb0c017f 	cmp	x11, x12
   82490:	4ef08481 	add	v1.2d, v4.2d, v16.2d
   82494:	4ee58442 	add	v2.2d, v2.2d, v5.2d
   82498:	4ee78463 	add	v3.2d, v3.2d, v7.2d
   8249c:	4ee18400 	add	v0.2d, v0.2d, v1.2d
   824a0:	4ee38441 	add	v1.2d, v2.2d, v3.2d
   824a4:	4ee18400 	add	v0.2d, v0.2d, v1.2d
   824a8:	5ef1b800 	addp	d0, v0.2d
   824ac:	9e66000d 	fmov	x13, d0
   824b0:	54000100 	b.eq	824d0 <_ZN4core3str5count14do_count_chars17hf4570e7a07268196E+0x58c>  // b.none
   824b4:	371fed6b 	tbnz	w11, #3, 82260 <_ZN4core3str5count14do_count_chars17hf4570e7a07268196E+0x31c>
   824b8:	8b0c000e 	add	x14, x0, x12
   824bc:	38c015cb 	ldrsb	w11, [x14], #1
   824c0:	3101057f 	cmn	w11, #0x41
   824c4:	9a8dd5ad 	cinc	x13, x13, gt
   824c8:	eb0901df 	cmp	x14, x9
   824cc:	54ffff81 	b.ne	824bc <_ZN4core3str5count14do_count_chars17hf4570e7a07268196E+0x578>  // b.any
   824d0:	d343fd4b 	lsr	x11, x10, #3
   824d4:	b40004a8 	cbz	x8, 82568 <_ZN4core3str5count14do_count_chars17hf4570e7a07268196E+0x624>
   824d8:	927df14a 	and	x10, x10, #0xfffffffffffffff8
   824dc:	8b0a012c 	add	x12, x9, x10
   824e0:	39c0018a 	ldrsb	w10, [x12]
   824e4:	3101055f 	cmn	w10, #0x41
   824e8:	1a9fd7ea 	cset	w10, gt
   824ec:	f100051f 	cmp	x8, #0x1
   824f0:	540003e0 	b.eq	8256c <_ZN4core3str5count14do_count_chars17hf4570e7a07268196E+0x628>  // b.none
   824f4:	39c0058e 	ldrsb	w14, [x12, #1]
   824f8:	310105df 	cmn	w14, #0x41
   824fc:	9a8ad54a 	cinc	x10, x10, gt
   82500:	f100091f 	cmp	x8, #0x2
   82504:	54000340 	b.eq	8256c <_ZN4core3str5count14do_count_chars17hf4570e7a07268196E+0x628>  // b.none
   82508:	39c0098e 	ldrsb	w14, [x12, #2]
   8250c:	310105df 	cmn	w14, #0x41
   82510:	9a8ad54a 	cinc	x10, x10, gt
   82514:	f1000d1f 	cmp	x8, #0x3
   82518:	540002a0 	b.eq	8256c <_ZN4core3str5count14do_count_chars17hf4570e7a07268196E+0x628>  // b.none
   8251c:	39c00d8e 	ldrsb	w14, [x12, #3]
   82520:	310105df 	cmn	w14, #0x41
   82524:	9a8ad54a 	cinc	x10, x10, gt
   82528:	f100111f 	cmp	x8, #0x4
   8252c:	54000200 	b.eq	8256c <_ZN4core3str5count14do_count_chars17hf4570e7a07268196E+0x628>  // b.none
   82530:	39c0118e 	ldrsb	w14, [x12, #4]
   82534:	310105df 	cmn	w14, #0x41
   82538:	9a8ad54a 	cinc	x10, x10, gt
   8253c:	f100151f 	cmp	x8, #0x5
   82540:	54000160 	b.eq	8256c <_ZN4core3str5count14do_count_chars17hf4570e7a07268196E+0x628>  // b.none
   82544:	39c0158e 	ldrsb	w14, [x12, #5]
   82548:	310105df 	cmn	w14, #0x41
   8254c:	9a8ad54a 	cinc	x10, x10, gt
   82550:	f100191f 	cmp	x8, #0x6
   82554:	540000c0 	b.eq	8256c <_ZN4core3str5count14do_count_chars17hf4570e7a07268196E+0x628>  // b.none
   82558:	39c01988 	ldrsb	w8, [x12, #6]
   8255c:	3101051f 	cmn	w8, #0x41
   82560:	9a8ad54a 	cinc	x10, x10, gt
   82564:	14000002 	b	8256c <_ZN4core3str5count14do_count_chars17hf4570e7a07268196E+0x628>
   82568:	aa1f03ea 	mov	x10, xzr
   8256c:	8b0d0148 	add	x8, x10, x13
   82570:	5280080d 	mov	w13, #0x40                  	// #64
   82574:	4f00e420 	movi	v0.16b, #0x1
   82578:	5280180a 	mov	w10, #0xc0                  	// #192
   8257c:	b20083ec 	mov	x12, #0x1000100010001       	// #281479271743489
   82580:	4e080da1 	dup	v1.2d, x13
   82584:	1400000b 	b	825b0 <_ZN4core3str5count14do_count_chars17hf4570e7a07268196E+0x66c>
   82588:	aa1f03e0 	mov	x0, xzr
   8258c:	d348fc0f 	lsr	x15, x0, #8
   82590:	92009c10 	and	x16, x0, #0xff00ff00ff00ff
   82594:	92009def 	and	x15, x15, #0xff00ff00ff00ff
   82598:	8b1001ef 	add	x15, x15, x16
   8259c:	9b0c7df0 	mul	x16, x15, x12
   825a0:	9240052f 	and	x15, x9, #0x3
   825a4:	8b090da9 	add	x9, x13, x9, lsl #3
   825a8:	8b50c108 	add	x8, x8, x16, lsr #48
   825ac:	b5000def 	cbnz	x15, 82768 <_ZN4core3str5count14do_count_chars17hf4570e7a07268196E+0x824>
   825b0:	b4ffcfab 	cbz	x11, 81fa4 <_ZN4core3str5count14do_count_chars17hf4570e7a07268196E+0x60>
   825b4:	f103017f 	cmp	x11, #0xc0
   825b8:	aa0903ed 	mov	x13, x9
   825bc:	9a8a3169 	csel	x9, x11, x10, cc  // cc = lo, ul, last
   825c0:	cb09016b 	sub	x11, x11, x9
   825c4:	f27e152e 	ands	x14, x9, #0xfc
   825c8:	54fffe00 	b.eq	82588 <_ZN4core3str5count14do_count_chars17hf4570e7a07268196E+0x644>  // b.none
   825cc:	d342fd30 	lsr	x16, x9, #2
   825d0:	d100060f 	sub	x15, x16, #0x1
   825d4:	9240e9ef 	and	x15, x15, #0x7ffffffffffffff
   825d8:	f1000dff 	cmp	x15, #0x3
   825dc:	54000082 	b.cs	825ec <_ZN4core3str5count14do_count_chars17hf4570e7a07268196E+0x6a8>  // b.hs, b.nlast
   825e0:	aa1f03e0 	mov	x0, xzr
   825e4:	aa0d03ef 	mov	x15, x13
   825e8:	14000045 	b	826fc <_ZN4core3str5count14do_count_chars17hf4570e7a07268196E+0x7b8>
   825ec:	910005f1 	add	x17, x15, #0x1
   825f0:	aa0d03e1 	mov	x1, x13
   825f4:	927ee632 	and	x18, x17, #0xffffffffffffffc
   825f8:	6f00e402 	movi	v2.2d, #0x0
   825fc:	aa1203e0 	mov	x0, x18
   82600:	6f00e403 	movi	v3.2d, #0x0
   82604:	8b1215af 	add	x15, x13, x18, lsl #5
   82608:	4e080c30 	dup	v16.2d, x1
   8260c:	4c400c24 	ld4	{v4.2d-v7.2d}, [x1]
   82610:	91020021 	add	x1, x1, #0x80
   82614:	f1001000 	subs	x0, x0, #0x4
   82618:	4ee18610 	add	v16.2d, v16.2d, v1.2d
   8261c:	9e660202 	fmov	x2, d16
   82620:	4c400c50 	ld4	{v16.2d-v19.2d}, [x2]
   82624:	6e205894 	mvn	v20.16b, v4.16b
   82628:	6f7a0496 	ushr	v22.2d, v4.2d, #6
   8262c:	6f790694 	ushr	v20.2d, v20.2d, #7
   82630:	6e2058b5 	mvn	v21.16b, v5.16b
   82634:	6f7a04b7 	ushr	v23.2d, v5.2d, #6
   82638:	6f7906b5 	ushr	v21.2d, v21.2d, #7
   8263c:	4eb61e94 	orr	v20.16b, v20.16b, v22.16b
   82640:	6f7a04e4 	ushr	v4.2d, v7.2d, #6
   82644:	4e201e94 	and	v20.16b, v20.16b, v0.16b
   82648:	4eb71eb5 	orr	v21.16b, v21.16b, v23.16b
   8264c:	4ee28682 	add	v2.2d, v20.2d, v2.2d
   82650:	4e201eb5 	and	v21.16b, v21.16b, v0.16b
   82654:	6e205a14 	mvn	v20.16b, v16.16b
   82658:	4ee286a2 	add	v2.2d, v21.2d, v2.2d
   8265c:	6f7a0615 	ushr	v21.2d, v16.2d, #6
   82660:	6f790694 	ushr	v20.2d, v20.2d, #7
   82664:	6f7a0637 	ushr	v23.2d, v17.2d, #6
   82668:	6e205a36 	mvn	v22.16b, v17.16b
   8266c:	6f7906d6 	ushr	v22.2d, v22.2d, #7
   82670:	4eb51e94 	orr	v20.16b, v20.16b, v21.16b
   82674:	4e201e94 	and	v20.16b, v20.16b, v0.16b
   82678:	4eb71ed6 	orr	v22.16b, v22.16b, v23.16b
   8267c:	4ee38683 	add	v3.2d, v20.2d, v3.2d
   82680:	6e2058d5 	mvn	v21.16b, v6.16b
   82684:	6e205a57 	mvn	v23.16b, v18.16b
   82688:	4e201ed4 	and	v20.16b, v22.16b, v0.16b
   8268c:	4ee38683 	add	v3.2d, v20.2d, v3.2d
   82690:	6f7a04d4 	ushr	v20.2d, v6.2d, #6
   82694:	6f7906b5 	ushr	v21.2d, v21.2d, #7
   82698:	6f7a0656 	ushr	v22.2d, v18.2d, #6
   8269c:	6f7906f7 	ushr	v23.2d, v23.2d, #7
   826a0:	6f7a0666 	ushr	v6.2d, v19.2d, #6
   826a4:	4eb41eb4 	orr	v20.16b, v21.16b, v20.16b
   826a8:	4eb61ef5 	orr	v21.16b, v23.16b, v22.16b
   826ac:	4e201e94 	and	v20.16b, v20.16b, v0.16b
   826b0:	4e201eb5 	and	v21.16b, v21.16b, v0.16b
   826b4:	4ee28682 	add	v2.2d, v20.2d, v2.2d
   826b8:	4ee386a3 	add	v3.2d, v21.2d, v3.2d
   826bc:	6e2058f4 	mvn	v20.16b, v7.16b
   826c0:	6e205a75 	mvn	v21.16b, v19.16b
   826c4:	6f790694 	ushr	v20.2d, v20.2d, #7
   826c8:	6f7906a5 	ushr	v5.2d, v21.2d, #7
   826cc:	4ea41e84 	orr	v4.16b, v20.16b, v4.16b
   826d0:	4ea61ca5 	orr	v5.16b, v5.16b, v6.16b
   826d4:	4e201c84 	and	v4.16b, v4.16b, v0.16b
   826d8:	4e201ca5 	and	v5.16b, v5.16b, v0.16b
   826dc:	4ee28482 	add	v2.2d, v4.2d, v2.2d
   826e0:	4ee384a3 	add	v3.2d, v5.2d, v3.2d
   826e4:	54fff921 	b.ne	82608 <_ZN4core3str5count14do_count_chars17hf4570e7a07268196E+0x6c4>  // b.any
   826e8:	4ee28462 	add	v2.2d, v3.2d, v2.2d
   826ec:	eb12023f 	cmp	x17, x18
   826f0:	5ef1b842 	addp	d2, v2.2d
   826f4:	9e660040 	fmov	x0, d2
   826f8:	54fff4a0 	b.eq	8258c <_ZN4core3str5count14do_count_chars17hf4570e7a07268196E+0x648>  // b.none
   826fc:	8b1015b0 	add	x16, x13, x16, lsl #5
   82700:	f9400df1 	ldr	x17, [x15, #24]
   82704:	f90017f1 	str	x17, [sp, #40]
   82708:	f94009f1 	ldr	x17, [x15, #16]
   8270c:	f90013f1 	str	x17, [sp, #32]
   82710:	f94005f1 	ldr	x17, [x15, #8]
   82714:	f9000ff1 	str	x17, [sp, #24]
   82718:	f84205f1 	ldr	x17, [x15], #32
   8271c:	eb1001ff 	cmp	x15, x16
   82720:	f9000bf1 	str	x17, [sp, #16]
   82724:	ad408fe2 	ldp	q2, q3, [sp, #16]
   82728:	6e205844 	mvn	v4.16b, v2.16b
   8272c:	6f7a0442 	ushr	v2.2d, v2.2d, #6
   82730:	6f790484 	ushr	v4.2d, v4.2d, #7
   82734:	6e205865 	mvn	v5.16b, v3.16b
   82738:	6f7a0463 	ushr	v3.2d, v3.2d, #6
   8273c:	6f7904a5 	ushr	v5.2d, v5.2d, #7
   82740:	4ea21c82 	orr	v2.16b, v4.16b, v2.16b
   82744:	4ea31ca3 	orr	v3.16b, v5.16b, v3.16b
   82748:	4e201c63 	and	v3.16b, v3.16b, v0.16b
   8274c:	4e201c42 	and	v2.16b, v2.16b, v0.16b
   82750:	4ee38442 	add	v2.2d, v2.2d, v3.2d
   82754:	5ef1b842 	addp	d2, v2.2d
   82758:	9e660051 	fmov	x17, d2
   8275c:	8b000220 	add	x0, x17, x0
   82760:	54fffd01 	b.ne	82700 <_ZN4core3str5count14do_count_chars17hf4570e7a07268196E+0x7bc>  // b.any
   82764:	17ffff8a 	b	8258c <_ZN4core3str5count14do_count_chars17hf4570e7a07268196E+0x648>
   82768:	8b0e0daa 	add	x10, x13, x14, lsl #3
   8276c:	f10005ff 	cmp	x15, #0x1
   82770:	f9400149 	ldr	x9, [x10]
   82774:	aa2903eb 	mvn	x11, x9
   82778:	d347fd6b 	lsr	x11, x11, #7
   8277c:	aa491969 	orr	x9, x11, x9, lsr #6
   82780:	9200c129 	and	x9, x9, #0x101010101010101
   82784:	540001e0 	b.eq	827c0 <_ZN4core3str5count14do_count_chars17hf4570e7a07268196E+0x87c>  // b.none
   82788:	f940054b 	ldr	x11, [x10, #8]
   8278c:	f10009ff 	cmp	x15, #0x2
   82790:	aa2b03ec 	mvn	x12, x11
   82794:	d347fd8c 	lsr	x12, x12, #7
   82798:	aa4b198b 	orr	x11, x12, x11, lsr #6
   8279c:	9200c16b 	and	x11, x11, #0x101010101010101
   827a0:	8b090169 	add	x9, x11, x9
   827a4:	540000e0 	b.eq	827c0 <_ZN4core3str5count14do_count_chars17hf4570e7a07268196E+0x87c>  // b.none
   827a8:	f940094a 	ldr	x10, [x10, #16]
   827ac:	aa2a03eb 	mvn	x11, x10
   827b0:	d347fd6b 	lsr	x11, x11, #7
   827b4:	aa4a196a 	orr	x10, x11, x10, lsr #6
   827b8:	9200c14a 	and	x10, x10, #0x101010101010101
   827bc:	8b090149 	add	x9, x10, x9
   827c0:	d348fd2a 	lsr	x10, x9, #8
   827c4:	92009d29 	and	x9, x9, #0xff00ff00ff00ff
   827c8:	92009d4a 	and	x10, x10, #0xff00ff00ff00ff
   827cc:	8b090149 	add	x9, x10, x9
   827d0:	b20083ea 	mov	x10, #0x1000100010001       	// #281479271743489
   827d4:	9b0a7d29 	mul	x9, x9, x10
   827d8:	8b49c108 	add	x8, x8, x9, lsr #48
   827dc:	aa0803e0 	mov	x0, x8
   827e0:	910103ff 	add	sp, sp, #0x40
   827e4:	d65f03c0 	ret

00000000000827e8 <_ZN36_$LT$T$u20$as$u20$core..any..Any$GT$7type_id17h84a8d0140d83df87E>:
   827e8:	d2928ee0 	mov	x0, #0x9477                	// #38007
   827ec:	f2a21840 	movk	x0, #0x10c2, lsl #16
   827f0:	f2c77e60 	movk	x0, #0x3bf3, lsl #32
   827f4:	f2f0a480 	movk	x0, #0x8524, lsl #48
   827f8:	d65f03c0 	ret

00000000000827fc <_ZN4core5panic10panic_info9PanicInfo7message17h593763465f5aa4e8E>:
   827fc:	f9400800 	ldr	x0, [x0, #16]
   82800:	d65f03c0 	ret

0000000000082804 <_ZN4core5panic10panic_info9PanicInfo8location17hd9b6516e7f2b1d71E>:
   82804:	f9400c00 	ldr	x0, [x0, #24]
   82808:	d65f03c0 	ret

000000000008280c <_ZN4core3ops8function6FnOnce9call_once17ha37347490044127fE>:
   8280c:	94000004 	bl	8281c <_ZN4core5slice5index29slice_start_index_len_fail_rt17hd2d48a368c9a93ebE>
   82810:	d4200020 	brk	#0x1

0000000000082814 <_ZN4core5slice5index26slice_start_index_len_fail17hd430acefd806b1e2E>:
   82814:	97fffffe 	bl	8280c <_ZN4core3ops8function6FnOnce9call_once17ha37347490044127fE>
   82818:	d4200020 	brk	#0x1

000000000008281c <_ZN4core5slice5index29slice_start_index_len_fail_rt17hd2d48a368c9a93ebE>:
   8281c:	d10183ff 	sub	sp, sp, #0x60
   82820:	910003e8 	mov	x8, sp
   82824:	90000009 	adrp	x9, 82000 <_ZN4core3str5count14do_count_chars17hf4570e7a07268196E+0xbc>
   82828:	91279129 	add	x9, x9, #0x9e4
   8282c:	910023ea 	add	x10, sp, #0x8
   82830:	a90007e0 	stp	x0, x1, [sp]
   82834:	d0000001 	adrp	x1, 84000 <_ZN17compiler_builtins3mem6memcpy17h5498ba8912cb5f38E+0x6d4>
   82838:	9125e021 	add	x1, x1, #0x978
   8283c:	910043e0 	add	x0, sp, #0x10
   82840:	a90427e8 	stp	x8, x9, [sp, #64]
   82844:	52800048 	mov	w8, #0x2                   	// #2
   82848:	a90527ea 	stp	x10, x9, [sp, #80]
   8284c:	d0000009 	adrp	x9, 84000 <_ZN17compiler_builtins3mem6memcpy17h5498ba8912cb5f38E+0x6d4>
   82850:	91236129 	add	x9, x9, #0x8d8
   82854:	a9027fff 	stp	xzr, xzr, [sp, #32]
   82858:	a90123e9 	stp	x9, x8, [sp, #16]
   8285c:	910103e9 	add	x9, sp, #0x40
   82860:	a90323e9 	stp	x9, x8, [sp, #48]
   82864:	94000425 	bl	838f8 <_ZN4core9panicking9panic_fmt17h2312ad85af3cbc59E>
   82868:	d4200020 	brk	#0x1

000000000008286c <_ZN4core3fmt3num3imp52_$LT$impl$u20$core..fmt..Display$u20$for$u20$u32$GT$3fmt17hc0fdabedba072d0dE>:
   8286c:	d10103ff 	sub	sp, sp, #0x40
   82870:	b9400009 	ldr	w9, [x0]
   82874:	f9001bfe 	str	x30, [sp, #48]
   82878:	d3447d28 	ubfx	x8, x9, #4, #28
   8287c:	7109c51f 	cmp	w8, #0x271
   82880:	d0000008 	adrp	x8, 84000 <_ZN17compiler_builtins3mem6memcpy17h5498ba8912cb5f38E+0x6d4>
   82884:	911f4908 	add	x8, x8, #0x7d2
   82888:	540004e3 	b.cc	82924 <_ZN4core3fmt3num3imp52_$LT$impl$u20$core..fmt..Display$u20$for$u20$u32$GT$3fmt17hc0fdabedba072d0dE+0xb8>  // b.lo, b.ul, b.last
   8288c:	d28b296a 	mov	x10, #0x594b                	// #22859
   82890:	529c1fef 	mov	w15, #0xe0ff                	// #57599
   82894:	f2a710ca 	movk	x10, #0x3886, lsl #16
   82898:	aa1f03f0 	mov	x16, xzr
   8289c:	f2d8baca 	movk	x10, #0xc5d6, lsl #32
   828a0:	5284e20b 	mov	w11, #0x2710                	// #10000
   828a4:	f2e68daa 	movk	x10, #0x346d, lsl #48
   828a8:	52828f6c 	mov	w12, #0x147b                	// #5243
   828ac:	52800c8d 	mov	w13, #0x64                  	// #100
   828b0:	910023ee 	add	x14, sp, #0x8
   828b4:	72a0beaf 	movk	w15, #0x5f5, lsl #16
   828b8:	aa0903f2 	mov	x18, x9
   828bc:	9bca7d29 	umulh	x9, x9, x10
   828c0:	eb0f025f 	cmp	x18, x15
   828c4:	d34bfd29 	lsr	x9, x9, #11
   828c8:	1b0bc931 	msub	w17, w9, w11, w18
   828cc:	53023e20 	ubfx	w0, w17, #2, #14
   828d0:	1b0c7c00 	mul	w0, w0, w12
   828d4:	53117c00 	lsr	w0, w0, #17
   828d8:	1b0dc402 	msub	w2, w0, w13, w17
   828dc:	8b204500 	add	x0, x8, w0, uxtw #1
   828e0:	aa1003f1 	mov	x17, x16
   828e4:	8b222510 	add	x16, x8, w2, uxth #1
   828e8:	8b1101c2 	add	x2, x14, x17
   828ec:	39400403 	ldrb	w3, [x0, #1]
   828f0:	39400000 	ldrb	w0, [x0]
   828f4:	39400604 	ldrb	w4, [x16, #1]
   828f8:	39009043 	strb	w3, [x2, #36]
   828fc:	39400203 	ldrb	w3, [x16]
   82900:	d1001230 	sub	x16, x17, #0x4
   82904:	39008c40 	strb	w0, [x2, #35]
   82908:	39009844 	strb	w4, [x2, #38]
   8290c:	39009443 	strb	w3, [x2, #37]
   82910:	54fffd48 	b.hi	828b8 <_ZN4core3fmt3num3imp52_$LT$impl$u20$core..fmt..Display$u20$for$u20$u32$GT$3fmt17hc0fdabedba072d0dE+0x4c>  // b.pmore
   82914:	91008e2a 	add	x10, x17, #0x23
   82918:	f1018d3f 	cmp	x9, #0x63
   8291c:	540000a8 	b.hi	82930 <_ZN4core3fmt3num3imp52_$LT$impl$u20$core..fmt..Display$u20$for$u20$u32$GT$3fmt17hc0fdabedba072d0dE+0xc4>  // b.pmore
   82920:	14000014 	b	82970 <_ZN4core3fmt3num3imp52_$LT$impl$u20$core..fmt..Display$u20$for$u20$u32$GT$3fmt17hc0fdabedba072d0dE+0x104>
   82924:	528004ea 	mov	w10, #0x27                  	// #39
   82928:	f1018d3f 	cmp	x9, #0x63
   8292c:	54000229 	b.ls	82970 <_ZN4core3fmt3num3imp52_$LT$impl$u20$core..fmt..Display$u20$for$u20$u32$GT$3fmt17hc0fdabedba072d0dE+0x104>  // b.plast
   82930:	53023d2b 	ubfx	w11, w9, #2, #14
   82934:	52828f6c 	mov	w12, #0x147b                	// #5243
   82938:	d100094d 	sub	x13, x10, #0x2
   8293c:	1b0c7d6b 	mul	w11, w11, w12
   82940:	52800c8c 	mov	w12, #0x64                  	// #100
   82944:	53117d6b 	lsr	w11, w11, #17
   82948:	1b0ca569 	msub	w9, w11, w12, w9
   8294c:	910023ec 	add	x12, sp, #0x8
   82950:	8b0a018c 	add	x12, x12, x10
   82954:	aa0d03ea 	mov	x10, x13
   82958:	8b292509 	add	x9, x8, w9, uxth #1
   8295c:	3940052e 	ldrb	w14, [x9, #1]
   82960:	3940012f 	ldrb	w15, [x9]
   82964:	aa0b03e9 	mov	x9, x11
   82968:	381ff18e 	sturb	w14, [x12, #-1]
   8296c:	381fe18f 	sturb	w15, [x12, #-2]
   82970:	f100293f 	cmp	x9, #0xa
   82974:	540000e2 	b.cs	82990 <_ZN4core3fmt3num3imp52_$LT$impl$u20$core..fmt..Display$u20$for$u20$u32$GT$3fmt17hc0fdabedba072d0dE+0x124>  // b.hs, b.nlast
   82978:	910023e8 	add	x8, sp, #0x8
   8297c:	1100c129 	add	w9, w9, #0x30
   82980:	8b0a010b 	add	x11, x8, x10
   82984:	d1000548 	sub	x8, x10, #0x1
   82988:	381ff169 	sturb	w9, [x11, #-1]
   8298c:	14000009 	b	829b0 <_ZN4core3fmt3num3imp52_$LT$impl$u20$core..fmt..Display$u20$for$u20$u32$GT$3fmt17hc0fdabedba072d0dE+0x144>
   82990:	8b090508 	add	x8, x8, x9, lsl #1
   82994:	910023e9 	add	x9, sp, #0x8
   82998:	8b0a0129 	add	x9, x9, x10
   8299c:	3940050b 	ldrb	w11, [x8, #1]
   829a0:	3940010c 	ldrb	w12, [x8]
   829a4:	d1000948 	sub	x8, x10, #0x2
   829a8:	381ff12b 	sturb	w11, [x9, #-1]
   829ac:	381fe12c 	sturb	w12, [x9, #-2]
   829b0:	910023e9 	add	x9, sp, #0x8
   829b4:	528004ea 	mov	w10, #0x27                  	// #39
   829b8:	8b080124 	add	x4, x9, x8
   829bc:	cb080145 	sub	x5, x10, x8
   829c0:	d0000002 	adrp	x2, 84000 <_ZN17compiler_builtins3mem6memcpy17h5498ba8912cb5f38E+0x6d4>
   829c4:	91228042 	add	x2, x2, #0x8a0
   829c8:	aa0103e0 	mov	x0, x1
   829cc:	52800021 	mov	w1, #0x1                   	// #1
   829d0:	aa1f03e3 	mov	x3, xzr
   829d4:	940000ef 	bl	82d90 <_ZN4core3fmt9Formatter12pad_integral17h18655efe8c4788ccE>
   829d8:	f9401bfe 	ldr	x30, [sp, #48]
   829dc:	910103ff 	add	sp, sp, #0x40
   829e0:	d65f03c0 	ret

00000000000829e4 <_ZN4core3fmt3num3imp52_$LT$impl$u20$core..fmt..Display$u20$for$u20$u64$GT$3fmt17h4612398fd3ae5c0fE>:
   829e4:	d10103ff 	sub	sp, sp, #0x40
   829e8:	f9400009 	ldr	x9, [x0]
   829ec:	f9001bfe 	str	x30, [sp, #48]
   829f0:	d344fd28 	lsr	x8, x9, #4
   829f4:	f109c51f 	cmp	x8, #0x271
   829f8:	d0000008 	adrp	x8, 84000 <_ZN17compiler_builtins3mem6memcpy17h5498ba8912cb5f38E+0x6d4>
   829fc:	911f4908 	add	x8, x8, #0x7d2
   82a00:	540004e3 	b.cc	82a9c <_ZN4core3fmt3num3imp52_$LT$impl$u20$core..fmt..Display$u20$for$u20$u64$GT$3fmt17h4612398fd3ae5c0fE+0xb8>  // b.lo, b.ul, b.last
   82a04:	d28b296a 	mov	x10, #0x594b                	// #22859
   82a08:	529c1fef 	mov	w15, #0xe0ff                	// #57599
   82a0c:	f2a710ca 	movk	x10, #0x3886, lsl #16
   82a10:	aa1f03f0 	mov	x16, xzr
   82a14:	f2d8baca 	movk	x10, #0xc5d6, lsl #32
   82a18:	5284e20b 	mov	w11, #0x2710                	// #10000
   82a1c:	f2e68daa 	movk	x10, #0x346d, lsl #48
   82a20:	52828f6c 	mov	w12, #0x147b                	// #5243
   82a24:	52800c8d 	mov	w13, #0x64                  	// #100
   82a28:	910023ee 	add	x14, sp, #0x8
   82a2c:	72a0beaf 	movk	w15, #0x5f5, lsl #16
   82a30:	aa0903f2 	mov	x18, x9
   82a34:	9bca7d29 	umulh	x9, x9, x10
   82a38:	eb0f025f 	cmp	x18, x15
   82a3c:	d34bfd29 	lsr	x9, x9, #11
   82a40:	1b0bc931 	msub	w17, w9, w11, w18
   82a44:	53023e20 	ubfx	w0, w17, #2, #14
   82a48:	1b0c7c00 	mul	w0, w0, w12
   82a4c:	53117c00 	lsr	w0, w0, #17
   82a50:	1b0dc402 	msub	w2, w0, w13, w17
   82a54:	8b204500 	add	x0, x8, w0, uxtw #1
   82a58:	aa1003f1 	mov	x17, x16
   82a5c:	8b222510 	add	x16, x8, w2, uxth #1
   82a60:	8b1101c2 	add	x2, x14, x17
   82a64:	39400403 	ldrb	w3, [x0, #1]
   82a68:	39400000 	ldrb	w0, [x0]
   82a6c:	39400604 	ldrb	w4, [x16, #1]
   82a70:	39009043 	strb	w3, [x2, #36]
   82a74:	39400203 	ldrb	w3, [x16]
   82a78:	d1001230 	sub	x16, x17, #0x4
   82a7c:	39008c40 	strb	w0, [x2, #35]
   82a80:	39009844 	strb	w4, [x2, #38]
   82a84:	39009443 	strb	w3, [x2, #37]
   82a88:	54fffd48 	b.hi	82a30 <_ZN4core3fmt3num3imp52_$LT$impl$u20$core..fmt..Display$u20$for$u20$u64$GT$3fmt17h4612398fd3ae5c0fE+0x4c>  // b.pmore
   82a8c:	91008e2a 	add	x10, x17, #0x23
   82a90:	f1018d3f 	cmp	x9, #0x63
   82a94:	540000a8 	b.hi	82aa8 <_ZN4core3fmt3num3imp52_$LT$impl$u20$core..fmt..Display$u20$for$u20$u64$GT$3fmt17h4612398fd3ae5c0fE+0xc4>  // b.pmore
   82a98:	14000014 	b	82ae8 <_ZN4core3fmt3num3imp52_$LT$impl$u20$core..fmt..Display$u20$for$u20$u64$GT$3fmt17h4612398fd3ae5c0fE+0x104>
   82a9c:	528004ea 	mov	w10, #0x27                  	// #39
   82aa0:	f1018d3f 	cmp	x9, #0x63
   82aa4:	54000229 	b.ls	82ae8 <_ZN4core3fmt3num3imp52_$LT$impl$u20$core..fmt..Display$u20$for$u20$u64$GT$3fmt17h4612398fd3ae5c0fE+0x104>  // b.plast
   82aa8:	53023d2b 	ubfx	w11, w9, #2, #14
   82aac:	52828f6c 	mov	w12, #0x147b                	// #5243
   82ab0:	d100094d 	sub	x13, x10, #0x2
   82ab4:	1b0c7d6b 	mul	w11, w11, w12
   82ab8:	52800c8c 	mov	w12, #0x64                  	// #100
   82abc:	53117d6b 	lsr	w11, w11, #17
   82ac0:	1b0ca569 	msub	w9, w11, w12, w9
   82ac4:	910023ec 	add	x12, sp, #0x8
   82ac8:	8b0a018c 	add	x12, x12, x10
   82acc:	aa0d03ea 	mov	x10, x13
   82ad0:	8b292509 	add	x9, x8, w9, uxth #1
   82ad4:	3940052e 	ldrb	w14, [x9, #1]
   82ad8:	3940012f 	ldrb	w15, [x9]
   82adc:	aa0b03e9 	mov	x9, x11
   82ae0:	381ff18e 	sturb	w14, [x12, #-1]
   82ae4:	381fe18f 	sturb	w15, [x12, #-2]
   82ae8:	f100293f 	cmp	x9, #0xa
   82aec:	540000e2 	b.cs	82b08 <_ZN4core3fmt3num3imp52_$LT$impl$u20$core..fmt..Display$u20$for$u20$u64$GT$3fmt17h4612398fd3ae5c0fE+0x124>  // b.hs, b.nlast
   82af0:	910023e8 	add	x8, sp, #0x8
   82af4:	1100c129 	add	w9, w9, #0x30
   82af8:	8b0a010b 	add	x11, x8, x10
   82afc:	d1000548 	sub	x8, x10, #0x1
   82b00:	381ff169 	sturb	w9, [x11, #-1]
   82b04:	14000009 	b	82b28 <_ZN4core3fmt3num3imp52_$LT$impl$u20$core..fmt..Display$u20$for$u20$u64$GT$3fmt17h4612398fd3ae5c0fE+0x144>
   82b08:	8b090508 	add	x8, x8, x9, lsl #1
   82b0c:	910023e9 	add	x9, sp, #0x8
   82b10:	8b0a0129 	add	x9, x9, x10
   82b14:	3940050b 	ldrb	w11, [x8, #1]
   82b18:	3940010c 	ldrb	w12, [x8]
   82b1c:	d1000948 	sub	x8, x10, #0x2
   82b20:	381ff12b 	sturb	w11, [x9, #-1]
   82b24:	381fe12c 	sturb	w12, [x9, #-2]
   82b28:	910023e9 	add	x9, sp, #0x8
   82b2c:	528004ea 	mov	w10, #0x27                  	// #39
   82b30:	8b080124 	add	x4, x9, x8
   82b34:	cb080145 	sub	x5, x10, x8
   82b38:	d0000002 	adrp	x2, 84000 <_ZN17compiler_builtins3mem6memcpy17h5498ba8912cb5f38E+0x6d4>
   82b3c:	91228042 	add	x2, x2, #0x8a0
   82b40:	aa0103e0 	mov	x0, x1
   82b44:	52800021 	mov	w1, #0x1                   	// #1
   82b48:	aa1f03e3 	mov	x3, xzr
   82b4c:	94000091 	bl	82d90 <_ZN4core3fmt9Formatter12pad_integral17h18655efe8c4788ccE>
   82b50:	f9401bfe 	ldr	x30, [sp, #48]
   82b54:	910103ff 	add	sp, sp, #0x40
   82b58:	d65f03c0 	ret

0000000000082b5c <_ZN4core3ops8function6FnOnce9call_once17h1374758b8c7d2725E.llvm.15678930048187689765>:
   82b5c:	f940001f 	ldr	xzr, [x0]
   82b60:	14000000 	b	82b60 <_ZN4core3ops8function6FnOnce9call_once17h1374758b8c7d2725E.llvm.15678930048187689765+0x4>

0000000000082b64 <_ZN4core3fmt5write17h158ce1ba0cbf453dE>:
   82b64:	d10203ff 	sub	sp, sp, #0x80
   82b68:	d0000008 	adrp	x8, 84000 <_ZN17compiler_builtins3mem6memcpy17h5498ba8912cb5f38E+0x6d4>
   82b6c:	a9074ff4 	stp	x20, x19, [sp, #112]
   82b70:	aa0203f3 	mov	x19, x2
   82b74:	52800069 	mov	w9, #0x3                   	// #3
   82b78:	f90023fe 	str	x30, [sp, #64]
   82b7c:	fd44c900 	ldr	d0, [x8, #2448]
   82b80:	a9055ff8 	stp	x24, x23, [sp, #80]
   82b84:	f9400848 	ldr	x8, [x2, #16]
   82b88:	a90657f6 	stp	x22, x21, [sp, #96]
   82b8c:	f90003ff 	str	xzr, [sp]
   82b90:	f9000bff 	str	xzr, [sp, #16]
   82b94:	3900e3e9 	strb	w9, [sp, #56]
   82b98:	fd001be0 	str	d0, [sp, #48]
   82b9c:	a90207e0 	stp	x0, x1, [sp, #32]
   82ba0:	b4000888 	cbz	x8, 82cb0 <_ZN4core3fmt5write17h158ce1ba0cbf453dE+0x14c>
   82ba4:	f9400e69 	ldr	x9, [x19, #24]
   82ba8:	b4000b89 	cbz	x9, 82d18 <_ZN4core3fmt5write17h158ce1ba0cbf453dE+0x1b4>
   82bac:	f940026a 	ldr	x10, [x19]
   82bb0:	5280070c 	mov	w12, #0x38                  	// #56
   82bb4:	d100052b 	sub	x11, x9, #0x1
   82bb8:	91006117 	add	x23, x8, #0x18
   82bbc:	9240f16b 	and	x11, x11, #0x1fffffffffffffff
   82bc0:	9b0c7d35 	mul	x21, x9, x12
   82bc4:	91000574 	add	x20, x11, #0x1
   82bc8:	91002156 	add	x22, x10, #0x8
   82bcc:	90000018 	adrp	x24, 82000 <_ZN4core3str5count14do_count_chars17hf4570e7a07268196E+0xbc>
   82bd0:	912d7318 	add	x24, x24, #0xb5c
   82bd4:	f94002c2 	ldr	x2, [x22]
   82bd8:	b40000c2 	cbz	x2, 82bf0 <_ZN4core3fmt5write17h158ce1ba0cbf453dE+0x8c>
   82bdc:	a94223e0 	ldp	x0, x8, [sp, #32]
   82be0:	f85f82c1 	ldur	x1, [x22, #-8]
   82be4:	f9400d08 	ldr	x8, [x8, #24]
   82be8:	d63f0100 	blr	x8
   82bec:	37000b60 	tbnz	w0, #0, 82d58 <_ZN4core3fmt5write17h158ce1ba0cbf453dE+0x1f4>
   82bf0:	394062e8 	ldrb	w8, [x23, #24]
   82bf4:	3900e3e8 	strb	w8, [sp, #56]
   82bf8:	f9401268 	ldr	x8, [x19, #32]
   82bfc:	fd400ae0 	ldr	d0, [x23, #16]
   82c00:	0ea00800 	rev64	v0.2s, v0.2s
   82c04:	fd001be0 	str	d0, [sp, #48]
   82c08:	a94026ea 	ldp	x10, x9, [x23]
   82c0c:	b40001ca 	cbz	x10, 82c44 <_ZN4core3fmt5write17h158ce1ba0cbf453dE+0xe0>
   82c10:	f100055f 	cmp	x10, #0x1
   82c14:	540000a1 	b.ne	82c28 <_ZN4core3fmt5write17h158ce1ba0cbf453dE+0xc4>  // b.any
   82c18:	8b091109 	add	x9, x8, x9, lsl #4
   82c1c:	f940052a 	ldr	x10, [x9, #8]
   82c20:	eb18015f 	cmp	x10, x24
   82c24:	540000c0 	b.eq	82c3c <_ZN4core3fmt5write17h158ce1ba0cbf453dE+0xd8>  // b.none
   82c28:	aa1f03ea 	mov	x10, xzr
   82c2c:	a90027ff 	stp	xzr, x9, [sp]
   82c30:	a97f26ea 	ldp	x10, x9, [x23, #-16]
   82c34:	b500010a 	cbnz	x10, 82c54 <_ZN4core3fmt5write17h158ce1ba0cbf453dE+0xf0>
   82c38:	14000011 	b	82c7c <_ZN4core3fmt5write17h158ce1ba0cbf453dE+0x118>
   82c3c:	f9400129 	ldr	x9, [x9]
   82c40:	f9400129 	ldr	x9, [x9]
   82c44:	5280002a 	mov	w10, #0x1                   	// #1
   82c48:	a90027ea 	stp	x10, x9, [sp]
   82c4c:	a97f26ea 	ldp	x10, x9, [x23, #-16]
   82c50:	b400016a 	cbz	x10, 82c7c <_ZN4core3fmt5write17h158ce1ba0cbf453dE+0x118>
   82c54:	f100055f 	cmp	x10, #0x1
   82c58:	540000a1 	b.ne	82c6c <_ZN4core3fmt5write17h158ce1ba0cbf453dE+0x108>  // b.any
   82c5c:	8b091109 	add	x9, x8, x9, lsl #4
   82c60:	f940052a 	ldr	x10, [x9, #8]
   82c64:	eb18015f 	cmp	x10, x24
   82c68:	54000060 	b.eq	82c74 <_ZN4core3fmt5write17h158ce1ba0cbf453dE+0x110>  // b.none
   82c6c:	aa1f03ea 	mov	x10, xzr
   82c70:	14000004 	b	82c80 <_ZN4core3fmt5write17h158ce1ba0cbf453dE+0x11c>
   82c74:	f9400129 	ldr	x9, [x9]
   82c78:	f9400129 	ldr	x9, [x9]
   82c7c:	5280002a 	mov	w10, #0x1                   	// #1
   82c80:	a90127ea 	stp	x10, x9, [sp, #16]
   82c84:	910003e1 	mov	x1, sp
   82c88:	f85e82e9 	ldur	x9, [x23, #-24]
   82c8c:	8b091108 	add	x8, x8, x9, lsl #4
   82c90:	a9402500 	ldp	x0, x9, [x8]
   82c94:	d63f0120 	blr	x9
   82c98:	37000600 	tbnz	w0, #0, 82d58 <_ZN4core3fmt5write17h158ce1ba0cbf453dE+0x1f4>
   82c9c:	910042d6 	add	x22, x22, #0x10
   82ca0:	f100e2b5 	subs	x21, x21, #0x38
   82ca4:	9100e2f7 	add	x23, x23, #0x38
   82ca8:	54fff961 	b.ne	82bd4 <_ZN4core3fmt5write17h158ce1ba0cbf453dE+0x70>  // b.any
   82cac:	1400001c 	b	82d1c <_ZN4core3fmt5write17h158ce1ba0cbf453dE+0x1b8>
   82cb0:	f9401668 	ldr	x8, [x19, #40]
   82cb4:	b40003c8 	cbz	x8, 82d2c <_ZN4core3fmt5write17h158ce1ba0cbf453dE+0x1c8>
   82cb8:	f9400269 	ldr	x9, [x19]
   82cbc:	d100050b 	sub	x11, x8, #0x1
   82cc0:	f940126a 	ldr	x10, [x19, #32]
   82cc4:	9240ed6b 	and	x11, x11, #0xfffffffffffffff
   82cc8:	91000574 	add	x20, x11, #0x1
   82ccc:	d37ced17 	lsl	x23, x8, #4
   82cd0:	91002135 	add	x21, x9, #0x8
   82cd4:	91002156 	add	x22, x10, #0x8
   82cd8:	f94002a2 	ldr	x2, [x21]
   82cdc:	b40000c2 	cbz	x2, 82cf4 <_ZN4core3fmt5write17h158ce1ba0cbf453dE+0x190>
   82ce0:	a94223e0 	ldp	x0, x8, [sp, #32]
   82ce4:	f85f82a1 	ldur	x1, [x21, #-8]
   82ce8:	f9400d08 	ldr	x8, [x8, #24]
   82cec:	d63f0100 	blr	x8
   82cf0:	37000340 	tbnz	w0, #0, 82d58 <_ZN4core3fmt5write17h158ce1ba0cbf453dE+0x1f4>
   82cf4:	a97fa2c0 	ldp	x0, x8, [x22, #-8]
   82cf8:	910003e1 	mov	x1, sp
   82cfc:	d63f0100 	blr	x8
   82d00:	370002c0 	tbnz	w0, #0, 82d58 <_ZN4core3fmt5write17h158ce1ba0cbf453dE+0x1f4>
   82d04:	910042b5 	add	x21, x21, #0x10
   82d08:	910042d6 	add	x22, x22, #0x10
   82d0c:	f10042f7 	subs	x23, x23, #0x10
   82d10:	54fffe41 	b.ne	82cd8 <_ZN4core3fmt5write17h158ce1ba0cbf453dE+0x174>  // b.any
   82d14:	14000002 	b	82d1c <_ZN4core3fmt5write17h158ce1ba0cbf453dE+0x1b8>
   82d18:	aa1f03f4 	mov	x20, xzr
   82d1c:	f9400668 	ldr	x8, [x19, #8]
   82d20:	eb08029f 	cmp	x20, x8
   82d24:	540000c3 	b.cc	82d3c <_ZN4core3fmt5write17h158ce1ba0cbf453dE+0x1d8>  // b.lo, b.ul, b.last
   82d28:	14000013 	b	82d74 <_ZN4core3fmt5write17h158ce1ba0cbf453dE+0x210>
   82d2c:	aa1f03f4 	mov	x20, xzr
   82d30:	f9400668 	ldr	x8, [x19, #8]
   82d34:	eb0803ff 	cmp	xzr, x8
   82d38:	540001e2 	b.cs	82d74 <_ZN4core3fmt5write17h158ce1ba0cbf453dE+0x210>  // b.hs, b.nlast
   82d3c:	f9400268 	ldr	x8, [x19]
   82d40:	a94227e0 	ldp	x0, x9, [sp, #32]
   82d44:	8b141108 	add	x8, x8, x20, lsl #4
   82d48:	a9400901 	ldp	x1, x2, [x8]
   82d4c:	f9400d28 	ldr	x8, [x9, #24]
   82d50:	d63f0100 	blr	x8
   82d54:	36000100 	tbz	w0, #0, 82d74 <_ZN4core3fmt5write17h158ce1ba0cbf453dE+0x210>
   82d58:	52800020 	mov	w0, #0x1                   	// #1
   82d5c:	a9474ff4 	ldp	x20, x19, [sp, #112]
   82d60:	a94657f6 	ldp	x22, x21, [sp, #96]
   82d64:	a9455ff8 	ldp	x24, x23, [sp, #80]
   82d68:	f94023fe 	ldr	x30, [sp, #64]
   82d6c:	910203ff 	add	sp, sp, #0x80
   82d70:	d65f03c0 	ret
   82d74:	2a1f03e0 	mov	w0, wzr
   82d78:	a9474ff4 	ldp	x20, x19, [sp, #112]
   82d7c:	a94657f6 	ldp	x22, x21, [sp, #96]
   82d80:	a9455ff8 	ldp	x24, x23, [sp, #80]
   82d84:	f94023fe 	ldr	x30, [sp, #64]
   82d88:	910203ff 	add	sp, sp, #0x80
   82d8c:	d65f03c0 	ret

0000000000082d90 <_ZN4core3fmt9Formatter12pad_integral17h18655efe8c4788ccE>:
   82d90:	d10243ff 	sub	sp, sp, #0x90
   82d94:	a9065ff8 	stp	x24, x23, [sp, #96]
   82d98:	aa0203f7 	mov	x23, x2
   82d9c:	a90757f6 	stp	x22, x21, [sp, #112]
   82da0:	aa0303f6 	mov	x22, x3
   82da4:	a9084ff4 	stp	x20, x19, [sp, #128]
   82da8:	aa0503f3 	mov	x19, x5
   82dac:	aa0403f4 	mov	x20, x4
   82db0:	aa0003f5 	mov	x21, x0
   82db4:	a9037bfd 	stp	x29, x30, [sp, #48]
   82db8:	a9046ffc 	stp	x28, x27, [sp, #64]
   82dbc:	a90567fa 	stp	x26, x25, [sp, #80]
   82dc0:	34000221 	cbz	w1, 82e04 <_ZN4core3fmt9Formatter12pad_integral17h18655efe8c4788ccE+0x74>
   82dc4:	b94032b9 	ldr	w25, [x21, #48]
   82dc8:	52800569 	mov	w9, #0x2b                  	// #43
   82dcc:	52a0022a 	mov	w10, #0x110000              	// #1114112
   82dd0:	92400328 	and	x8, x25, #0x1
   82dd4:	7100011f 	cmp	w8, #0x0
   82dd8:	8b13011a 	add	x26, x8, x19
   82ddc:	1a890158 	csel	w24, w10, w9, eq  // eq = none
   82de0:	361001b9 	tbz	w25, #2, 82e14 <_ZN4core3fmt9Formatter12pad_integral17h18655efe8c4788ccE+0x84>
   82de4:	f10082df 	cmp	x22, #0x20
   82de8:	54000202 	b.cs	82e28 <_ZN4core3fmt9Formatter12pad_integral17h18655efe8c4788ccE+0x98>  // b.hs, b.nlast
   82dec:	b4000276 	cbz	x22, 82e38 <_ZN4core3fmt9Formatter12pad_integral17h18655efe8c4788ccE+0xa8>
   82df0:	f10022df 	cmp	x22, #0x8
   82df4:	54000262 	b.cs	82e40 <_ZN4core3fmt9Formatter12pad_integral17h18655efe8c4788ccE+0xb0>  // b.hs, b.nlast
   82df8:	aa1f03e0 	mov	x0, xzr
   82dfc:	aa1703e8 	mov	x8, x23
   82e00:	140000aa 	b	830a8 <_ZN4core3fmt9Formatter12pad_integral17h18655efe8c4788ccE+0x318>
   82e04:	9100067a 	add	x26, x19, #0x1
   82e08:	b94032b9 	ldr	w25, [x21, #48]
   82e0c:	528005b8 	mov	w24, #0x2d                  	// #45
   82e10:	3717feb9 	tbnz	w25, #2, 82de4 <_ZN4core3fmt9Formatter12pad_integral17h18655efe8c4788ccE+0x54>
   82e14:	aa1f03f7 	mov	x23, xzr
   82e18:	aa1f03f6 	mov	x22, xzr
   82e1c:	f94002a8 	ldr	x8, [x21]
   82e20:	b5001568 	cbnz	x8, 830cc <_ZN4core3fmt9Formatter12pad_integral17h18655efe8c4788ccE+0x33c>
   82e24:	140000b7 	b	83100 <_ZN4core3fmt9Formatter12pad_integral17h18655efe8c4788ccE+0x370>
   82e28:	aa1703e0 	mov	x0, x23
   82e2c:	aa1603e1 	mov	x1, x22
   82e30:	97fffc45 	bl	81f44 <_ZN4core3str5count14do_count_chars17hf4570e7a07268196E>
   82e34:	140000a3 	b	830c0 <_ZN4core3fmt9Formatter12pad_integral17h18655efe8c4788ccE+0x330>
   82e38:	aa1f03e0 	mov	x0, xzr
   82e3c:	140000a1 	b	830c0 <_ZN4core3fmt9Formatter12pad_integral17h18655efe8c4788ccE+0x330>
   82e40:	f10042df 	cmp	x22, #0x10
   82e44:	54000082 	b.cs	82e54 <_ZN4core3fmt9Formatter12pad_integral17h18655efe8c4788ccE+0xc4>  // b.hs, b.nlast
   82e48:	aa1f03e0 	mov	x0, xzr
   82e4c:	aa1f03eb 	mov	x11, xzr
   82e50:	14000060 	b	82fd0 <_ZN4core3fmt9Formatter12pad_integral17h18655efe8c4788ccE+0x240>
   82e54:	aa1703e8 	mov	x8, x23
   82e58:	394016eb 	ldrb	w11, [x23, #5]
   82e5c:	39400aec 	ldrb	w12, [x23, #2]
   82e60:	4f05e7e0 	movi	v0.16b, #0xbf
   82e64:	38404d09 	ldrb	w9, [x8, #4]!
   82e68:	39400d0a 	ldrb	w10, [x8, #3]
   82e6c:	39400908 	ldrb	w8, [x8, #2]
   82e70:	33181d69 	bfi	w9, w11, #8, #8
   82e74:	394006eb 	ldrb	w11, [x23, #1]
   82e78:	33181d48 	bfi	w8, w10, #8, #8
   82e7c:	39400eea 	ldrb	w10, [x23, #3]
   82e80:	33103d09 	bfi	w9, w8, #16, #16
   82e84:	394002e8 	ldrb	w8, [x23]
   82e88:	b3781d4c 	bfi	x12, x10, #8, #8
   82e8c:	b3781d68 	bfi	x8, x11, #8, #8
   82e90:	b3703d88 	bfi	x8, x12, #16, #16
   82e94:	b3607d28 	bfi	x8, x9, #32, #32
   82e98:	aa1703e9 	mov	x9, x23
   82e9c:	f9000be8 	str	x8, [sp, #16]
   82ea0:	38408d28 	ldrb	w8, [x9, #8]!
   82ea4:	39400d2a 	ldrb	w10, [x9, #3]
   82ea8:	3940092b 	ldrb	w11, [x9, #2]
   82eac:	38404d2c 	ldrb	w12, [x9, #4]!
   82eb0:	39400d2d 	ldrb	w13, [x9, #3]
   82eb4:	39400929 	ldrb	w9, [x9, #2]
   82eb8:	b3781d4b 	bfi	x11, x10, #8, #8
   82ebc:	394036ee 	ldrb	w14, [x23, #13]
   82ec0:	33181da9 	bfi	w9, w13, #8, #8
   82ec4:	33181dcc 	bfi	w12, w14, #8, #8
   82ec8:	33103d2c 	bfi	w12, w9, #16, #16
   82ecc:	394026e9 	ldrb	w9, [x23, #9]
   82ed0:	b3781d28 	bfi	x8, x9, #8, #8
   82ed4:	b3703d68 	bfi	x8, x11, #16, #16
   82ed8:	b3607d88 	bfi	x8, x12, #32, #32
   82edc:	f9000fe8 	str	x8, [sp, #24]
   82ee0:	3dc007e1 	ldr	q1, [sp, #16]
   82ee4:	4e203420 	cmgt	v0.16b, v1.16b, v0.16b
   82ee8:	0e033c08 	umov	w8, v0.b[1]
   82eec:	0e053c0a 	umov	w10, v0.b[2]
   82ef0:	0e013c09 	umov	w9, v0.b[0]
   82ef4:	0e073c0b 	umov	w11, v0.b[3]
   82ef8:	0e093c0c 	umov	w12, v0.b[4]
   82efc:	0e0b3c0d 	umov	w13, v0.b[5]
   82f00:	12000108 	and	w8, w8, #0x1
   82f04:	1200014a 	and	w10, w10, #0x1
   82f08:	12000129 	and	w9, w9, #0x1
   82f0c:	1200016b 	and	w11, w11, #0x1
   82f10:	1200018c 	and	w12, w12, #0x1
   82f14:	120001ad 	and	w13, w13, #0x1
   82f18:	331f0109 	bfi	w9, w8, #1, #1
   82f1c:	0e0d3c08 	umov	w8, v0.b[6]
   82f20:	331e0149 	bfi	w9, w10, #2, #1
   82f24:	0e0f3c0a 	umov	w10, v0.b[7]
   82f28:	331d0169 	bfi	w9, w11, #3, #1
   82f2c:	0e113c0b 	umov	w11, v0.b[8]
   82f30:	331c0189 	bfi	w9, w12, #4, #1
   82f34:	0e133c0c 	umov	w12, v0.b[9]
   82f38:	12000108 	and	w8, w8, #0x1
   82f3c:	331b01a9 	bfi	w9, w13, #5, #1
   82f40:	0e153c0d 	umov	w13, v0.b[10]
   82f44:	1200014a 	and	w10, w10, #0x1
   82f48:	2a081928 	orr	w8, w9, w8, lsl #6
   82f4c:	0e173c09 	umov	w9, v0.b[11]
   82f50:	1200016b 	and	w11, w11, #0x1
   82f54:	2a0a1d08 	orr	w8, w8, w10, lsl #7
   82f58:	0e193c0a 	umov	w10, v0.b[12]
   82f5c:	1200018c 	and	w12, w12, #0x1
   82f60:	2a0b2108 	orr	w8, w8, w11, lsl #8
   82f64:	0e1b3c0b 	umov	w11, v0.b[13]
   82f68:	120001ad 	and	w13, w13, #0x1
   82f6c:	2a0c2508 	orr	w8, w8, w12, lsl #9
   82f70:	0e1d3c0c 	umov	w12, v0.b[14]
   82f74:	12000129 	and	w9, w9, #0x1
   82f78:	2a0d2908 	orr	w8, w8, w13, lsl #10
   82f7c:	1200014a 	and	w10, w10, #0x1
   82f80:	2a092d08 	orr	w8, w8, w9, lsl #11
   82f84:	12000169 	and	w9, w11, #0x1
   82f88:	0e1f3c0b 	umov	w11, v0.b[15]
   82f8c:	2a0a3108 	orr	w8, w8, w10, lsl #12
   82f90:	1200018a 	and	w10, w12, #0x1
   82f94:	2a093508 	orr	w8, w8, w9, lsl #13
   82f98:	2a0a3908 	orr	w8, w8, w10, lsl #14
   82f9c:	2a0b3d08 	orr	w8, w8, w11, lsl #15
   82fa0:	927ceecb 	and	x11, x22, #0xfffffffffffffff0
   82fa4:	eb16017f 	cmp	x11, x22
   82fa8:	79005be8 	strh	w8, [sp, #44]
   82fac:	12003d08 	and	w8, w8, #0xffff
   82fb0:	9e670100 	fmov	d0, x8
   82fb4:	0e205800 	cnt	v0.8b, v0.8b
   82fb8:	2e303800 	uaddlv	h0, v0.8b
   82fbc:	1e260000 	fmov	w0, s0
   82fc0:	54000800 	b.eq	830c0 <_ZN4core3fmt9Formatter12pad_integral17h18655efe8c4788ccE+0x330>  // b.none
   82fc4:	37180076 	tbnz	w22, #3, 82fd0 <_ZN4core3fmt9Formatter12pad_integral17h18655efe8c4788ccE+0x240>
   82fc8:	8b0b02e8 	add	x8, x23, x11
   82fcc:	14000037 	b	830a8 <_ZN4core3fmt9Formatter12pad_integral17h18655efe8c4788ccE+0x318>
   82fd0:	6f00e400 	movi	v0.2d, #0x0
   82fd4:	5280002c 	mov	w12, #0x1                   	// #1
   82fd8:	927df2c9 	and	x9, x22, #0xfffffffffffffff8
   82fdc:	0f05e7e2 	movi	v2.8b, #0xbf
   82fe0:	6f00e401 	movi	v1.2d, #0x0
   82fe4:	8b0902e8 	add	x8, x23, x9
   82fe8:	6f00e403 	movi	v3.2d, #0x0
   82fec:	8b0b02ea 	add	x10, x23, x11
   82ff0:	4e081c00 	mov	v0.d[0], x0
   82ff4:	cb09016b 	sub	x11, x11, x9
   82ff8:	6f00e404 	movi	v4.2d, #0x0
   82ffc:	4e080d85 	dup	v5.2d, x12
   83000:	aa0a03ec 	mov	x12, x10
   83004:	3940154f 	ldrb	w15, [x10, #5]
   83008:	39400950 	ldrb	w16, [x10, #2]
   8300c:	b100216b 	adds	x11, x11, #0x8
   83010:	38404d8d 	ldrb	w13, [x12, #4]!
   83014:	39400d8e 	ldrb	w14, [x12, #3]
   83018:	3940098c 	ldrb	w12, [x12, #2]
   8301c:	33181ded 	bfi	w13, w15, #8, #8
   83020:	3940054f 	ldrb	w15, [x10, #1]
   83024:	33181dcc 	bfi	w12, w14, #8, #8
   83028:	39400d4e 	ldrb	w14, [x10, #3]
   8302c:	33103d8d 	bfi	w13, w12, #16, #16
   83030:	b3781dd0 	bfi	x16, x14, #8, #8
   83034:	3840854c 	ldrb	w12, [x10], #8
   83038:	b3781dec 	bfi	x12, x15, #8, #8
   8303c:	b3703e0c 	bfi	x12, x16, #16, #16
   83040:	b3607dac 	bfi	x12, x13, #32, #32
   83044:	9e670186 	fmov	d6, x12
   83048:	0e2234c6 	cmgt	v6.8b, v6.8b, v2.8b
   8304c:	2f08a4c6 	uxtl	v6.8h, v6.8b
   83050:	2f10a4c7 	uxtl	v7.4s, v6.4h
   83054:	6f10a4c6 	uxtl2	v6.4s, v6.8h
   83058:	2f20a4f0 	uxtl	v16.2d, v7.2s
   8305c:	6f20a4e7 	uxtl2	v7.2d, v7.4s
   83060:	2f20a4d1 	uxtl	v17.2d, v6.2s
   83064:	6f20a4c6 	uxtl2	v6.2d, v6.4s
   83068:	4e251e10 	and	v16.16b, v16.16b, v5.16b
   8306c:	4e251ce7 	and	v7.16b, v7.16b, v5.16b
   83070:	4e251e31 	and	v17.16b, v17.16b, v5.16b
   83074:	4e251cc6 	and	v6.16b, v6.16b, v5.16b
   83078:	4ee68484 	add	v4.2d, v4.2d, v6.2d
   8307c:	4ef18463 	add	v3.2d, v3.2d, v17.2d
   83080:	4ee78421 	add	v1.2d, v1.2d, v7.2d
   83084:	4ef08400 	add	v0.2d, v0.2d, v16.2d
   83088:	54fffbc1 	b.ne	83000 <_ZN4core3fmt9Formatter12pad_integral17h18655efe8c4788ccE+0x270>  // b.any
   8308c:	4ee38400 	add	v0.2d, v0.2d, v3.2d
   83090:	eb16013f 	cmp	x9, x22
   83094:	4ee48421 	add	v1.2d, v1.2d, v4.2d
   83098:	4ee18400 	add	v0.2d, v0.2d, v1.2d
   8309c:	5ef1b800 	addp	d0, v0.2d
   830a0:	9e660000 	fmov	x0, d0
   830a4:	540000e0 	b.eq	830c0 <_ZN4core3fmt9Formatter12pad_integral17h18655efe8c4788ccE+0x330>  // b.none
   830a8:	8b1602e9 	add	x9, x23, x22
   830ac:	38c0150a 	ldrsb	w10, [x8], #1
   830b0:	3101055f 	cmn	w10, #0x41
   830b4:	9a80d400 	cinc	x0, x0, gt
   830b8:	eb09011f 	cmp	x8, x9
   830bc:	54ffff81 	b.ne	830ac <_ZN4core3fmt9Formatter12pad_integral17h18655efe8c4788ccE+0x31c>  // b.any
   830c0:	8b1a001a 	add	x26, x0, x26
   830c4:	f94002a8 	ldr	x8, [x21]
   830c8:	b40001c8 	cbz	x8, 83100 <_ZN4core3fmt9Formatter12pad_integral17h18655efe8c4788ccE+0x370>
   830cc:	f94006a8 	ldr	x8, [x21, #8]
   830d0:	eb1a011c 	subs	x28, x8, x26
   830d4:	54000169 	b.ls	83100 <_ZN4core3fmt9Formatter12pad_integral17h18655efe8c4788ccE+0x370>  // b.plast
   830d8:	37180519 	tbnz	w25, #3, 83178 <_ZN4core3fmt9Formatter12pad_integral17h18655efe8c4788ccE+0x3e8>
   830dc:	3940e2a8 	ldrb	w8, [x21, #56]
   830e0:	71000d1f 	cmp	w8, #0x3
   830e4:	1a9f1508 	csinc	w8, w8, wzr, ne  // ne = any
   830e8:	7200051f 	tst	w8, #0x3
   830ec:	54000760 	b.eq	831d8 <_ZN4core3fmt9Formatter12pad_integral17h18655efe8c4788ccE+0x448>  // b.none
   830f0:	7100051f 	cmp	w8, #0x1
   830f4:	54000761 	b.ne	831e0 <_ZN4core3fmt9Formatter12pad_integral17h18655efe8c4788ccE+0x450>  // b.any
   830f8:	aa1f03fb 	mov	x27, xzr
   830fc:	1400003d 	b	831f0 <_ZN4core3fmt9Formatter12pad_integral17h18655efe8c4788ccE+0x460>
   83100:	a94256b9 	ldp	x25, x21, [x21, #32]
   83104:	2a1803e2 	mov	w2, w24
   83108:	aa1703e3 	mov	x3, x23
   8310c:	aa1603e4 	mov	x4, x22
   83110:	aa1903e0 	mov	x0, x25
   83114:	aa1503e1 	mov	x1, x21
   83118:	9400006b 	bl	832c4 <_ZN4core3fmt9Formatter12pad_integral12write_prefix17h805e02cd3906d96aE>
   8311c:	36000160 	tbz	w0, #0, 83148 <_ZN4core3fmt9Formatter12pad_integral17h18655efe8c4788ccE+0x3b8>
   83120:	52800039 	mov	w25, #0x1                   	// #1
   83124:	2a1903e0 	mov	w0, w25
   83128:	a9484ff4 	ldp	x20, x19, [sp, #128]
   8312c:	a94757f6 	ldp	x22, x21, [sp, #112]
   83130:	a9465ff8 	ldp	x24, x23, [sp, #96]
   83134:	a94567fa 	ldp	x26, x25, [sp, #80]
   83138:	a9446ffc 	ldp	x28, x27, [sp, #64]
   8313c:	a9437bfd 	ldp	x29, x30, [sp, #48]
   83140:	910243ff 	add	sp, sp, #0x90
   83144:	d65f03c0 	ret
   83148:	f9400ea3 	ldr	x3, [x21, #24]
   8314c:	aa1903e0 	mov	x0, x25
   83150:	aa1403e1 	mov	x1, x20
   83154:	aa1303e2 	mov	x2, x19
   83158:	a9484ff4 	ldp	x20, x19, [sp, #128]
   8315c:	a94757f6 	ldp	x22, x21, [sp, #112]
   83160:	a9465ff8 	ldp	x24, x23, [sp, #96]
   83164:	a94567fa 	ldp	x26, x25, [sp, #80]
   83168:	a9446ffc 	ldp	x28, x27, [sp, #64]
   8316c:	a9437bfd 	ldp	x29, x30, [sp, #48]
   83170:	910243ff 	add	sp, sp, #0x90
   83174:	d61f0060 	br	x3
   83178:	a9426eba 	ldp	x26, x27, [x21, #32]
   8317c:	52800039 	mov	w25, #0x1                   	// #1
   83180:	2a1803e2 	mov	w2, w24
   83184:	b94036a8 	ldr	w8, [x21, #52]
   83188:	aa1703e3 	mov	x3, x23
   8318c:	aa1603e4 	mov	x4, x22
   83190:	3940e2bd 	ldrb	w29, [x21, #56]
   83194:	aa1a03e0 	mov	x0, x26
   83198:	3900e2b9 	strb	w25, [x21, #56]
   8319c:	b9000fe8 	str	w8, [sp, #12]
   831a0:	52800608 	mov	w8, #0x30                  	// #48
   831a4:	aa1b03e1 	mov	x1, x27
   831a8:	b90036a8 	str	w8, [x21, #52]
   831ac:	94000046 	bl	832c4 <_ZN4core3fmt9Formatter12pad_integral12write_prefix17h805e02cd3906d96aE>
   831b0:	3707fba0 	tbnz	w0, #0, 83124 <_ZN4core3fmt9Formatter12pad_integral17h18655efe8c4788ccE+0x394>
   831b4:	91000796 	add	x22, x28, #0x1
   831b8:	f10006d6 	subs	x22, x22, #0x1
   831bc:	54000660 	b.eq	83288 <_ZN4core3fmt9Formatter12pad_integral17h18655efe8c4788ccE+0x4f8>  // b.none
   831c0:	f9401368 	ldr	x8, [x27, #32]
   831c4:	aa1a03e0 	mov	x0, x26
   831c8:	52800601 	mov	w1, #0x30                  	// #48
   831cc:	d63f0100 	blr	x8
   831d0:	3607ff40 	tbz	w0, #0, 831b8 <_ZN4core3fmt9Formatter12pad_integral17h18655efe8c4788ccE+0x428>
   831d4:	17ffffd3 	b	83120 <_ZN4core3fmt9Formatter12pad_integral17h18655efe8c4788ccE+0x390>
   831d8:	aa1c03fb 	mov	x27, x28
   831dc:	14000004 	b	831ec <_ZN4core3fmt9Formatter12pad_integral17h18655efe8c4788ccE+0x45c>
   831e0:	91000789 	add	x9, x28, #0x1
   831e4:	d341ff88 	lsr	x8, x28, #1
   831e8:	d341fd3b 	lsr	x27, x9, #1
   831ec:	aa0803fc 	mov	x28, x8
   831f0:	a9426ab9 	ldp	x25, x26, [x21, #32]
   831f4:	9100079c 	add	x28, x28, #0x1
   831f8:	b94036b5 	ldr	w21, [x21, #52]
   831fc:	f100079c 	subs	x28, x28, #0x1
   83200:	540000e0 	b.eq	8321c <_ZN4core3fmt9Formatter12pad_integral17h18655efe8c4788ccE+0x48c>  // b.none
   83204:	f9401348 	ldr	x8, [x26, #32]
   83208:	aa1903e0 	mov	x0, x25
   8320c:	2a1503e1 	mov	w1, w21
   83210:	d63f0100 	blr	x8
   83214:	3607ff40 	tbz	w0, #0, 831fc <_ZN4core3fmt9Formatter12pad_integral17h18655efe8c4788ccE+0x46c>
   83218:	17ffffc2 	b	83120 <_ZN4core3fmt9Formatter12pad_integral17h18655efe8c4788ccE+0x390>
   8321c:	714442bf 	cmp	w21, #0x110, lsl #12
   83220:	9a9b03fb 	csel	x27, xzr, x27, eq  // eq = none
   83224:	54fff7e0 	b.eq	83120 <_ZN4core3fmt9Formatter12pad_integral17h18655efe8c4788ccE+0x390>  // b.none
   83228:	aa1903e0 	mov	x0, x25
   8322c:	aa1a03e1 	mov	x1, x26
   83230:	2a1803e2 	mov	w2, w24
   83234:	aa1703e3 	mov	x3, x23
   83238:	aa1603e4 	mov	x4, x22
   8323c:	94000022 	bl	832c4 <_ZN4core3fmt9Formatter12pad_integral12write_prefix17h805e02cd3906d96aE>
   83240:	3707f700 	tbnz	w0, #0, 83120 <_ZN4core3fmt9Formatter12pad_integral17h18655efe8c4788ccE+0x390>
   83244:	f9400f48 	ldr	x8, [x26, #24]
   83248:	aa1903e0 	mov	x0, x25
   8324c:	aa1403e1 	mov	x1, x20
   83250:	aa1303e2 	mov	x2, x19
   83254:	d63f0100 	blr	x8
   83258:	3707f640 	tbnz	w0, #0, 83120 <_ZN4core3fmt9Formatter12pad_integral17h18655efe8c4788ccE+0x390>
   8325c:	aa1f03f3 	mov	x19, xzr
   83260:	eb13037f 	cmp	x27, x19
   83264:	54000280 	b.eq	832b4 <_ZN4core3fmt9Formatter12pad_integral17h18655efe8c4788ccE+0x524>  // b.none
   83268:	f9401348 	ldr	x8, [x26, #32]
   8326c:	aa1903e0 	mov	x0, x25
   83270:	2a1503e1 	mov	w1, w21
   83274:	91000673 	add	x19, x19, #0x1
   83278:	d63f0100 	blr	x8
   8327c:	34ffff20 	cbz	w0, 83260 <_ZN4core3fmt9Formatter12pad_integral17h18655efe8c4788ccE+0x4d0>
   83280:	d1000668 	sub	x8, x19, #0x1
   83284:	1400000d 	b	832b8 <_ZN4core3fmt9Formatter12pad_integral17h18655efe8c4788ccE+0x528>
   83288:	f9400f68 	ldr	x8, [x27, #24]
   8328c:	aa1a03e0 	mov	x0, x26
   83290:	aa1403e1 	mov	x1, x20
   83294:	aa1303e2 	mov	x2, x19
   83298:	d63f0100 	blr	x8
   8329c:	3707f420 	tbnz	w0, #0, 83120 <_ZN4core3fmt9Formatter12pad_integral17h18655efe8c4788ccE+0x390>
   832a0:	2a1f03f9 	mov	w25, wzr
   832a4:	b9400fe8 	ldr	w8, [sp, #12]
   832a8:	3900e2bd 	strb	w29, [x21, #56]
   832ac:	b90036a8 	str	w8, [x21, #52]
   832b0:	17ffff9d 	b	83124 <_ZN4core3fmt9Formatter12pad_integral17h18655efe8c4788ccE+0x394>
   832b4:	aa1b03e8 	mov	x8, x27
   832b8:	eb1b011f 	cmp	x8, x27
   832bc:	1a9f27f9 	cset	w25, cc  // cc = lo, ul, last
   832c0:	17ffff99 	b	83124 <_ZN4core3fmt9Formatter12pad_integral17h18655efe8c4788ccE+0x394>

00000000000832c4 <_ZN4core3fmt9Formatter12pad_integral12write_prefix17h805e02cd3906d96aE>:
   832c4:	f81d0ffe 	str	x30, [sp, #-48]!
   832c8:	a90157f6 	stp	x22, x21, [sp, #16]
   832cc:	aa0103f6 	mov	x22, x1
   832d0:	a9024ff4 	stp	x20, x19, [sp, #32]
   832d4:	aa0403f3 	mov	x19, x4
   832d8:	aa0303f4 	mov	x20, x3
   832dc:	aa0003f5 	mov	x21, x0
   832e0:	7144405f 	cmp	w2, #0x110, lsl #12
   832e4:	54000160 	b.eq	83310 <_ZN4core3fmt9Formatter12pad_integral12write_prefix17h805e02cd3906d96aE+0x4c>  // b.none
   832e8:	f94012c8 	ldr	x8, [x22, #32]
   832ec:	aa1503e0 	mov	x0, x21
   832f0:	2a0203e1 	mov	w1, w2
   832f4:	d63f0100 	blr	x8
   832f8:	360000c0 	tbz	w0, #0, 83310 <_ZN4core3fmt9Formatter12pad_integral12write_prefix17h805e02cd3906d96aE+0x4c>
   832fc:	52800020 	mov	w0, #0x1                   	// #1
   83300:	a9424ff4 	ldp	x20, x19, [sp, #32]
   83304:	a94157f6 	ldp	x22, x21, [sp, #16]
   83308:	f84307fe 	ldr	x30, [sp], #48
   8330c:	d65f03c0 	ret
   83310:	b4000134 	cbz	x20, 83334 <_ZN4core3fmt9Formatter12pad_integral12write_prefix17h805e02cd3906d96aE+0x70>
   83314:	f9400ec3 	ldr	x3, [x22, #24]
   83318:	aa1503e0 	mov	x0, x21
   8331c:	aa1403e1 	mov	x1, x20
   83320:	aa1303e2 	mov	x2, x19
   83324:	a9424ff4 	ldp	x20, x19, [sp, #32]
   83328:	a94157f6 	ldp	x22, x21, [sp, #16]
   8332c:	f84307fe 	ldr	x30, [sp], #48
   83330:	d61f0060 	br	x3
   83334:	2a1f03e0 	mov	w0, wzr
   83338:	a9424ff4 	ldp	x20, x19, [sp, #32]
   8333c:	a94157f6 	ldp	x22, x21, [sp, #16]
   83340:	f84307fe 	ldr	x30, [sp], #48
   83344:	d65f03c0 	ret

0000000000083348 <_ZN4core3fmt9Formatter3pad17hd0ac327128f96116E>:
   83348:	d10183ff 	sub	sp, sp, #0x60
   8334c:	f9400008 	ldr	x8, [x0]
   83350:	a90457f6 	stp	x22, x21, [sp, #64]
   83354:	f9400809 	ldr	x9, [x0, #16]
   83358:	a9054ff4 	stp	x20, x19, [sp, #80]
   8335c:	aa0203f3 	mov	x19, x2
   83360:	aa0003f5 	mov	x21, x0
   83364:	f100051f 	cmp	x8, #0x1
   83368:	aa0103f4 	mov	x20, x1
   8336c:	fa411924 	ccmp	x9, #0x1, #0x4, ne  // ne = any
   83370:	a90267fe 	stp	x30, x25, [sp, #32]
   83374:	a9035ff8 	stp	x24, x23, [sp, #48]
   83378:	540021c1 	b.ne	837b0 <_ZN4core3fmt9Formatter3pad17hd0ac327128f96116E+0x468>  // b.any
   8337c:	f100053f 	cmp	x9, #0x1
   83380:	54000a21 	b.ne	834c4 <_ZN4core3fmt9Formatter3pad17hd0ac327128f96116E+0x17c>  // b.any
   83384:	f9400eaa 	ldr	x10, [x21, #24]
   83388:	aa1f03e9 	mov	x9, xzr
   8338c:	8b13028b 	add	x11, x20, x19
   83390:	9100054c 	add	x12, x10, #0x1
   83394:	aa1403ea 	mov	x10, x20
   83398:	14000007 	b	833b4 <_ZN4core3fmt9Formatter3pad17hd0ac327128f96116E+0x6c>
   8339c:	2a1003ed 	mov	w13, w16
   833a0:	cb0a0129 	sub	x9, x9, x10
   833a4:	aa0e03ea 	mov	x10, x14
   833a8:	8b0e0129 	add	x9, x9, x14
   833ac:	714441bf 	cmp	w13, #0x110, lsl #12
   833b0:	540008a0 	b.eq	834c4 <_ZN4core3fmt9Formatter3pad17hd0ac327128f96116E+0x17c>  // b.none
   833b4:	f100058c 	subs	x12, x12, #0x1
   833b8:	54000400 	b.eq	83438 <_ZN4core3fmt9Formatter3pad17hd0ac327128f96116E+0xf0>  // b.none
   833bc:	eb0b015f 	cmp	x10, x11
   833c0:	54000820 	b.eq	834c4 <_ZN4core3fmt9Formatter3pad17hd0ac327128f96116E+0x17c>  // b.none
   833c4:	aa0a03ee 	mov	x14, x10
   833c8:	38c015cd 	ldrsb	w13, [x14], #1
   833cc:	12001db0 	and	w16, w13, #0xff
   833d0:	36fffe6d 	tbz	w13, #31, 8339c <_ZN4core3fmt9Formatter3pad17hd0ac327128f96116E+0x54>
   833d4:	3940054d 	ldrb	w13, [x10, #1]
   833d8:	1200120f 	and	w15, w16, #0x1f
   833dc:	71037e1f 	cmp	w16, #0xdf
   833e0:	120015ad 	and	w13, w13, #0x3f
   833e4:	540001c9 	b.ls	8341c <_ZN4core3fmt9Formatter3pad17hd0ac327128f96116E+0xd4>  // b.plast
   833e8:	3940094e 	ldrb	w14, [x10, #2]
   833ec:	7103c21f 	cmp	w16, #0xf0
   833f0:	120015d1 	and	w17, w14, #0x3f
   833f4:	331a15b1 	bfi	w17, w13, #6, #6
   833f8:	54000183 	b.cc	83428 <_ZN4core3fmt9Formatter3pad17hd0ac327128f96116E+0xe0>  // b.lo, b.ul, b.last
   833fc:	39400d4d 	ldrb	w13, [x10, #3]
   83400:	120015ad 	and	w13, w13, #0x3f
   83404:	331a2e2d 	bfi	w13, w17, #6, #12
   83408:	330e09ed 	bfi	w13, w15, #18, #3
   8340c:	714441bf 	cmp	w13, #0x110, lsl #12
   83410:	540005a0 	b.eq	834c4 <_ZN4core3fmt9Formatter3pad17hd0ac327128f96116E+0x17c>  // b.none
   83414:	9100114e 	add	x14, x10, #0x4
   83418:	17ffffe2 	b	833a0 <_ZN4core3fmt9Formatter3pad17hd0ac327128f96116E+0x58>
   8341c:	9100094e 	add	x14, x10, #0x2
   83420:	331a11ed 	bfi	w13, w15, #6, #5
   83424:	17ffffdf 	b	833a0 <_ZN4core3fmt9Formatter3pad17hd0ac327128f96116E+0x58>
   83428:	331411f1 	bfi	w17, w15, #12, #5
   8342c:	91000d4e 	add	x14, x10, #0x3
   83430:	2a1103ed 	mov	w13, w17
   83434:	17ffffdb 	b	833a0 <_ZN4core3fmt9Formatter3pad17hd0ac327128f96116E+0x58>
   83438:	eb0b015f 	cmp	x10, x11
   8343c:	54000440 	b.eq	834c4 <_ZN4core3fmt9Formatter3pad17hd0ac327128f96116E+0x17c>  // b.none
   83440:	39c0014b 	ldrsb	w11, [x10]
   83444:	36f8022b 	tbz	w11, #31, 83488 <_ZN4core3fmt9Formatter3pad17hd0ac327128f96116E+0x140>
   83448:	12001d6b 	and	w11, w11, #0xff
   8344c:	7103817f 	cmp	w11, #0xe0
   83450:	540001c3 	b.cc	83488 <_ZN4core3fmt9Formatter3pad17hd0ac327128f96116E+0x140>  // b.lo, b.ul, b.last
   83454:	7103c17f 	cmp	w11, #0xf0
   83458:	54000183 	b.cc	83488 <_ZN4core3fmt9Formatter3pad17hd0ac327128f96116E+0x140>  // b.lo, b.ul, b.last
   8345c:	3940094c 	ldrb	w12, [x10, #2]
   83460:	3940054d 	ldrb	w13, [x10, #1]
   83464:	39400d4a 	ldrb	w10, [x10, #3]
   83468:	1200158c 	and	w12, w12, #0x3f
   8346c:	120015ad 	and	w13, w13, #0x3f
   83470:	53144dad 	lsl	w13, w13, #12
   83474:	331a158d 	bfi	w13, w12, #6, #6
   83478:	3300154d 	bfxil	w13, w10, #0, #6
   8347c:	330e096d 	bfi	w13, w11, #18, #3
   83480:	714441bf 	cmp	w13, #0x110, lsl #12
   83484:	54000200 	b.eq	834c4 <_ZN4core3fmt9Formatter3pad17hd0ac327128f96116E+0x17c>  // b.none
   83488:	b4000169 	cbz	x9, 834b4 <_ZN4core3fmt9Formatter3pad17hd0ac327128f96116E+0x16c>
   8348c:	eb13013f 	cmp	x9, x19
   83490:	540000e2 	b.cs	834ac <_ZN4core3fmt9Formatter3pad17hd0ac327128f96116E+0x164>  // b.hs, b.nlast
   83494:	38e96a8a 	ldrsb	w10, [x20, x9]
   83498:	3101015f 	cmn	w10, #0x40
   8349c:	540000ca 	b.ge	834b4 <_ZN4core3fmt9Formatter3pad17hd0ac327128f96116E+0x16c>  // b.tcont
   834a0:	aa1f03e9 	mov	x9, xzr
   834a4:	aa1f03ea 	mov	x10, xzr
   834a8:	14000004 	b	834b8 <_ZN4core3fmt9Formatter3pad17hd0ac327128f96116E+0x170>
   834ac:	eb13013f 	cmp	x9, x19
   834b0:	54ffff81 	b.ne	834a0 <_ZN4core3fmt9Formatter3pad17hd0ac327128f96116E+0x158>  // b.any
   834b4:	aa1403ea 	mov	x10, x20
   834b8:	f100015f 	cmp	x10, #0x0
   834bc:	9a890273 	csel	x19, x19, x9, eq  // eq = none
   834c0:	9a8a0294 	csel	x20, x20, x10, eq  // eq = none
   834c4:	b4001768 	cbz	x8, 837b0 <_ZN4core3fmt9Formatter3pad17hd0ac327128f96116E+0x468>
   834c8:	f94006b6 	ldr	x22, [x21, #8]
   834cc:	f100827f 	cmp	x19, #0x20
   834d0:	540000e2 	b.cs	834ec <_ZN4core3fmt9Formatter3pad17hd0ac327128f96116E+0x1a4>  // b.hs, b.nlast
   834d4:	b4000153 	cbz	x19, 834fc <_ZN4core3fmt9Formatter3pad17hd0ac327128f96116E+0x1b4>
   834d8:	f100227f 	cmp	x19, #0x8
   834dc:	54000142 	b.cs	83504 <_ZN4core3fmt9Formatter3pad17hd0ac327128f96116E+0x1bc>  // b.hs, b.nlast
   834e0:	aa1f03e0 	mov	x0, xzr
   834e4:	aa1403e8 	mov	x8, x20
   834e8:	140000a1 	b	8376c <_ZN4core3fmt9Formatter3pad17hd0ac327128f96116E+0x424>
   834ec:	aa1403e0 	mov	x0, x20
   834f0:	aa1303e1 	mov	x1, x19
   834f4:	97fffa94 	bl	81f44 <_ZN4core3str5count14do_count_chars17hf4570e7a07268196E>
   834f8:	140000a3 	b	83784 <_ZN4core3fmt9Formatter3pad17hd0ac327128f96116E+0x43c>
   834fc:	aa1f03e0 	mov	x0, xzr
   83500:	140000a1 	b	83784 <_ZN4core3fmt9Formatter3pad17hd0ac327128f96116E+0x43c>
   83504:	f100427f 	cmp	x19, #0x10
   83508:	54000082 	b.cs	83518 <_ZN4core3fmt9Formatter3pad17hd0ac327128f96116E+0x1d0>  // b.hs, b.nlast
   8350c:	aa1f03e0 	mov	x0, xzr
   83510:	aa1f03eb 	mov	x11, xzr
   83514:	14000060 	b	83694 <_ZN4core3fmt9Formatter3pad17hd0ac327128f96116E+0x34c>
   83518:	aa1403e8 	mov	x8, x20
   8351c:	3940168b 	ldrb	w11, [x20, #5]
   83520:	39400a8c 	ldrb	w12, [x20, #2]
   83524:	4f05e7e0 	movi	v0.16b, #0xbf
   83528:	38404d09 	ldrb	w9, [x8, #4]!
   8352c:	39400d0a 	ldrb	w10, [x8, #3]
   83530:	39400908 	ldrb	w8, [x8, #2]
   83534:	33181d69 	bfi	w9, w11, #8, #8
   83538:	3940068b 	ldrb	w11, [x20, #1]
   8353c:	33181d48 	bfi	w8, w10, #8, #8
   83540:	39400e8a 	ldrb	w10, [x20, #3]
   83544:	33103d09 	bfi	w9, w8, #16, #16
   83548:	39400288 	ldrb	w8, [x20]
   8354c:	b3781d4c 	bfi	x12, x10, #8, #8
   83550:	b3781d68 	bfi	x8, x11, #8, #8
   83554:	b3703d88 	bfi	x8, x12, #16, #16
   83558:	b3607d28 	bfi	x8, x9, #32, #32
   8355c:	aa1403e9 	mov	x9, x20
   83560:	f90003e8 	str	x8, [sp]
   83564:	38408d28 	ldrb	w8, [x9, #8]!
   83568:	39400d2a 	ldrb	w10, [x9, #3]
   8356c:	3940092b 	ldrb	w11, [x9, #2]
   83570:	38404d2c 	ldrb	w12, [x9, #4]!
   83574:	39400d2d 	ldrb	w13, [x9, #3]
   83578:	39400929 	ldrb	w9, [x9, #2]
   8357c:	b3781d4b 	bfi	x11, x10, #8, #8
   83580:	3940368e 	ldrb	w14, [x20, #13]
   83584:	33181da9 	bfi	w9, w13, #8, #8
   83588:	33181dcc 	bfi	w12, w14, #8, #8
   8358c:	33103d2c 	bfi	w12, w9, #16, #16
   83590:	39402689 	ldrb	w9, [x20, #9]
   83594:	b3781d28 	bfi	x8, x9, #8, #8
   83598:	b3703d68 	bfi	x8, x11, #16, #16
   8359c:	b3607d88 	bfi	x8, x12, #32, #32
   835a0:	f90007e8 	str	x8, [sp, #8]
   835a4:	3dc003e1 	ldr	q1, [sp]
   835a8:	4e203420 	cmgt	v0.16b, v1.16b, v0.16b
   835ac:	0e033c08 	umov	w8, v0.b[1]
   835b0:	0e053c0a 	umov	w10, v0.b[2]
   835b4:	0e013c09 	umov	w9, v0.b[0]
   835b8:	0e073c0b 	umov	w11, v0.b[3]
   835bc:	0e093c0c 	umov	w12, v0.b[4]
   835c0:	0e0b3c0d 	umov	w13, v0.b[5]
   835c4:	12000108 	and	w8, w8, #0x1
   835c8:	1200014a 	and	w10, w10, #0x1
   835cc:	12000129 	and	w9, w9, #0x1
   835d0:	1200016b 	and	w11, w11, #0x1
   835d4:	1200018c 	and	w12, w12, #0x1
   835d8:	120001ad 	and	w13, w13, #0x1
   835dc:	331f0109 	bfi	w9, w8, #1, #1
   835e0:	0e0d3c08 	umov	w8, v0.b[6]
   835e4:	331e0149 	bfi	w9, w10, #2, #1
   835e8:	0e0f3c0a 	umov	w10, v0.b[7]
   835ec:	331d0169 	bfi	w9, w11, #3, #1
   835f0:	0e113c0b 	umov	w11, v0.b[8]
   835f4:	331c0189 	bfi	w9, w12, #4, #1
   835f8:	0e133c0c 	umov	w12, v0.b[9]
   835fc:	12000108 	and	w8, w8, #0x1
   83600:	331b01a9 	bfi	w9, w13, #5, #1
   83604:	0e153c0d 	umov	w13, v0.b[10]
   83608:	1200014a 	and	w10, w10, #0x1
   8360c:	2a081928 	orr	w8, w9, w8, lsl #6
   83610:	0e173c09 	umov	w9, v0.b[11]
   83614:	1200016b 	and	w11, w11, #0x1
   83618:	2a0a1d08 	orr	w8, w8, w10, lsl #7
   8361c:	0e193c0a 	umov	w10, v0.b[12]
   83620:	1200018c 	and	w12, w12, #0x1
   83624:	2a0b2108 	orr	w8, w8, w11, lsl #8
   83628:	0e1b3c0b 	umov	w11, v0.b[13]
   8362c:	120001ad 	and	w13, w13, #0x1
   83630:	2a0c2508 	orr	w8, w8, w12, lsl #9
   83634:	0e1d3c0c 	umov	w12, v0.b[14]
   83638:	12000129 	and	w9, w9, #0x1
   8363c:	2a0d2908 	orr	w8, w8, w13, lsl #10
   83640:	1200014a 	and	w10, w10, #0x1
   83644:	2a092d08 	orr	w8, w8, w9, lsl #11
   83648:	12000169 	and	w9, w11, #0x1
   8364c:	0e1f3c0b 	umov	w11, v0.b[15]
   83650:	2a0a3108 	orr	w8, w8, w10, lsl #12
   83654:	1200018a 	and	w10, w12, #0x1
   83658:	2a093508 	orr	w8, w8, w9, lsl #13
   8365c:	2a0a3908 	orr	w8, w8, w10, lsl #14
   83660:	2a0b3d08 	orr	w8, w8, w11, lsl #15
   83664:	927cee6b 	and	x11, x19, #0xfffffffffffffff0
   83668:	eb0b027f 	cmp	x19, x11
   8366c:	79003be8 	strh	w8, [sp, #28]
   83670:	12003d08 	and	w8, w8, #0xffff
   83674:	9e670100 	fmov	d0, x8
   83678:	0e205800 	cnt	v0.8b, v0.8b
   8367c:	2e303800 	uaddlv	h0, v0.8b
   83680:	1e260000 	fmov	w0, s0
   83684:	54000800 	b.eq	83784 <_ZN4core3fmt9Formatter3pad17hd0ac327128f96116E+0x43c>  // b.none
   83688:	37180073 	tbnz	w19, #3, 83694 <_ZN4core3fmt9Formatter3pad17hd0ac327128f96116E+0x34c>
   8368c:	8b0b0288 	add	x8, x20, x11
   83690:	14000037 	b	8376c <_ZN4core3fmt9Formatter3pad17hd0ac327128f96116E+0x424>
   83694:	6f00e400 	movi	v0.2d, #0x0
   83698:	5280002c 	mov	w12, #0x1                   	// #1
   8369c:	927df269 	and	x9, x19, #0xfffffffffffffff8
   836a0:	0f05e7e2 	movi	v2.8b, #0xbf
   836a4:	6f00e401 	movi	v1.2d, #0x0
   836a8:	8b090288 	add	x8, x20, x9
   836ac:	6f00e403 	movi	v3.2d, #0x0
   836b0:	8b0b028a 	add	x10, x20, x11
   836b4:	4e081c00 	mov	v0.d[0], x0
   836b8:	cb09016b 	sub	x11, x11, x9
   836bc:	6f00e404 	movi	v4.2d, #0x0
   836c0:	4e080d85 	dup	v5.2d, x12
   836c4:	aa0a03ec 	mov	x12, x10
   836c8:	3940154f 	ldrb	w15, [x10, #5]
   836cc:	39400950 	ldrb	w16, [x10, #2]
   836d0:	b100216b 	adds	x11, x11, #0x8
   836d4:	38404d8d 	ldrb	w13, [x12, #4]!
   836d8:	39400d8e 	ldrb	w14, [x12, #3]
   836dc:	3940098c 	ldrb	w12, [x12, #2]
   836e0:	33181ded 	bfi	w13, w15, #8, #8
   836e4:	3940054f 	ldrb	w15, [x10, #1]
   836e8:	33181dcc 	bfi	w12, w14, #8, #8
   836ec:	39400d4e 	ldrb	w14, [x10, #3]
   836f0:	33103d8d 	bfi	w13, w12, #16, #16
   836f4:	b3781dd0 	bfi	x16, x14, #8, #8
   836f8:	3840854c 	ldrb	w12, [x10], #8
   836fc:	b3781dec 	bfi	x12, x15, #8, #8
   83700:	b3703e0c 	bfi	x12, x16, #16, #16
   83704:	b3607dac 	bfi	x12, x13, #32, #32
   83708:	9e670186 	fmov	d6, x12
   8370c:	0e2234c6 	cmgt	v6.8b, v6.8b, v2.8b
   83710:	2f08a4c6 	uxtl	v6.8h, v6.8b
   83714:	2f10a4c7 	uxtl	v7.4s, v6.4h
   83718:	6f10a4c6 	uxtl2	v6.4s, v6.8h
   8371c:	2f20a4f0 	uxtl	v16.2d, v7.2s
   83720:	6f20a4e7 	uxtl2	v7.2d, v7.4s
   83724:	2f20a4d1 	uxtl	v17.2d, v6.2s
   83728:	6f20a4c6 	uxtl2	v6.2d, v6.4s
   8372c:	4e251e10 	and	v16.16b, v16.16b, v5.16b
   83730:	4e251ce7 	and	v7.16b, v7.16b, v5.16b
   83734:	4e251e31 	and	v17.16b, v17.16b, v5.16b
   83738:	4e251cc6 	and	v6.16b, v6.16b, v5.16b
   8373c:	4ee68484 	add	v4.2d, v4.2d, v6.2d
   83740:	4ef18463 	add	v3.2d, v3.2d, v17.2d
   83744:	4ee78421 	add	v1.2d, v1.2d, v7.2d
   83748:	4ef08400 	add	v0.2d, v0.2d, v16.2d
   8374c:	54fffbc1 	b.ne	836c4 <_ZN4core3fmt9Formatter3pad17hd0ac327128f96116E+0x37c>  // b.any
   83750:	4ee38400 	add	v0.2d, v0.2d, v3.2d
   83754:	eb09027f 	cmp	x19, x9
   83758:	4ee48421 	add	v1.2d, v1.2d, v4.2d
   8375c:	4ee18400 	add	v0.2d, v0.2d, v1.2d
   83760:	5ef1b800 	addp	d0, v0.2d
   83764:	9e660000 	fmov	x0, d0
   83768:	540000e0 	b.eq	83784 <_ZN4core3fmt9Formatter3pad17hd0ac327128f96116E+0x43c>  // b.none
   8376c:	8b130289 	add	x9, x20, x19
   83770:	38c0150a 	ldrsb	w10, [x8], #1
   83774:	3101055f 	cmn	w10, #0x41
   83778:	9a80d400 	cinc	x0, x0, gt
   8377c:	eb09011f 	cmp	x8, x9
   83780:	54ffff81 	b.ne	83770 <_ZN4core3fmt9Formatter3pad17hd0ac327128f96116E+0x428>  // b.any
   83784:	eb0002c8 	subs	x8, x22, x0
   83788:	54000149 	b.ls	837b0 <_ZN4core3fmt9Formatter3pad17hd0ac327128f96116E+0x468>  // b.plast
   8378c:	3940e2a9 	ldrb	w9, [x21, #56]
   83790:	71000d3f 	cmp	w9, #0x3
   83794:	1a8903e9 	csel	w9, wzr, w9, eq  // eq = none
   83798:	7200053f 	tst	w9, #0x3
   8379c:	540001e0 	b.eq	837d8 <_ZN4core3fmt9Formatter3pad17hd0ac327128f96116E+0x490>  // b.none
   837a0:	7100053f 	cmp	w9, #0x1
   837a4:	540001e1 	b.ne	837e0 <_ZN4core3fmt9Formatter3pad17hd0ac327128f96116E+0x498>  // b.any
   837a8:	aa1f03f8 	mov	x24, xzr
   837ac:	14000011 	b	837f0 <_ZN4core3fmt9Formatter3pad17hd0ac327128f96116E+0x4a8>
   837b0:	a94222a0 	ldp	x0, x8, [x21, #32]
   837b4:	aa1403e1 	mov	x1, x20
   837b8:	aa1303e2 	mov	x2, x19
   837bc:	a9454ff4 	ldp	x20, x19, [sp, #80]
   837c0:	a94457f6 	ldp	x22, x21, [sp, #64]
   837c4:	a9435ff8 	ldp	x24, x23, [sp, #48]
   837c8:	a94267fe 	ldp	x30, x25, [sp, #32]
   837cc:	f9400d03 	ldr	x3, [x8, #24]
   837d0:	910183ff 	add	sp, sp, #0x60
   837d4:	d61f0060 	br	x3
   837d8:	aa0803f8 	mov	x24, x8
   837dc:	14000004 	b	837ec <_ZN4core3fmt9Formatter3pad17hd0ac327128f96116E+0x4a4>
   837e0:	d341fd09 	lsr	x9, x8, #1
   837e4:	91000508 	add	x8, x8, #0x1
   837e8:	d341fd18 	lsr	x24, x8, #1
   837ec:	aa0903e8 	mov	x8, x9
   837f0:	a9425eb6 	ldp	x22, x23, [x21, #32]
   837f4:	91000519 	add	x25, x8, #0x1
   837f8:	b94036b5 	ldr	w21, [x21, #52]
   837fc:	f1000739 	subs	x25, x25, #0x1
   83800:	540000e0 	b.eq	8381c <_ZN4core3fmt9Formatter3pad17hd0ac327128f96116E+0x4d4>  // b.none
   83804:	f94012e8 	ldr	x8, [x23, #32]
   83808:	aa1603e0 	mov	x0, x22
   8380c:	2a1503e1 	mov	w1, w21
   83810:	d63f0100 	blr	x8
   83814:	3607ff40 	tbz	w0, #0, 837fc <_ZN4core3fmt9Formatter3pad17hd0ac327128f96116E+0x4b4>
   83818:	1400000a 	b	83840 <_ZN4core3fmt9Formatter3pad17hd0ac327128f96116E+0x4f8>
   8381c:	714442bf 	cmp	w21, #0x110, lsl #12
   83820:	9a9803f8 	csel	x24, xzr, x24, eq  // eq = none
   83824:	540000e0 	b.eq	83840 <_ZN4core3fmt9Formatter3pad17hd0ac327128f96116E+0x4f8>  // b.none
   83828:	f9400ee8 	ldr	x8, [x23, #24]
   8382c:	aa1603e0 	mov	x0, x22
   83830:	aa1403e1 	mov	x1, x20
   83834:	aa1303e2 	mov	x2, x19
   83838:	d63f0100 	blr	x8
   8383c:	36000100 	tbz	w0, #0, 8385c <_ZN4core3fmt9Formatter3pad17hd0ac327128f96116E+0x514>
   83840:	52800020 	mov	w0, #0x1                   	// #1
   83844:	a9454ff4 	ldp	x20, x19, [sp, #80]
   83848:	a94457f6 	ldp	x22, x21, [sp, #64]
   8384c:	a9435ff8 	ldp	x24, x23, [sp, #48]
   83850:	a94267fe 	ldp	x30, x25, [sp, #32]
   83854:	910183ff 	add	sp, sp, #0x60
   83858:	d65f03c0 	ret
   8385c:	aa1f03f3 	mov	x19, xzr
   83860:	eb13031f 	cmp	x24, x19
   83864:	54000120 	b.eq	83888 <_ZN4core3fmt9Formatter3pad17hd0ac327128f96116E+0x540>  // b.none
   83868:	f94012e8 	ldr	x8, [x23, #32]
   8386c:	aa1603e0 	mov	x0, x22
   83870:	2a1503e1 	mov	w1, w21
   83874:	91000673 	add	x19, x19, #0x1
   83878:	d63f0100 	blr	x8
   8387c:	34ffff20 	cbz	w0, 83860 <_ZN4core3fmt9Formatter3pad17hd0ac327128f96116E+0x518>
   83880:	d1000668 	sub	x8, x19, #0x1
   83884:	14000002 	b	8388c <_ZN4core3fmt9Formatter3pad17hd0ac327128f96116E+0x544>
   83888:	aa1803e8 	mov	x8, x24
   8388c:	eb18011f 	cmp	x8, x24
   83890:	1a9f27e0 	cset	w0, cc  // cc = lo, ul, last
   83894:	a9454ff4 	ldp	x20, x19, [sp, #80]
   83898:	a94457f6 	ldp	x22, x21, [sp, #64]
   8389c:	a9435ff8 	ldp	x24, x23, [sp, #48]
   838a0:	a94267fe 	ldp	x30, x25, [sp, #32]
   838a4:	910183ff 	add	sp, sp, #0x60
   838a8:	d65f03c0 	ret

00000000000838ac <_ZN42_$LT$str$u20$as$u20$core..fmt..Display$GT$3fmt17ha60ebf429b0a2d81E>:
   838ac:	aa0103e8 	mov	x8, x1
   838b0:	aa0003e1 	mov	x1, x0
   838b4:	aa0203e0 	mov	x0, x2
   838b8:	aa0803e2 	mov	x2, x8
   838bc:	17fffea3 	b	83348 <_ZN4core3fmt9Formatter3pad17hd0ac327128f96116E>

00000000000838c0 <_ZN4core3ptr28drop_in_place$LT$$RF$u64$GT$17h11ed966025d43eccE.llvm.808812796197236722>:
   838c0:	d65f03c0 	ret

00000000000838c4 <_ZN4core9panicking5panic17hef51cd3fc116a419E>:
   838c4:	d10103ff 	sub	sp, sp, #0x40
   838c8:	9100c3e8 	add	x8, sp, #0x30
   838cc:	52800029 	mov	w9, #0x1                   	// #1
   838d0:	a90307e0 	stp	x0, x1, [sp, #48]
   838d4:	910003e0 	mov	x0, sp
   838d8:	aa0203e1 	mov	x1, x2
   838dc:	a9017fff 	stp	xzr, xzr, [sp, #16]
   838e0:	a90027e8 	stp	x8, x9, [sp]
   838e4:	b0000008 	adrp	x8, 84000 <_ZN17compiler_builtins3mem6memcpy17h5498ba8912cb5f38E+0x6d4>
   838e8:	9126a108 	add	x8, x8, #0x9a8
   838ec:	a9027fe8 	stp	x8, xzr, [sp, #32]
   838f0:	94000002 	bl	838f8 <_ZN4core9panicking9panic_fmt17h2312ad85af3cbc59E>
   838f4:	d4200020 	brk	#0x1

00000000000838f8 <_ZN4core9panicking9panic_fmt17h2312ad85af3cbc59E>:
   838f8:	d100c3ff 	sub	sp, sp, #0x30
   838fc:	b0000008 	adrp	x8, 84000 <_ZN17compiler_builtins3mem6memcpy17h5498ba8912cb5f38E+0x6d4>
   83900:	9126a108 	add	x8, x8, #0x9a8
   83904:	b0000009 	adrp	x9, 84000 <_ZN17compiler_builtins3mem6memcpy17h5498ba8912cb5f38E+0x6d4>
   83908:	9126a129 	add	x9, x9, #0x9a8
   8390c:	a90187e0 	stp	x0, x1, [sp, #24]
   83910:	910023e0 	add	x0, sp, #0x8
   83914:	a900a7e8 	stp	x8, x9, [sp, #8]
   83918:	52800028 	mov	w8, #0x1                   	// #1
   8391c:	3900a3e8 	strb	w8, [sp, #40]
   83920:	97fff437 	bl	809fc <rust_begin_unwind>
   83924:	d4200020 	brk	#0x1

0000000000083928 <memcpy>:
   83928:	14000001 	b	8392c <_ZN17compiler_builtins3mem6memcpy17h5498ba8912cb5f38E>

000000000008392c <_ZN17compiler_builtins3mem6memcpy17h5498ba8912cb5f38E>:
   8392c:	d10483ff 	sub	sp, sp, #0x120
   83930:	f1003c5f 	cmp	x2, #0xf
   83934:	f90083fd 	str	x29, [sp, #256]
   83938:	a9114ff4 	stp	x20, x19, [sp, #272]
   8393c:	540002e9 	b.ls	83998 <_ZN17compiler_builtins3mem6memcpy17h5498ba8912cb5f38E+0x6c>  // b.plast
   83940:	4b0003e8 	neg	w8, w0
   83944:	f240090a 	ands	x10, x8, #0x7
   83948:	8b0a0008 	add	x8, x0, x10
   8394c:	54001ac0 	b.eq	83ca4 <_ZN17compiler_builtins3mem6memcpy17h5498ba8912cb5f38E+0x378>  // b.none
   83950:	8b000149 	add	x9, x10, x0
   83954:	9100040b 	add	x11, x0, #0x1
   83958:	eb0b013f 	cmp	x9, x11
   8395c:	aa0003ec 	mov	x12, x0
   83960:	9a808529 	csinc	x9, x9, x0, hi  // hi = pmore
   83964:	aa0103ed 	mov	x13, x1
   83968:	cb000129 	sub	x9, x9, x0
   8396c:	f100213f 	cmp	x9, #0x8
   83970:	54001923 	b.cc	83c94 <_ZN17compiler_builtins3mem6memcpy17h5498ba8912cb5f38E+0x368>  // b.lo, b.ul, b.last
   83974:	aa0003ec 	mov	x12, x0
   83978:	aa0103ed 	mov	x13, x1
   8397c:	cb01000b 	sub	x11, x0, x1
   83980:	f100817f 	cmp	x11, #0x20
   83984:	54001883 	b.cc	83c94 <_ZN17compiler_builtins3mem6memcpy17h5498ba8912cb5f38E+0x368>  // b.lo, b.ul, b.last
   83988:	f100813f 	cmp	x9, #0x20
   8398c:	540000c2 	b.cs	839a4 <_ZN17compiler_builtins3mem6memcpy17h5498ba8912cb5f38E+0x78>  // b.hs, b.nlast
   83990:	aa1f03eb 	mov	x11, xzr
   83994:	1400009c 	b	83c04 <_ZN17compiler_builtins3mem6memcpy17h5498ba8912cb5f38E+0x2d8>
   83998:	aa0003e9 	mov	x9, x0
   8399c:	b5003122 	cbnz	x2, 83fc0 <_ZN17compiler_builtins3mem6memcpy17h5498ba8912cb5f38E+0x694>
   839a0:	14000259 	b	84304 <_ZN17compiler_builtins3mem6memcpy17h5498ba8912cb5f38E+0x9d8>
   839a4:	927be92b 	and	x11, x9, #0xffffffffffffffe0
   839a8:	9100402c 	add	x12, x1, #0x10
   839ac:	9100400e 	add	x14, x0, #0x10
   839b0:	aa0b03ed 	mov	x13, x11
   839b4:	aa0c03ef 	mov	x15, x12
   839b8:	385f5184 	ldurb	w4, [x12, #-11]
   839bc:	f10081ad 	subs	x13, x13, #0x20
   839c0:	385f0df0 	ldrb	w16, [x15, #-16]!
   839c4:	aa0f03f1 	mov	x17, x15
   839c8:	394009e5 	ldrb	w5, [x15, #2]
   839cc:	38404e32 	ldrb	w18, [x17, #4]!
   839d0:	39400e23 	ldrb	w3, [x17, #3]
   839d4:	39400a31 	ldrb	w17, [x17, #2]
   839d8:	33181c92 	bfi	w18, w4, #8, #8
   839dc:	33181c71 	bfi	w17, w3, #8, #8
   839e0:	39400de3 	ldrb	w3, [x15, #3]
   839e4:	33103e32 	bfi	w18, w17, #16, #16
   839e8:	385f1191 	ldurb	w17, [x12, #-15]
   839ec:	b3781c65 	bfi	x5, x3, #8, #8
   839f0:	b3781e30 	bfi	x16, x17, #8, #8
   839f4:	aa0f03f1 	mov	x17, x15
   839f8:	b3703cb0 	bfi	x16, x5, #16, #16
   839fc:	b3607e50 	bfi	x16, x18, #32, #32
   83a00:	f9006bf0 	str	x16, [sp, #208]
   83a04:	38408e30 	ldrb	w16, [x17, #8]!
   83a08:	39400e32 	ldrb	w18, [x17, #3]
   83a0c:	39400a23 	ldrb	w3, [x17, #2]
   83a10:	38404e24 	ldrb	w4, [x17, #4]!
   83a14:	39400e25 	ldrb	w5, [x17, #3]
   83a18:	39400a31 	ldrb	w17, [x17, #2]
   83a1c:	b3781e43 	bfi	x3, x18, #8, #8
   83a20:	394035e6 	ldrb	w6, [x15, #13]
   83a24:	394025ef 	ldrb	w15, [x15, #9]
   83a28:	33181cb1 	bfi	w17, w5, #8, #8
   83a2c:	33181cc4 	bfi	w4, w6, #8, #8
   83a30:	b3781df0 	bfi	x16, x15, #8, #8
   83a34:	aa0c03ef 	mov	x15, x12
   83a38:	33103e24 	bfi	w4, w17, #16, #16
   83a3c:	b3703c70 	bfi	x16, x3, #16, #16
   83a40:	b3607c90 	bfi	x16, x4, #32, #32
   83a44:	f9006ff0 	str	x16, [sp, #216]
   83a48:	38404df0 	ldrb	w16, [x15, #4]!
   83a4c:	39400df1 	ldrb	w17, [x15, #3]
   83a50:	394009ef 	ldrb	w15, [x15, #2]
   83a54:	39401592 	ldrb	w18, [x12, #5]
   83a58:	39400983 	ldrb	w3, [x12, #2]
   83a5c:	33181e2f 	bfi	w15, w17, #8, #8
   83a60:	39400d91 	ldrb	w17, [x12, #3]
   83a64:	33181e50 	bfi	w16, w18, #8, #8
   83a68:	39400592 	ldrb	w18, [x12, #1]
   83a6c:	33103df0 	bfi	w16, w15, #16, #16
   83a70:	3940018f 	ldrb	w15, [x12]
   83a74:	b3781e23 	bfi	x3, x17, #8, #8
   83a78:	b3781e4f 	bfi	x15, x18, #8, #8
   83a7c:	b3703c6f 	bfi	x15, x3, #16, #16
   83a80:	b3607e0f 	bfi	x15, x16, #32, #32
   83a84:	aa0c03f0 	mov	x16, x12
   83a88:	f90063ef 	str	x15, [sp, #192]
   83a8c:	38408e0f 	ldrb	w15, [x16, #8]!
   83a90:	39400e11 	ldrb	w17, [x16, #3]
   83a94:	39400a12 	ldrb	w18, [x16, #2]
   83a98:	38404e03 	ldrb	w3, [x16, #4]!
   83a9c:	39400e04 	ldrb	w4, [x16, #3]
   83aa0:	39400a10 	ldrb	w16, [x16, #2]
   83aa4:	b3781e32 	bfi	x18, x17, #8, #8
   83aa8:	39403585 	ldrb	w5, [x12, #13]
   83aac:	33181c90 	bfi	w16, w4, #8, #8
   83ab0:	33181ca3 	bfi	w3, w5, #8, #8
   83ab4:	33103e03 	bfi	w3, w16, #16, #16
   83ab8:	39402590 	ldrb	w16, [x12, #9]
   83abc:	9100818c 	add	x12, x12, #0x20
   83ac0:	b3781e0f 	bfi	x15, x16, #8, #8
   83ac4:	b3703e4f 	bfi	x15, x18, #16, #16
   83ac8:	b3607c6f 	bfi	x15, x3, #32, #32
   83acc:	f90067ef 	str	x15, [sp, #200]
   83ad0:	aa0e03ef 	mov	x15, x14
   83ad4:	ad4603e1 	ldp	q1, q0, [sp, #192]
   83ad8:	3d803fe0 	str	q0, [sp, #240]
   83adc:	f9407bf0 	ldr	x16, [sp, #240]
   83ae0:	381f0df0 	strb	w16, [x15, #-16]!
   83ae4:	f9407ff1 	ldr	x17, [sp, #248]
   83ae8:	d358fe12 	lsr	x18, x16, #24
   83aec:	d350fe03 	lsr	x3, x16, #16
   83af0:	d368fe04 	lsr	x4, x16, #40
   83af4:	d368fe25 	lsr	x5, x17, #40
   83af8:	39000df2 	strb	w18, [x15, #3]
   83afc:	d348fe32 	lsr	x18, x17, #8
   83b00:	390009e3 	strb	w3, [x15, #2]
   83b04:	d360fe03 	lsr	x3, x16, #32
   83b08:	381f51c4 	sturb	w4, [x14, #-11]
   83b0c:	390035e5 	strb	w5, [x15, #13]
   83b10:	d348fe05 	lsr	x5, x16, #8
   83b14:	390025f2 	strb	w18, [x15, #9]
   83b18:	aa0f03f2 	mov	x18, x15
   83b1c:	38004de3 	strb	w3, [x15, #4]!
   83b20:	d378fe03 	lsr	x3, x16, #56
   83b24:	d358fe24 	lsr	x4, x17, #24
   83b28:	381f11c5 	sturb	w5, [x14, #-15]
   83b2c:	d350fe25 	lsr	x5, x17, #16
   83b30:	38008e51 	strb	w17, [x18, #8]!
   83b34:	39000e44 	strb	w4, [x18, #3]
   83b38:	d370fe10 	lsr	x16, x16, #48
   83b3c:	d360fe24 	lsr	x4, x17, #32
   83b40:	39000de3 	strb	w3, [x15, #3]
   83b44:	d378fe23 	lsr	x3, x17, #56
   83b48:	d370fe31 	lsr	x17, x17, #48
   83b4c:	39000a45 	strb	w5, [x18, #2]
   83b50:	390009f0 	strb	w16, [x15, #2]
   83b54:	aa0e03f0 	mov	x16, x14
   83b58:	38004e44 	strb	w4, [x18, #4]!
   83b5c:	39000e43 	strb	w3, [x18, #3]
   83b60:	39000a51 	strb	w17, [x18, #2]
   83b64:	3d803be1 	str	q1, [sp, #224]
   83b68:	f94073ef 	ldr	x15, [sp, #224]
   83b6c:	390001cf 	strb	w15, [x14]
   83b70:	f94077f1 	ldr	x17, [sp, #232]
   83b74:	d358fe32 	lsr	x18, x17, #24
   83b78:	d350fe23 	lsr	x3, x17, #16
   83b7c:	d360fe24 	lsr	x4, x17, #32
   83b80:	38008e11 	strb	w17, [x16, #8]!
   83b84:	39000e12 	strb	w18, [x16, #3]
   83b88:	d368fdf2 	lsr	x18, x15, #40
   83b8c:	39000a03 	strb	w3, [x16, #2]
   83b90:	d358fde3 	lsr	x3, x15, #24
   83b94:	38004e04 	strb	w4, [x16, #4]!
   83b98:	d350fde4 	lsr	x4, x15, #16
   83b9c:	390015d2 	strb	w18, [x14, #5]
   83ba0:	d348fdf2 	lsr	x18, x15, #8
   83ba4:	39000dc3 	strb	w3, [x14, #3]
   83ba8:	d368fe23 	lsr	x3, x17, #40
   83bac:	390009c4 	strb	w4, [x14, #2]
   83bb0:	d348fe24 	lsr	x4, x17, #8
   83bb4:	390005d2 	strb	w18, [x14, #1]
   83bb8:	d360fdf2 	lsr	x18, x15, #32
   83bbc:	390035c3 	strb	w3, [x14, #13]
   83bc0:	910081c3 	add	x3, x14, #0x20
   83bc4:	390025c4 	strb	w4, [x14, #9]
   83bc8:	d378fde4 	lsr	x4, x15, #56
   83bcc:	d370fdef 	lsr	x15, x15, #48
   83bd0:	38004dd2 	strb	w18, [x14, #4]!
   83bd4:	39000dc4 	strb	w4, [x14, #3]
   83bd8:	d378fe32 	lsr	x18, x17, #56
   83bdc:	d370fe31 	lsr	x17, x17, #48
   83be0:	390009cf 	strb	w15, [x14, #2]
   83be4:	aa0303ee 	mov	x14, x3
   83be8:	39000e12 	strb	w18, [x16, #3]
   83bec:	39000a11 	strb	w17, [x16, #2]
   83bf0:	54ffee21 	b.ne	839b4 <_ZN17compiler_builtins3mem6memcpy17h5498ba8912cb5f38E+0x88>  // b.any
   83bf4:	eb0b013f 	cmp	x9, x11
   83bf8:	54000560 	b.eq	83ca4 <_ZN17compiler_builtins3mem6memcpy17h5498ba8912cb5f38E+0x378>  // b.none
   83bfc:	f27d053f 	tst	x9, #0x18
   83c00:	54000460 	b.eq	83c8c <_ZN17compiler_builtins3mem6memcpy17h5498ba8912cb5f38E+0x360>  // b.none
   83c04:	927df12e 	and	x14, x9, #0xfffffffffffffff8
   83c08:	8b0b002f 	add	x15, x1, x11
   83c0c:	8b0e000c 	add	x12, x0, x14
   83c10:	8b0e002d 	add	x13, x1, x14
   83c14:	8b0b0010 	add	x16, x0, x11
   83c18:	cb0e016b 	sub	x11, x11, x14
   83c1c:	aa0f03f1 	mov	x17, x15
   83c20:	394015f2 	ldrb	w18, [x15, #5]
   83c24:	394005e3 	ldrb	w3, [x15, #1]
   83c28:	b100216b 	adds	x11, x11, #0x8
   83c2c:	394009e6 	ldrb	w6, [x15, #2]
   83c30:	38404e24 	ldrb	w4, [x17, #4]!
   83c34:	39400a25 	ldrb	w5, [x17, #2]
   83c38:	39400e31 	ldrb	w17, [x17, #3]
   83c3c:	33181e44 	bfi	w4, w18, #8, #8
   83c40:	39400df3 	ldrb	w19, [x15, #3]
   83c44:	2a0503e7 	mov	w7, w5
   83c48:	33181e27 	bfi	w7, w17, #8, #8
   83c4c:	384085f4 	ldrb	w20, [x15], #8
   83c50:	39001612 	strb	w18, [x16, #5]
   83c54:	91002212 	add	x18, x16, #0x8
   83c58:	33103ce4 	bfi	w4, w7, #16, #16
   83c5c:	39000a06 	strb	w6, [x16, #2]
   83c60:	39000e13 	strb	w19, [x16, #3]
   83c64:	39000214 	strb	w20, [x16]
   83c68:	39000603 	strb	w3, [x16, #1]
   83c6c:	38004e04 	strb	w4, [x16, #4]!
   83c70:	39000a05 	strb	w5, [x16, #2]
   83c74:	39000e11 	strb	w17, [x16, #3]
   83c78:	aa1203f0 	mov	x16, x18
   83c7c:	54fffd01 	b.ne	83c1c <_ZN17compiler_builtins3mem6memcpy17h5498ba8912cb5f38E+0x2f0>  // b.any
   83c80:	eb0e013f 	cmp	x9, x14
   83c84:	54000081 	b.ne	83c94 <_ZN17compiler_builtins3mem6memcpy17h5498ba8912cb5f38E+0x368>  // b.any
   83c88:	14000007 	b	83ca4 <_ZN17compiler_builtins3mem6memcpy17h5498ba8912cb5f38E+0x378>
   83c8c:	8b0b002d 	add	x13, x1, x11
   83c90:	8b0b000c 	add	x12, x0, x11
   83c94:	384015a9 	ldrb	w9, [x13], #1
   83c98:	38001589 	strb	w9, [x12], #1
   83c9c:	eb08019f 	cmp	x12, x8
   83ca0:	54ffffa3 	b.cc	83c94 <_ZN17compiler_builtins3mem6memcpy17h5498ba8912cb5f38E+0x368>  // b.lo, b.ul, b.last
   83ca4:	cb0a004b 	sub	x11, x2, x10
   83ca8:	8b0a002d 	add	x13, x1, x10
   83cac:	927df16c 	and	x12, x11, #0xfffffffffffffff8
   83cb0:	f24009bf 	tst	x13, #0x7
   83cb4:	8b0c0109 	add	x9, x8, x12
   83cb8:	54000200 	b.eq	83cf8 <_ZN17compiler_builtins3mem6memcpy17h5498ba8912cb5f38E+0x3cc>  // b.none
   83cbc:	f100059f 	cmp	x12, #0x1
   83cc0:	540017ab 	b.lt	83fb4 <_ZN17compiler_builtins3mem6memcpy17h5498ba8912cb5f38E+0x688>  // b.tstop
   83cc4:	8b00018f 	add	x15, x12, x0
   83cc8:	8b00014e 	add	x14, x10, x0
   83ccc:	8b0a01ef 	add	x15, x15, x10
   83cd0:	910021d0 	add	x16, x14, #0x8
   83cd4:	eb1001ff 	cmp	x15, x16
   83cd8:	9a9081ef 	csel	x15, x15, x16, hi  // hi = pmore
   83cdc:	aa2003f0 	mvn	x16, x0
   83ce0:	8b1001ef 	add	x15, x15, x16
   83ce4:	cb0a01ef 	sub	x15, x15, x10
   83ce8:	f100a1ff 	cmp	x15, #0x28
   83cec:	54000242 	b.cs	83d34 <_ZN17compiler_builtins3mem6memcpy17h5498ba8912cb5f38E+0x408>  // b.hs, b.nlast
   83cf0:	aa0d03ee 	mov	x14, x13
   83cf4:	14000073 	b	83ec0 <_ZN17compiler_builtins3mem6memcpy17h5498ba8912cb5f38E+0x594>
   83cf8:	f100059f 	cmp	x12, #0x1
   83cfc:	540015cb 	b.lt	83fb4 <_ZN17compiler_builtins3mem6memcpy17h5498ba8912cb5f38E+0x688>  // b.tstop
   83d00:	8b00018f 	add	x15, x12, x0
   83d04:	8b00014e 	add	x14, x10, x0
   83d08:	8b0a01ef 	add	x15, x15, x10
   83d0c:	910021d0 	add	x16, x14, #0x8
   83d10:	eb1001ff 	cmp	x15, x16
   83d14:	9a9081ef 	csel	x15, x15, x16, hi  // hi = pmore
   83d18:	aa2003f0 	mvn	x16, x0
   83d1c:	8b1001ef 	add	x15, x15, x16
   83d20:	cb0a01ef 	sub	x15, x15, x10
   83d24:	f100a1ff 	cmp	x15, #0x28
   83d28:	54000f42 	b.cs	83f10 <_ZN17compiler_builtins3mem6memcpy17h5498ba8912cb5f38E+0x5e4>  // b.hs, b.nlast
   83d2c:	aa0d03ee 	mov	x14, x13
   83d30:	1400009d 	b	83fa4 <_ZN17compiler_builtins3mem6memcpy17h5498ba8912cb5f38E+0x678>
   83d34:	cb0d01d0 	sub	x16, x14, x13
   83d38:	aa0d03ee 	mov	x14, x13
   83d3c:	f100821f 	cmp	x16, #0x20
   83d40:	54000c03 	b.cc	83ec0 <_ZN17compiler_builtins3mem6memcpy17h5498ba8912cb5f38E+0x594>  // b.lo, b.ul, b.last
   83d44:	d343fdee 	lsr	x14, x15, #3
   83d48:	b27c0151 	orr	x17, x10, #0x10
   83d4c:	910005cf 	add	x15, x14, #0x1
   83d50:	8b11002a 	add	x10, x1, x17
   83d54:	927eedf0 	and	x16, x15, #0x3ffffffffffffffc
   83d58:	8b110011 	add	x17, x0, x17
   83d5c:	d37df20e 	lsl	x14, x16, #3
   83d60:	aa1003f2 	mov	x18, x16
   83d64:	8b0e0108 	add	x8, x8, x14
   83d68:	8b0e01ae 	add	x14, x13, x14
   83d6c:	aa0a03e1 	mov	x1, x10
   83d70:	385f5146 	ldurb	w6, [x10, #-11]
   83d74:	f1001252 	subs	x18, x18, #0x4
   83d78:	385f0c22 	ldrb	w2, [x1, #-16]!
   83d7c:	aa0103e3 	mov	x3, x1
   83d80:	39400827 	ldrb	w7, [x1, #2]
   83d84:	38404c64 	ldrb	w4, [x3, #4]!
   83d88:	39400c65 	ldrb	w5, [x3, #3]
   83d8c:	39400863 	ldrb	w3, [x3, #2]
   83d90:	33181cc4 	bfi	w4, w6, #8, #8
   83d94:	33181ca3 	bfi	w3, w5, #8, #8
   83d98:	39400c25 	ldrb	w5, [x1, #3]
   83d9c:	33103c64 	bfi	w4, w3, #16, #16
   83da0:	385f1143 	ldurb	w3, [x10, #-15]
   83da4:	b3781ca7 	bfi	x7, x5, #8, #8
   83da8:	b3781c62 	bfi	x2, x3, #8, #8
   83dac:	aa0103e3 	mov	x3, x1
   83db0:	b3703ce2 	bfi	x2, x7, #16, #16
   83db4:	b3607c82 	bfi	x2, x4, #32, #32
   83db8:	f9004be2 	str	x2, [sp, #144]
   83dbc:	38408c62 	ldrb	w2, [x3, #8]!
   83dc0:	39400c64 	ldrb	w4, [x3, #3]
   83dc4:	39400865 	ldrb	w5, [x3, #2]
   83dc8:	38404c66 	ldrb	w6, [x3, #4]!
   83dcc:	39400c67 	ldrb	w7, [x3, #3]
   83dd0:	39400863 	ldrb	w3, [x3, #2]
   83dd4:	b3781c85 	bfi	x5, x4, #8, #8
   83dd8:	39403433 	ldrb	w19, [x1, #13]
   83ddc:	39402421 	ldrb	w1, [x1, #9]
   83de0:	33181ce3 	bfi	w3, w7, #8, #8
   83de4:	33181e66 	bfi	w6, w19, #8, #8
   83de8:	b3781c22 	bfi	x2, x1, #8, #8
   83dec:	aa0a03e1 	mov	x1, x10
   83df0:	33103c66 	bfi	w6, w3, #16, #16
   83df4:	b3703ca2 	bfi	x2, x5, #16, #16
   83df8:	b3607cc2 	bfi	x2, x6, #32, #32
   83dfc:	f9004fe2 	str	x2, [sp, #152]
   83e00:	38404c22 	ldrb	w2, [x1, #4]!
   83e04:	39400c23 	ldrb	w3, [x1, #3]
   83e08:	39400821 	ldrb	w1, [x1, #2]
   83e0c:	39401544 	ldrb	w4, [x10, #5]
   83e10:	39400945 	ldrb	w5, [x10, #2]
   83e14:	33181c61 	bfi	w1, w3, #8, #8
   83e18:	39400d43 	ldrb	w3, [x10, #3]
   83e1c:	33181c82 	bfi	w2, w4, #8, #8
   83e20:	39400544 	ldrb	w4, [x10, #1]
   83e24:	33103c22 	bfi	w2, w1, #16, #16
   83e28:	39400141 	ldrb	w1, [x10]
   83e2c:	b3781c65 	bfi	x5, x3, #8, #8
   83e30:	b3781c81 	bfi	x1, x4, #8, #8
   83e34:	b3703ca1 	bfi	x1, x5, #16, #16
   83e38:	b3607c41 	bfi	x1, x2, #32, #32
   83e3c:	aa0a03e2 	mov	x2, x10
   83e40:	f90043e1 	str	x1, [sp, #128]
   83e44:	38408c41 	ldrb	w1, [x2, #8]!
   83e48:	39400c43 	ldrb	w3, [x2, #3]
   83e4c:	39400844 	ldrb	w4, [x2, #2]
   83e50:	38404c45 	ldrb	w5, [x2, #4]!
   83e54:	39400c46 	ldrb	w6, [x2, #3]
   83e58:	39400842 	ldrb	w2, [x2, #2]
   83e5c:	b3781c64 	bfi	x4, x3, #8, #8
   83e60:	39403547 	ldrb	w7, [x10, #13]
   83e64:	33181cc2 	bfi	w2, w6, #8, #8
   83e68:	33181ce5 	bfi	w5, w7, #8, #8
   83e6c:	33103c45 	bfi	w5, w2, #16, #16
   83e70:	39402542 	ldrb	w2, [x10, #9]
   83e74:	9100814a 	add	x10, x10, #0x20
   83e78:	b3781c41 	bfi	x1, x2, #8, #8
   83e7c:	b3703c81 	bfi	x1, x4, #16, #16
   83e80:	b3607ca1 	bfi	x1, x5, #32, #32
   83e84:	f90047e1 	str	x1, [sp, #136]
   83e88:	ad4403e1 	ldp	q1, q0, [sp, #128]
   83e8c:	3d802fe0 	str	q0, [sp, #176]
   83e90:	f9405fe1 	ldr	x1, [sp, #184]
   83e94:	f81f8221 	stur	x1, [x17, #-8]
   83e98:	f9405be1 	ldr	x1, [sp, #176]
   83e9c:	f81f0221 	stur	x1, [x17, #-16]
   83ea0:	3d802be1 	str	q1, [sp, #160]
   83ea4:	f94057e1 	ldr	x1, [sp, #168]
   83ea8:	f9000621 	str	x1, [x17, #8]
   83eac:	f94053e1 	ldr	x1, [sp, #160]
   83eb0:	f8020621 	str	x1, [x17], #32
   83eb4:	54fff5c1 	b.ne	83d6c <_ZN17compiler_builtins3mem6memcpy17h5498ba8912cb5f38E+0x440>  // b.any
   83eb8:	eb1001ff 	cmp	x15, x16
   83ebc:	540007c0 	b.eq	83fb4 <_ZN17compiler_builtins3mem6memcpy17h5498ba8912cb5f38E+0x688>  // b.none
   83ec0:	aa0e03ea 	mov	x10, x14
   83ec4:	394015d1 	ldrb	w17, [x14, #5]
   83ec8:	394009d2 	ldrb	w18, [x14, #2]
   83ecc:	38404d4f 	ldrb	w15, [x10, #4]!
   83ed0:	39400d50 	ldrb	w16, [x10, #3]
   83ed4:	3940094a 	ldrb	w10, [x10, #2]
   83ed8:	33181e2f 	bfi	w15, w17, #8, #8
   83edc:	394005d1 	ldrb	w17, [x14, #1]
   83ee0:	33181e0a 	bfi	w10, w16, #8, #8
   83ee4:	39400dd0 	ldrb	w16, [x14, #3]
   83ee8:	33103d4f 	bfi	w15, w10, #16, #16
   83eec:	b3781e12 	bfi	x18, x16, #8, #8
   83ef0:	384085ca 	ldrb	w10, [x14], #8
   83ef4:	b3781e2a 	bfi	x10, x17, #8, #8
   83ef8:	b3703e4a 	bfi	x10, x18, #16, #16
   83efc:	b3607dea 	bfi	x10, x15, #32, #32
   83f00:	f800850a 	str	x10, [x8], #8
   83f04:	eb09011f 	cmp	x8, x9
   83f08:	54fffdc3 	b.cc	83ec0 <_ZN17compiler_builtins3mem6memcpy17h5498ba8912cb5f38E+0x594>  // b.lo, b.ul, b.last
   83f0c:	1400002a 	b	83fb4 <_ZN17compiler_builtins3mem6memcpy17h5498ba8912cb5f38E+0x688>
   83f10:	cb0d01d0 	sub	x16, x14, x13
   83f14:	aa0d03ee 	mov	x14, x13
   83f18:	f100821f 	cmp	x16, #0x20
   83f1c:	54000443 	b.cc	83fa4 <_ZN17compiler_builtins3mem6memcpy17h5498ba8912cb5f38E+0x678>  // b.lo, b.ul, b.last
   83f20:	d343fdee 	lsr	x14, x15, #3
   83f24:	b27c0151 	orr	x17, x10, #0x10
   83f28:	910005cf 	add	x15, x14, #0x1
   83f2c:	8b11002a 	add	x10, x1, x17
   83f30:	927eedf0 	and	x16, x15, #0x3ffffffffffffffc
   83f34:	8b110011 	add	x17, x0, x17
   83f38:	d37df20e 	lsl	x14, x16, #3
   83f3c:	aa1003f2 	mov	x18, x16
   83f40:	8b0e0108 	add	x8, x8, x14
   83f44:	8b0e01ae 	add	x14, x13, x14
   83f48:	f85f8141 	ldur	x1, [x10, #-8]
   83f4c:	f1001252 	subs	x18, x18, #0x4
   83f50:	f9002fe1 	str	x1, [sp, #88]
   83f54:	f85f0141 	ldur	x1, [x10, #-16]
   83f58:	f9002be1 	str	x1, [sp, #80]
   83f5c:	f9400541 	ldr	x1, [x10, #8]
   83f60:	f90027e1 	str	x1, [sp, #72]
   83f64:	f8420541 	ldr	x1, [x10], #32
   83f68:	f90023e1 	str	x1, [sp, #64]
   83f6c:	ad4203e1 	ldp	q1, q0, [sp, #64]
   83f70:	3d801fe0 	str	q0, [sp, #112]
   83f74:	f9403fe1 	ldr	x1, [sp, #120]
   83f78:	f81f8221 	stur	x1, [x17, #-8]
   83f7c:	f9403be1 	ldr	x1, [sp, #112]
   83f80:	f81f0221 	stur	x1, [x17, #-16]
   83f84:	3d801be1 	str	q1, [sp, #96]
   83f88:	f94037e1 	ldr	x1, [sp, #104]
   83f8c:	f9000621 	str	x1, [x17, #8]
   83f90:	f94033e1 	ldr	x1, [sp, #96]
   83f94:	f8020621 	str	x1, [x17], #32
   83f98:	54fffd81 	b.ne	83f48 <_ZN17compiler_builtins3mem6memcpy17h5498ba8912cb5f38E+0x61c>  // b.any
   83f9c:	eb1001ff 	cmp	x15, x16
   83fa0:	540000a0 	b.eq	83fb4 <_ZN17compiler_builtins3mem6memcpy17h5498ba8912cb5f38E+0x688>  // b.none
   83fa4:	f84085ca 	ldr	x10, [x14], #8
   83fa8:	f800850a 	str	x10, [x8], #8
   83fac:	eb09011f 	cmp	x8, x9
   83fb0:	54ffffa3 	b.cc	83fa4 <_ZN17compiler_builtins3mem6memcpy17h5498ba8912cb5f38E+0x678>  // b.lo, b.ul, b.last
   83fb4:	8b0c01a1 	add	x1, x13, x12
   83fb8:	92400962 	and	x2, x11, #0x7
   83fbc:	b4001a42 	cbz	x2, 84304 <_ZN17compiler_builtins3mem6memcpy17h5498ba8912cb5f38E+0x9d8>
   83fc0:	8b090048 	add	x8, x2, x9
   83fc4:	9100052a 	add	x10, x9, #0x1
   83fc8:	eb0a011f 	cmp	x8, x10
   83fcc:	9a898508 	csinc	x8, x8, x9, hi  // hi = pmore
   83fd0:	cb090108 	sub	x8, x8, x9
   83fd4:	f100211f 	cmp	x8, #0x8
   83fd8:	54000103 	b.cc	83ff8 <_ZN17compiler_builtins3mem6memcpy17h5498ba8912cb5f38E+0x6cc>  // b.lo, b.ul, b.last
   83fdc:	cb01012a 	sub	x10, x9, x1
   83fe0:	f100815f 	cmp	x10, #0x20
   83fe4:	540000a3 	b.cc	83ff8 <_ZN17compiler_builtins3mem6memcpy17h5498ba8912cb5f38E+0x6cc>  // b.lo, b.ul, b.last
   83fe8:	f100811f 	cmp	x8, #0x20
   83fec:	540000a2 	b.cs	84000 <_ZN17compiler_builtins3mem6memcpy17h5498ba8912cb5f38E+0x6d4>  // b.hs, b.nlast
   83ff0:	aa1f03ea 	mov	x10, xzr
   83ff4:	1400009b 	b	84260 <_ZN17compiler_builtins3mem6memcpy17h5498ba8912cb5f38E+0x934>
   83ff8:	aa0903eb 	mov	x11, x9
   83ffc:	140000bd 	b	842f0 <_ZN17compiler_builtins3mem6memcpy17h5498ba8912cb5f38E+0x9c4>
   84000:	927be90a 	and	x10, x8, #0xffffffffffffffe0
   84004:	9100402b 	add	x11, x1, #0x10
   84008:	9100412d 	add	x13, x9, #0x10
   8400c:	aa0a03ec 	mov	x12, x10
   84010:	aa0b03ee 	mov	x14, x11
   84014:	385f5163 	ldurb	w3, [x11, #-11]
   84018:	f100818c 	subs	x12, x12, #0x20
   8401c:	385f0dcf 	ldrb	w15, [x14, #-16]!
   84020:	aa0e03f0 	mov	x16, x14
   84024:	394009c4 	ldrb	w4, [x14, #2]
   84028:	38404e11 	ldrb	w17, [x16, #4]!
   8402c:	39400e12 	ldrb	w18, [x16, #3]
   84030:	39400a10 	ldrb	w16, [x16, #2]
   84034:	33181c71 	bfi	w17, w3, #8, #8
   84038:	33181e50 	bfi	w16, w18, #8, #8
   8403c:	39400dd2 	ldrb	w18, [x14, #3]
   84040:	33103e11 	bfi	w17, w16, #16, #16
   84044:	385f1170 	ldurb	w16, [x11, #-15]
   84048:	b3781e44 	bfi	x4, x18, #8, #8
   8404c:	b3781e0f 	bfi	x15, x16, #8, #8
   84050:	aa0e03f0 	mov	x16, x14
   84054:	b3703c8f 	bfi	x15, x4, #16, #16
   84058:	b3607e2f 	bfi	x15, x17, #32, #32
   8405c:	f9000bef 	str	x15, [sp, #16]
   84060:	38408e0f 	ldrb	w15, [x16, #8]!
   84064:	39400e11 	ldrb	w17, [x16, #3]
   84068:	39400a12 	ldrb	w18, [x16, #2]
   8406c:	38404e03 	ldrb	w3, [x16, #4]!
   84070:	39400e04 	ldrb	w4, [x16, #3]
   84074:	39400a10 	ldrb	w16, [x16, #2]
   84078:	b3781e32 	bfi	x18, x17, #8, #8
   8407c:	394035c5 	ldrb	w5, [x14, #13]
   84080:	394025ce 	ldrb	w14, [x14, #9]
   84084:	33181c90 	bfi	w16, w4, #8, #8
   84088:	33181ca3 	bfi	w3, w5, #8, #8
   8408c:	b3781dcf 	bfi	x15, x14, #8, #8
   84090:	aa0b03ee 	mov	x14, x11
   84094:	33103e03 	bfi	w3, w16, #16, #16
   84098:	b3703e4f 	bfi	x15, x18, #16, #16
   8409c:	b3607c6f 	bfi	x15, x3, #32, #32
   840a0:	f9000fef 	str	x15, [sp, #24]
   840a4:	38404dcf 	ldrb	w15, [x14, #4]!
   840a8:	39400dd0 	ldrb	w16, [x14, #3]
   840ac:	394009ce 	ldrb	w14, [x14, #2]
   840b0:	39401571 	ldrb	w17, [x11, #5]
   840b4:	39400972 	ldrb	w18, [x11, #2]
   840b8:	33181e0e 	bfi	w14, w16, #8, #8
   840bc:	39400d70 	ldrb	w16, [x11, #3]
   840c0:	33181e2f 	bfi	w15, w17, #8, #8
   840c4:	39400571 	ldrb	w17, [x11, #1]
   840c8:	33103dcf 	bfi	w15, w14, #16, #16
   840cc:	3940016e 	ldrb	w14, [x11]
   840d0:	b3781e12 	bfi	x18, x16, #8, #8
   840d4:	b3781e2e 	bfi	x14, x17, #8, #8
   840d8:	b3703e4e 	bfi	x14, x18, #16, #16
   840dc:	b3607dee 	bfi	x14, x15, #32, #32
   840e0:	aa0b03ef 	mov	x15, x11
   840e4:	f90003ee 	str	x14, [sp]
   840e8:	38408dee 	ldrb	w14, [x15, #8]!
   840ec:	39400df0 	ldrb	w16, [x15, #3]
   840f0:	394009f1 	ldrb	w17, [x15, #2]
   840f4:	38404df2 	ldrb	w18, [x15, #4]!
   840f8:	39400de3 	ldrb	w3, [x15, #3]
   840fc:	394009ef 	ldrb	w15, [x15, #2]
   84100:	b3781e11 	bfi	x17, x16, #8, #8
   84104:	39403564 	ldrb	w4, [x11, #13]
   84108:	33181c6f 	bfi	w15, w3, #8, #8
   8410c:	33181c92 	bfi	w18, w4, #8, #8
   84110:	33103df2 	bfi	w18, w15, #16, #16
   84114:	3940256f 	ldrb	w15, [x11, #9]
   84118:	9100816b 	add	x11, x11, #0x20
   8411c:	b3781dee 	bfi	x14, x15, #8, #8
   84120:	b3703e2e 	bfi	x14, x17, #16, #16
   84124:	b3607e4e 	bfi	x14, x18, #32, #32
   84128:	f90007ee 	str	x14, [sp, #8]
   8412c:	aa0d03ee 	mov	x14, x13
   84130:	ad4003e1 	ldp	q1, q0, [sp]
   84134:	3d800fe0 	str	q0, [sp, #48]
   84138:	f9401bef 	ldr	x15, [sp, #48]
   8413c:	381f0dcf 	strb	w15, [x14, #-16]!
   84140:	f9401ff0 	ldr	x16, [sp, #56]
   84144:	d358fdf1 	lsr	x17, x15, #24
   84148:	d350fdf2 	lsr	x18, x15, #16
   8414c:	d368fde3 	lsr	x3, x15, #40
   84150:	d368fe04 	lsr	x4, x16, #40
   84154:	39000dd1 	strb	w17, [x14, #3]
   84158:	d348fe11 	lsr	x17, x16, #8
   8415c:	390009d2 	strb	w18, [x14, #2]
   84160:	d360fdf2 	lsr	x18, x15, #32
   84164:	381f51a3 	sturb	w3, [x13, #-11]
   84168:	390035c4 	strb	w4, [x14, #13]
   8416c:	d348fde4 	lsr	x4, x15, #8
   84170:	390025d1 	strb	w17, [x14, #9]
   84174:	aa0e03f1 	mov	x17, x14
   84178:	38004dd2 	strb	w18, [x14, #4]!
   8417c:	d378fdf2 	lsr	x18, x15, #56
   84180:	d358fe03 	lsr	x3, x16, #24
   84184:	381f11a4 	sturb	w4, [x13, #-15]
   84188:	d350fe04 	lsr	x4, x16, #16
   8418c:	38008e30 	strb	w16, [x17, #8]!
   84190:	39000e23 	strb	w3, [x17, #3]
   84194:	d370fdef 	lsr	x15, x15, #48
   84198:	d360fe03 	lsr	x3, x16, #32
   8419c:	39000dd2 	strb	w18, [x14, #3]
   841a0:	d378fe12 	lsr	x18, x16, #56
   841a4:	d370fe10 	lsr	x16, x16, #48
   841a8:	39000a24 	strb	w4, [x17, #2]
   841ac:	390009cf 	strb	w15, [x14, #2]
   841b0:	aa0d03ef 	mov	x15, x13
   841b4:	38004e23 	strb	w3, [x17, #4]!
   841b8:	39000e32 	strb	w18, [x17, #3]
   841bc:	39000a30 	strb	w16, [x17, #2]
   841c0:	3d800be1 	str	q1, [sp, #32]
   841c4:	f94013ee 	ldr	x14, [sp, #32]
   841c8:	390001ae 	strb	w14, [x13]
   841cc:	f94017f0 	ldr	x16, [sp, #40]
   841d0:	d358fe11 	lsr	x17, x16, #24
   841d4:	d350fe12 	lsr	x18, x16, #16
   841d8:	d360fe03 	lsr	x3, x16, #32
   841dc:	38008df0 	strb	w16, [x15, #8]!
   841e0:	39000df1 	strb	w17, [x15, #3]
   841e4:	d368fdd1 	lsr	x17, x14, #40
   841e8:	390009f2 	strb	w18, [x15, #2]
   841ec:	d358fdd2 	lsr	x18, x14, #24
   841f0:	38004de3 	strb	w3, [x15, #4]!
   841f4:	d350fdc3 	lsr	x3, x14, #16
   841f8:	390015b1 	strb	w17, [x13, #5]
   841fc:	d348fdd1 	lsr	x17, x14, #8
   84200:	39000db2 	strb	w18, [x13, #3]
   84204:	d368fe12 	lsr	x18, x16, #40
   84208:	390009a3 	strb	w3, [x13, #2]
   8420c:	d348fe03 	lsr	x3, x16, #8
   84210:	390005b1 	strb	w17, [x13, #1]
   84214:	d360fdd1 	lsr	x17, x14, #32
   84218:	390035b2 	strb	w18, [x13, #13]
   8421c:	910081b2 	add	x18, x13, #0x20
   84220:	390025a3 	strb	w3, [x13, #9]
   84224:	d378fdc3 	lsr	x3, x14, #56
   84228:	d370fdce 	lsr	x14, x14, #48
   8422c:	38004db1 	strb	w17, [x13, #4]!
   84230:	39000da3 	strb	w3, [x13, #3]
   84234:	d378fe11 	lsr	x17, x16, #56
   84238:	d370fe10 	lsr	x16, x16, #48
   8423c:	390009ae 	strb	w14, [x13, #2]
   84240:	aa1203ed 	mov	x13, x18
   84244:	39000df1 	strb	w17, [x15, #3]
   84248:	390009f0 	strb	w16, [x15, #2]
   8424c:	54ffee21 	b.ne	84010 <_ZN17compiler_builtins3mem6memcpy17h5498ba8912cb5f38E+0x6e4>  // b.any
   84250:	eb0a011f 	cmp	x8, x10
   84254:	54000580 	b.eq	84304 <_ZN17compiler_builtins3mem6memcpy17h5498ba8912cb5f38E+0x9d8>  // b.none
   84258:	f27d051f 	tst	x8, #0x18
   8425c:	54000460 	b.eq	842e8 <_ZN17compiler_builtins3mem6memcpy17h5498ba8912cb5f38E+0x9bc>  // b.none
   84260:	927df10c 	and	x12, x8, #0xfffffffffffffff8
   84264:	8b0a002d 	add	x13, x1, x10
   84268:	8b0c012b 	add	x11, x9, x12
   8426c:	8b0c0021 	add	x1, x1, x12
   84270:	8b0a012e 	add	x14, x9, x10
   84274:	cb0c014a 	sub	x10, x10, x12
   84278:	aa0d03ef 	mov	x15, x13
   8427c:	394015b0 	ldrb	w16, [x13, #5]
   84280:	394005b1 	ldrb	w17, [x13, #1]
   84284:	b100214a 	adds	x10, x10, #0x8
   84288:	394009a4 	ldrb	w4, [x13, #2]
   8428c:	38404df2 	ldrb	w18, [x15, #4]!
   84290:	394009e3 	ldrb	w3, [x15, #2]
   84294:	39400def 	ldrb	w15, [x15, #3]
   84298:	33181e12 	bfi	w18, w16, #8, #8
   8429c:	39400da6 	ldrb	w6, [x13, #3]
   842a0:	2a0303e5 	mov	w5, w3
   842a4:	33181de5 	bfi	w5, w15, #8, #8
   842a8:	384085a7 	ldrb	w7, [x13], #8
   842ac:	390015d0 	strb	w16, [x14, #5]
   842b0:	910021d0 	add	x16, x14, #0x8
   842b4:	33103cb2 	bfi	w18, w5, #16, #16
   842b8:	390009c4 	strb	w4, [x14, #2]
   842bc:	39000dc6 	strb	w6, [x14, #3]
   842c0:	390001c7 	strb	w7, [x14]
   842c4:	390005d1 	strb	w17, [x14, #1]
   842c8:	38004dd2 	strb	w18, [x14, #4]!
   842cc:	390009c3 	strb	w3, [x14, #2]
   842d0:	39000dcf 	strb	w15, [x14, #3]
   842d4:	aa1003ee 	mov	x14, x16
   842d8:	54fffd01 	b.ne	84278 <_ZN17compiler_builtins3mem6memcpy17h5498ba8912cb5f38E+0x94c>  // b.any
   842dc:	eb0c011f 	cmp	x8, x12
   842e0:	54000081 	b.ne	842f0 <_ZN17compiler_builtins3mem6memcpy17h5498ba8912cb5f38E+0x9c4>  // b.any
   842e4:	14000008 	b	84304 <_ZN17compiler_builtins3mem6memcpy17h5498ba8912cb5f38E+0x9d8>
   842e8:	8b0a0021 	add	x1, x1, x10
   842ec:	8b0a012b 	add	x11, x9, x10
   842f0:	8b020128 	add	x8, x9, x2
   842f4:	38401429 	ldrb	w9, [x1], #1
   842f8:	38001569 	strb	w9, [x11], #1
   842fc:	eb08017f 	cmp	x11, x8
   84300:	54ffffa3 	b.cc	842f4 <_ZN17compiler_builtins3mem6memcpy17h5498ba8912cb5f38E+0x9c8>  // b.lo, b.ul, b.last
   84304:	a9514ff4 	ldp	x20, x19, [sp, #272]
   84308:	f94083fd 	ldr	x29, [sp, #256]
   8430c:	910483ff 	add	sp, sp, #0x120
   84310:	d65f03c0 	ret

Disassembly of section .rodata:

0000000000084320 <anon.8c6131b498ddd7675b1487ede07fb51b.1.llvm.213074863713887243>:
   84320:	65746e45 	fnmls	z5.h, p3/m, z18.h, z20.h
   84324:	676e6972 	.inst	0x676e6972 ; undefined
   84328:	6f6f4220 	mls	v0.8h, v17.8h, v15.h[2]
   8432c:	65532074 	.inst	0x65532074 ; undefined
   84330:	6e657571 	uabd	v17.8h, v11.8h, v5.8h
   84334:	00006563 	udf	#25955

0000000000084338 <anon.8c6131b498ddd7675b1487ede07fb51b.2.llvm.213074863713887243>:
   84338:	00084320 	.inst	0x00084320 ; undefined
   8433c:	00000000 	udf	#0
   84340:	00000016 	udf	#22
   84344:	00000000 	udf	#0

0000000000084348 <anon.8c6131b498ddd7675b1487ede07fb51b.3.llvm.213074863713887243>:
   84348:	6e697250 	uabdl2	v16.4s, v18.8h, v9.8h
   8434c:	6f742074 	umlal2	v20.4s, v3.8h, v4.h[3]
   84350:	696e5520 	ldpsw	x0, x21, [x9, #-144]
   84354:	6974696e 	ldpsw	x14, x26, [x11, #-96]
   84358:	7a696c61 	.inst	0x7a696c61 ; undefined
   8435c:	43206465 	.inst	0x43206465 ; undefined
   84360:	6f736e6f 	.inst	0x6f736e6f ; undefined
   84364:	 	.inst	0x7273656c ; undefined

0000000000084366 <anon.8c6131b498ddd7675b1487ede07fb51b.4.llvm.213074863713887243>:
   84366:	5c637273 	ldr	d19, 14b1b2 <HEAP_SIZE+0x4b1b2>
   8436a:	74616c70 	.inst	0x74616c70 ; undefined
   8436e:	6d726f66 	ldp	d6, d27, [x27, #-224]
   84372:	7361725c 	.inst	0x7361725c ; undefined
   84376:	5c336970 	ldr	d16, eb0a2 <HEAP_START+0x65092>
   8437a:	72617473 	.inst	0x72617473 ; undefined
   8437e:	73722e74 	.inst	0x73722e74 ; undefined
   84382:	00000000 	udf	#0
	...

0000000000084388 <anon.8c6131b498ddd7675b1487ede07fb51b.5.llvm.213074863713887243>:
   84388:	00084366 	.inst	0x00084366 ; undefined
   8438c:	00000000 	udf	#0
   84390:	0000001c 	udf	#28
   84394:	00000000 	udf	#0
   84398:	00000027 	udf	#39
   8439c:	00000005 	udf	#5

00000000000843a0 <anon.8c6131b498ddd7675b1487ede07fb51b.6.llvm.213074863713887243>:
   843a0:	74696e49 	.inst	0x74696e49 ; undefined
   843a4:	696c6169 	ldpsw	x9, x24, [x11, #-160]
   843a8:	676e697a 	.inst	0x676e697a ; undefined
   843ac:	6d654d20 	ldp	d0, d19, [x9, #-432]
   843b0:	2079726f 	.inst	0x2079726f ; undefined
   843b4:	74726956 	.inst	0x74726956 ; undefined
   843b8:	696c6175 	ldpsw	x21, x24, [x11, #-160]
   843bc:	6974617a 	ldpsw	x26, x24, [x11, #-96]
   843c0:	00006e6f 	udf	#28271
   843c4:	00000000 	udf	#0

00000000000843c8 <anon.8c6131b498ddd7675b1487ede07fb51b.7.llvm.213074863713887243>:
   843c8:	000843a0 	.inst	0x000843a0 ; undefined
   843cc:	00000000 	udf	#0
   843d0:	00000022 	udf	#34
   843d4:	00000000 	udf	#0

00000000000843d8 <anon.8c6131b498ddd7675b1487ede07fb51b.8.llvm.213074863713887243>:
   843d8:	00084366 	.inst	0x00084366 ; undefined
   843dc:	00000000 	udf	#0
   843e0:	0000001c 	udf	#28
   843e4:	00000000 	udf	#0
   843e8:	00000028 	udf	#40
   843ec:	00000005 	udf	#5

00000000000843f0 <anon.8c6131b498ddd7675b1487ede07fb51b.9.llvm.213074863713887243>:
   843f0:	6f6d654d 	sqshlu	v13.2d, v10.2d, #45
   843f4:	56207972 	.inst	0x56207972 ; undefined
   843f8:	75747269 	.inst	0x75747269 ; undefined
   843fc:	7a696c61 	.inst	0x7a696c61 ; undefined
   84400:	6f697461 	uqshl	v1.2d, v3.2d, #41
   84404:	6e49206e 	.inst	0x6e49206e ; undefined
   84408:	61697469 	.inst	0x61697469 ; undefined
   8440c:	657a696c 	fnmls	z12.h, p2/m, z11.h, z26.h
   84410:	00000064 	udf	#100
   84414:	00000000 	udf	#0

0000000000084418 <anon.8c6131b498ddd7675b1487ede07fb51b.10.llvm.213074863713887243>:
   84418:	000843f0 	.inst	0x000843f0 ; undefined
   8441c:	00000000 	udf	#0
   84420:	00000021 	udf	#33
   84424:	00000000 	udf	#0

0000000000084428 <anon.8c6131b498ddd7675b1487ede07fb51b.11.llvm.213074863713887243>:
   84428:	00084366 	.inst	0x00084366 ; undefined
   8442c:	00000000 	udf	#0
   84430:	0000001c 	udf	#28
   84434:	00000000 	udf	#0
   84438:	0000002e 	udf	#46
   8443c:	00000005 	udf	#5

0000000000084440 <anon.8c6131b498ddd7675b1487ede07fb51b.12.llvm.213074863713887243>:
   84440:	74696e49 	.inst	0x74696e49 ; undefined
   84444:	696c6169 	ldpsw	x9, x24, [x11, #-160]
   84448:	676e697a 	.inst	0x676e697a ; undefined
   8444c:	61654820 	.inst	0x61654820 ; undefined
   84450:	6c412070 	ldnp	d16, d8, [x3, #16]
   84454:	61636f6c 	.inst	0x61636f6c ; undefined
   84458:	00726f74 	.inst	0x00726f74 ; undefined
   8445c:	00000000 	udf	#0

0000000000084460 <anon.8c6131b498ddd7675b1487ede07fb51b.13.llvm.213074863713887243>:
   84460:	00084440 	.inst	0x00084440 ; undefined
   84464:	00000000 	udf	#0
   84468:	0000001b 	udf	#27
   8446c:	00000000 	udf	#0

0000000000084470 <anon.8c6131b498ddd7675b1487ede07fb51b.14.llvm.213074863713887243>:
   84470:	00084366 	.inst	0x00084366 ; undefined
   84474:	00000000 	udf	#0
   84478:	0000001c 	udf	#28
   8447c:	00000000 	udf	#0
   84480:	00000030 	udf	#48
   84484:	00000005 	udf	#5

0000000000084488 <anon.8c6131b498ddd7675b1487ede07fb51b.15.llvm.213074863713887243>:
   84488:	70616548 	adr	x8, 147133 <HEAP_SIZE+0x47133>
   8448c:	6c6c4120 	ldnp	d0, d16, [x9, #-320]
   84490:	7461636f 	.inst	0x7461636f ; undefined
   84494:	6920726f 	stgp	x15, x28, [x19, #-1024]
   84498:	6974696e 	ldpsw	x14, x26, [x11, #-96]
   8449c:	7a696c61 	.inst	0x7a696c61 ; undefined
   844a0:	61206465 	.inst	0x61206465 ; undefined
   844a4:	 	.inst	0x77202074 ; undefined

00000000000844a6 <anon.8c6131b498ddd7675b1487ede07fb51b.16.llvm.213074863713887243>:
   844a6:	74697720 	.inst	0x74697720 ; undefined
   844aa:	69732068 	.inst	0x69732068 ; undefined
   844ae:	0020657a 	.inst	0x0020657a ; NYI
   844b2:	00000000 	udf	#0
	...

00000000000844b8 <anon.8c6131b498ddd7675b1487ede07fb51b.17.llvm.213074863713887243>:
   844b8:	00084488 	.inst	0x00084488 ; undefined
   844bc:	00000000 	udf	#0
   844c0:	0000001e 	udf	#30
   844c4:	00000000 	udf	#0
   844c8:	000844a6 	.inst	0x000844a6 ; undefined
   844cc:	00000000 	udf	#0
   844d0:	0000000b 	udf	#11
   844d4:	00000000 	udf	#0

00000000000844d8 <anon.8c6131b498ddd7675b1487ede07fb51b.18.llvm.213074863713887243>:
	...
   844e0:	00000002 	udf	#2
	...
   844f0:	00000002 	udf	#2
	...
   84500:	00000020 	udf	#32
   84504:	00000004 	udf	#4
   84508:	00000003 	udf	#3
   8450c:	00000000 	udf	#0
   84510:	00000001 	udf	#1
   84514:	00000000 	udf	#0
   84518:	00000002 	udf	#2
	...
   84528:	00000002 	udf	#2
	...
   84538:	00000020 	udf	#32
   8453c:	00000000 	udf	#0
   84540:	00000003 	udf	#3
   84544:	00000000 	udf	#0

0000000000084548 <anon.8c6131b498ddd7675b1487ede07fb51b.19.llvm.213074863713887243>:
   84548:	00084366 	.inst	0x00084366 ; undefined
   8454c:	00000000 	udf	#0
   84550:	0000001c 	udf	#28
   84554:	00000000 	udf	#0
   84558:	00000032 	udf	#50
   8455c:	00000005 	udf	#5
   84560:	000802d0 	.inst	0x000802d0 ; undefined
   84564:	00000000 	udf	#0
   84568:	00000008 	udf	#8
   8456c:	00000000 	udf	#0
   84570:	00000008 	udf	#8
   84574:	00000000 	udf	#0
   84578:	00080324 	.inst	0x00080324 ; undefined
   8457c:	00000000 	udf	#0
   84580:	000802d4 	.inst	0x000802d4 ; undefined
   84584:	00000000 	udf	#0
   84588:	000802ec 	.inst	0x000802ec ; undefined
   8458c:	00000000 	udf	#0

0000000000084590 <anon.ad842fd83b097cba66aff6be07084d93.8.llvm.3186792272011239407>:
   84590:	000802d0 	.inst	0x000802d0 ; undefined
   84594:	00000000 	udf	#0
   84598:	00000020 	udf	#32
   8459c:	00000000 	udf	#0
   845a0:	00000008 	udf	#8
   845a4:	00000000 	udf	#0
   845a8:	0008040c 	.inst	0x0008040c ; undefined
   845ac:	00000000 	udf	#0
   845b0:	00080108 	.inst	0x00080108 ; undefined
   845b4:	00000000 	udf	#0
   845b8:	0008029c 	.inst	0x0008029c ; undefined
   845bc:	00000000 	udf	#0

00000000000845c0 <anon.ad842fd83b097cba66aff6be07084d93.9.llvm.3186792272011239407>:
   845c0:	4c45285d 	.inst	0x4c45285d ; undefined

00000000000845c4 <anon.ad842fd83b097cba66aff6be07084d93.10.llvm.3186792272011239407>:
   845c4:	 	.inst	0x203a2940 ; undefined

00000000000845c5 <anon.ad842fd83b097cba66aff6be07084d93.11.llvm.3186792272011239407>:
   845c5:	 	adrp	x9, 407c8000 <MAILBOX_BUFFER_START+0x40641ff0>

00000000000845c8 <anon.ad842fd83b097cba66aff6be07084d93.12.llvm.3186792272011239407>:
   845c8:	00084590 	.inst	0x00084590 ; undefined
	...
   845d8:	000845c0 	.inst	0x000845c0 ; undefined
   845dc:	00000000 	udf	#0
   845e0:	00000004 	udf	#4
   845e4:	00000000 	udf	#0
   845e8:	000845c4 	.inst	0x000845c4 ; undefined
   845ec:	00000000 	udf	#0
   845f0:	00000001 	udf	#1
   845f4:	00000000 	udf	#0
   845f8:	000845c5 	.inst	0x000845c5 ; undefined
   845fc:	00000000 	udf	#0
   84600:	00000003 	udf	#3
	...
   84610:	3f000000 	.inst	0x3f000000 ; undefined
   84614:	00000000 	udf	#0
   84618:	00ffffff 	.inst	0x00ffffff ; undefined
   8461c:	00000000 	udf	#0
   84620:	61462041 	.inst	0x61462041 ; undefined
   84624:	206c6174 	.inst	0x206c6174 ; undefined
   84628:	6e72654b 	umax	v11.8h, v10.8h, v18.8h
   8462c:	50206c65 	adr	x5, c53ba <HEAP_START+0x3f3aa>
   84630:	63696e61 	.inst	0x63696e61 ; undefined
   84634:	63634f20 	.inst	0x63634f20 ; undefined
   84638:	64657275 	.inst	0x64657275 ; undefined
   8463c:	6d206f4e 	stp	d14, d27, [x26, #-512]
   84640:	61737365 	.inst	0x61737365 ; undefined
   84644:	73206567 	.inst	0x73206567 ; undefined
   84648:	6c707075 	ldnp	d21, d28, [x3, #-256]
   8464c:	4e646569 	smax	v9.8h, v11.8h, v4.8h
   84650:	6f6c206f 	umlal2	v15.4s, v3.8h, v12.h[2]
   84654:	69746163 	ldpsw	x3, x24, [x11, #-96]
   84658:	66206e6f 	.inst	0x66206e6f ; undefined
   8465c:	646e756f 	.inst	0x646e756f ; undefined
   84660:	00003a40 	udf	#14912
   84664:	00000000 	udf	#0
   84668:	00084660 	.inst	0x00084660 ; undefined
   8466c:	00000000 	udf	#0
   84670:	00000001 	udf	#1
   84674:	00000000 	udf	#0
   84678:	00084661 	.inst	0x00084661 ; undefined
   8467c:	00000000 	udf	#0
   84680:	00000001 	udf	#1
   84684:	00000000 	udf	#0

0000000000084688 <_ZN8graph_os8platform6raspi35start4MMIO17hd12057c12c671ef2E>:
   84688:	3f000000 	.inst	0x3f000000 ; undefined
   8468c:	00000000 	udf	#0
   84690:	00ffffff 	.inst	0x00ffffff ; undefined
   84694:	00000000 	udf	#0

0000000000084698 <_ZN8graph_os8platform6raspi35start4GPIO17hac52a706801ed8caE>:
   84698:	00084688 	.inst	0x00084688 ; undefined
   8469c:	00000000 	udf	#0

00000000000846a0 <anon.1fe462bb405cde5aa1a770536ec4c95c.0.llvm.13437823265787611519>:
   846a0:	65697254 	fnmls	z20.h, p4/m, z18.h, z9.h
   846a4:	6f742064 	umlal2	v4.4s, v3.8h, v4.h[3]
   846a8:	69727720 	ldpsw	x0, x29, [x25, #-112]
   846ac:	74206574 	.inst	0x74206574 ; undefined
   846b0:	6d6d206f 	ldp	d15, d8, [x3, #-304]
   846b4:	6f206f69 	.inst	0x6f206f69 ; undefined
   846b8:	6f207475 	uqshl	v21.4s, v3.4s, #0
   846bc:	6f622066 	umlal2	v6.4s, v3.8h, v2.h[2]
   846c0:	73646e75 	.inst	0x73646e75 ; undefined

00000000000846c4 <anon.1fe462bb405cde5aa1a770536ec4c95c.1.llvm.13437823265787611519>:
   846c4:	5c637273 	ldr	d19, 14b510 <HEAP_SIZE+0x4b510>
   846c8:	74616c70 	.inst	0x74616c70 ; undefined
   846cc:	6d726f66 	ldp	d6, d27, [x27, #-224]
   846d0:	7361725c 	.inst	0x7361725c ; undefined
   846d4:	5c336970 	ldr	d16, eb400 <HEAP_START+0x653f0>
   846d8:	6f696d6d 	.inst	0x6f696d6d ; undefined
   846dc:	0073722e 	.inst	0x0073722e ; undefined

00000000000846e0 <anon.1fe462bb405cde5aa1a770536ec4c95c.2.llvm.13437823265787611519>:
   846e0:	000846c4 	.inst	0x000846c4 ; undefined
   846e4:	00000000 	udf	#0
   846e8:	0000001b 	udf	#27
   846ec:	00000000 	udf	#0
   846f0:	00000028 	udf	#40
   846f4:	00000011 	udf	#17

00000000000846f8 <anon.1fe462bb405cde5aa1a770536ec4c95c.3.llvm.13437823265787611519>:
   846f8:	65697254 	fnmls	z20.h, p4/m, z18.h, z9.h
   846fc:	6f742064 	umlal2	v4.4s, v3.8h, v4.h[3]
   84700:	61657220 	.inst	0x61657220 ; undefined
   84704:	72662064 	.inst	0x72662064 ; undefined
   84708:	6d206d6f 	stp	d15, d27, [x11, #-512]
   8470c:	206f696d 	.inst	0x206f696d ; undefined
   84710:	2074756f 	.inst	0x2074756f ; undefined
   84714:	6220666f 	.inst	0x6220666f ; undefined
   84718:	646e756f 	.inst	0x646e756f ; undefined
   8471c:	00000073 	udf	#115

0000000000084720 <anon.1fe462bb405cde5aa1a770536ec4c95c.4.llvm.13437823265787611519>:
   84720:	000846c4 	.inst	0x000846c4 ; undefined
   84724:	00000000 	udf	#0
   84728:	0000001b 	udf	#27
   8472c:	00000000 	udf	#0
   84730:	00000031 	udf	#49
   84734:	00000011 	udf	#17

0000000000084738 <anon.faac759ee2c97640577bd6f99c471049.0.llvm.14743741708789644672>:
   84738:	555c3a43 	.inst	0x555c3a43 ; undefined
   8473c:	73726573 	.inst	0x73726573 ; undefined
   84740:	736f4d5c 	.inst	0x736f4d5c ; undefined
   84744:	46207365 	.inst	0x46207365 ; undefined
   84748:	6b6d7572 	.inst	0x6b6d7572 ; undefined
   8474c:	2e5c6e69 	.inst	0x2e5c6e69 ; undefined
   84750:	74737572 	.inst	0x74737572 ; undefined
   84754:	745c7075 	.inst	0x745c7075 ; undefined
   84758:	636c6f6f 	.inst	0x636c6f6f ; undefined
   8475c:	6e696168 	rsubhn2	v8.8h, v11.4s, v9.4s
   84760:	696e5c73 	ldpsw	x19, x23, [x3, #-144]
   84764:	6c746867 	ldnp	d7, d26, [x3, #-192]
   84768:	38782d79 	.inst	0x38782d79 ; undefined
   8476c:	34365f36 	cbz	w22, f1350 <HEAP_START+0x6b340>
   84770:	2d63702d 	ldp	s13, s28, [x1, #-232]
   84774:	646e6977 	.inst	0x646e6977 ; undefined
   84778:	2d73776f 	ldp	s15, s29, [x27, #-104]
   8477c:	6376736d 	.inst	0x6376736d ; undefined
   84780:	62696c5c 	.inst	0x62696c5c ; undefined
   84784:	7375725c 	.inst	0x7375725c ; undefined
   84788:	62696c74 	.inst	0x62696c74 ; undefined
   8478c:	6372735c 	.inst	0x6372735c ; undefined
   84790:	7375725c 	.inst	0x7375725c ; undefined
   84794:	696c5c74 	ldpsw	x20, x23, [x3, #-160]
   84798:	72617262 	.inst	0x72617262 ; undefined
   8479c:	6f635c79 	.inst	0x6f635c79 ; undefined
   847a0:	735c6572 	.inst	0x735c6572 ; undefined
   847a4:	665c6372 	.inst	0x665c6372 ; undefined
   847a8:	6e5c746d 	.inst	0x6e5c746d ; undefined
   847ac:	722e6d75 	ands	w21, w11, #0xfffc3fff
   847b0:	00000073 	udf	#115
   847b4:	00000000 	udf	#0

00000000000847b8 <anon.faac759ee2c97640577bd6f99c471049.1.llvm.14743741708789644672>:
   847b8:	00084738 	.inst	0x00084738 ; undefined
   847bc:	00000000 	udf	#0
   847c0:	00000079 	udf	#121
   847c4:	00000000 	udf	#0
   847c8:	00000065 	udf	#101
   847cc:	00000014 	udf	#20

00000000000847d0 <anon.faac759ee2c97640577bd6f99c471049.2.llvm.14743741708789644672>:
   847d0:	 	adr	x16, e56d5 <HEAP_START+0x5f6c5>

00000000000847d2 <anon.faac759ee2c97640577bd6f99c471049.5.llvm.14743741708789644672>:
   847d2:	31303030 	adds	w16, w1, #0xc0c
   847d6:	33303230 	.inst	0x33303230 ; undefined
   847da:	35303430 	cbnz	w16, e4e5e <HEAP_START+0x5ee4e>
   847de:	37303630 	tbnz	w16, #6, 84ea2 <bss_end+0x4b2>
   847e2:	39303830 	strb	w16, [x1, #3086]
   847e6:	31313031 	adds	w17, w1, #0xc4c
   847ea:	33313231 	.inst	0x33313231 ; undefined
   847ee:	35313431 	cbnz	w17, e6e72 <HEAP_START+0x60e62>
   847f2:	37313631 	tbnz	w17, #6, 86eb6 <HEAP_START+0xea6>
   847f6:	39313831 	strb	w17, [x1, #3150]
   847fa:	31323032 	adds	w18, w1, #0xc8c
   847fe:	33323232 	.inst	0x33323232 ; undefined
   84802:	35323432 	cbnz	w18, e8e86 <HEAP_START+0x62e76>
   84806:	37323632 	tbnz	w18, #6, 88eca <HEAP_START+0x2eba>
   8480a:	39323832 	strb	w18, [x1, #3214]
   8480e:	31333033 	adds	w19, w1, #0xccc
   84812:	33333233 	.inst	0x33333233 ; undefined
   84816:	35333433 	cbnz	w19, eae9a <HEAP_START+0x64e8a>
   8481a:	37333633 	tbnz	w19, #6, 8aede <HEAP_START+0x4ece>
   8481e:	39333833 	strb	w19, [x1, #3278]
   84822:	31343034 	adds	w20, w1, #0xd0c
   84826:	33343234 	.inst	0x33343234 ; undefined
   8482a:	35343434 	cbnz	w20, eceae <HEAP_START+0x66e9e>
   8482e:	37343634 	tbnz	w20, #6, 7cef2 <bss_size+0x7cef2>
   84832:	39343834 	strb	w20, [x1, #3342]
   84836:	31353035 	adds	w21, w1, #0xd4c
   8483a:	33353235 	.inst	0x33353235 ; undefined
   8483e:	35353435 	cbnz	w21, eeec2 <HEAP_START+0x68eb2>
   84842:	37353635 	tbnz	w21, #6, 7ef06 <bss_size+0x7ef06>
   84846:	39353835 	strb	w21, [x1, #3406]
   8484a:	31363036 	adds	w22, w1, #0xd8c
   8484e:	33363236 	.inst	0x33363236 ; undefined
   84852:	35363436 	cbnz	w22, f0ed6 <HEAP_START+0x6aec6>
   84856:	37363636 	tbnz	w22, #6, 80f1a <rust_begin_unwind+0x51e>
   8485a:	39363836 	strb	w22, [x1, #3470]
   8485e:	31373037 	adds	w23, w1, #0xdcc
   84862:	33373237 	.inst	0x33373237 ; undefined
   84866:	35373437 	cbnz	w23, f2eea <HEAP_START+0x6ceda>
   8486a:	37373637 	tbnz	w23, #6, 82f2e <_ZN4core3fmt9Formatter12pad_integral17h18655efe8c4788ccE+0x19e>
   8486e:	39373837 	strb	w23, [x1, #3534]
   84872:	31383038 	adds	w24, w1, #0xe0c
   84876:	33383238 	.inst	0x33383238 ; undefined
   8487a:	35383438 	cbnz	w24, f4efe <HEAP_START+0x6eeee>
   8487e:	37383638 	tbnz	w24, #7, 84f42 <bss_end+0x552>
   84882:	39383838 	strb	w24, [x1, #3598]
   84886:	31393039 	adds	w25, w1, #0xe4c
   8488a:	33393239 	.inst	0x33393239 ; undefined
   8488e:	35393439 	cbnz	w25, f6f12 <HEAP_START+0x70f02>
   84892:	37393639 	tbnz	w25, #7, 86f56 <HEAP_START+0xf46>
   84896:	39393839 	strb	w25, [x1, #3662]
   8489a:	00000000 	udf	#0
	...

00000000000848a0 <anon.3b69e9d7ce7df6252631a3caffcbcd7d.9.llvm.7091765834202619814>:
   848a0:	676e6172 	.inst	0x676e6172 ; undefined
   848a4:	74732065 	.inst	0x74732065 ; undefined
   848a8:	20747261 	.inst	0x20747261 ; undefined
   848ac:	65646e69 	fnmls	z9.h, p3/m, z19.h, z4.h
   848b0:	6f202078 	.inst	0x6f202078 ; undefined
   848b4:	6f207475 	uqshl	v21.4s, v3.4s, #0
   848b8:	61722066 	.inst	0x61722066 ; undefined
   848bc:	2065676e 	.inst	0x2065676e ; undefined
   848c0:	20726f66 	.inst	0x20726f66 ; undefined
   848c4:	63696c73 	.inst	0x63696c73 ; undefined
   848c8:	666f2065 	.inst	0x666f2065 ; undefined
   848cc:	6e656c20 	umin	v0.8h, v1.8h, v5.8h
   848d0:	20687467 	.inst	0x20687467 ; undefined
   848d4:	00000000 	udf	#0
   848d8:	000848a0 	.inst	0x000848a0 ; undefined
   848dc:	00000000 	udf	#0
   848e0:	00000012 	udf	#18
   848e4:	00000000 	udf	#0
   848e8:	000848b2 	.inst	0x000848b2 ; undefined
   848ec:	00000000 	udf	#0
   848f0:	00000022 	udf	#34
   848f4:	00000000 	udf	#0
   848f8:	555c3a43 	.inst	0x555c3a43 ; undefined
   848fc:	73726573 	.inst	0x73726573 ; undefined
   84900:	736f4d5c 	.inst	0x736f4d5c ; undefined
   84904:	46207365 	.inst	0x46207365 ; undefined
   84908:	6b6d7572 	.inst	0x6b6d7572 ; undefined
   8490c:	2e5c6e69 	.inst	0x2e5c6e69 ; undefined
   84910:	74737572 	.inst	0x74737572 ; undefined
   84914:	745c7075 	.inst	0x745c7075 ; undefined
   84918:	636c6f6f 	.inst	0x636c6f6f ; undefined
   8491c:	6e696168 	rsubhn2	v8.8h, v11.4s, v9.4s
   84920:	696e5c73 	ldpsw	x19, x23, [x3, #-144]
   84924:	6c746867 	ldnp	d7, d26, [x3, #-192]
   84928:	38782d79 	.inst	0x38782d79 ; undefined
   8492c:	34365f36 	cbz	w22, f1510 <HEAP_START+0x6b500>
   84930:	2d63702d 	ldp	s13, s28, [x1, #-232]
   84934:	646e6977 	.inst	0x646e6977 ; undefined
   84938:	2d73776f 	ldp	s15, s29, [x27, #-104]
   8493c:	6376736d 	.inst	0x6376736d ; undefined
   84940:	62696c5c 	.inst	0x62696c5c ; undefined
   84944:	7375725c 	.inst	0x7375725c ; undefined
   84948:	62696c74 	.inst	0x62696c74 ; undefined
   8494c:	6372735c 	.inst	0x6372735c ; undefined
   84950:	7375725c 	.inst	0x7375725c ; undefined
   84954:	696c5c74 	ldpsw	x20, x23, [x3, #-160]
   84958:	72617262 	.inst	0x72617262 ; undefined
   8495c:	6f635c79 	.inst	0x6f635c79 ; undefined
   84960:	735c6572 	.inst	0x735c6572 ; undefined
   84964:	735c6372 	.inst	0x735c6372 ; undefined
   84968:	6563696c 	fnmls	z12.h, p2/m, z11.h, z3.h
   8496c:	646e695c 	.inst	0x646e695c ; undefined
   84970:	722e7865 	ands	w5, w3, #0xfffdffff
   84974:	00000073 	udf	#115
   84978:	000848f8 	.inst	0x000848f8 ; undefined
   8497c:	00000000 	udf	#0
   84980:	0000007d 	udf	#125
   84984:	00000000 	udf	#0
   84988:	00000034 	udf	#52
   8498c:	00000005 	udf	#5
   84990:	00000000 	udf	#0
   84994:	00000020 	udf	#32
   84998:	eb1c432d 	subs	x13, x25, x28, lsl #16
   8499c:	3f1a36e2 	.inst	0x3f1a36e2 ; undefined
   849a0:	37e08000 	tbnz	w0, #28, 859a0 <TABLE_START+0x9a0>
   849a4:	4341c379 	.inst	0x4341c379 ; undefined

00000000000849a8 <anon.39359c2741cd94d994bc58435cfe5f32.31.llvm.808812796197236722>:
   849a8:	000838c0 	.inst	0x000838c0 ; undefined
	...
   849b8:	00000001 	udf	#1
   849bc:	00000000 	udf	#0
   849c0:	000827e8 	.inst	0x000827e8 ; undefined
   849c4:	00000000 	udf	#0

Disassembly of section .data:

00000000000849c8 <_ZN8graph_os8platform6raspi34uart7CONSOLE17h73c09631cdf23314E>:
	...
   849e0:	00000002 	udf	#2
	...
